ARM GAS  C:\Users\京垓\AppData\Local\Temp\ccFNyFDf.s 			page 1


   1              		.cpu cortex-m4
   2              		.eabi_attribute 27, 1
   3              		.eabi_attribute 28, 1
   4              		.eabi_attribute 20, 1
   5              		.eabi_attribute 21, 1
   6              		.eabi_attribute 23, 3
   7              		.eabi_attribute 24, 1
   8              		.eabi_attribute 25, 1
   9              		.eabi_attribute 26, 1
  10              		.eabi_attribute 30, 1
  11              		.eabi_attribute 34, 1
  12              		.eabi_attribute 18, 4
  13              		.file	"stm32f4xx_cryp.c"
  14              		.text
  15              	.Ltext0:
  16              		.cfi_sections	.debug_frame
  17              		.section	.text.CRYP_DeInit,"ax",%progbits
  18              		.align	1
  19              		.global	CRYP_DeInit
  20              		.arch armv7e-m
  21              		.syntax unified
  22              		.thumb
  23              		.thumb_func
  24              		.fpu fpv4-sp-d16
  26              	CRYP_DeInit:
  27              	.LFB123:
  28              		.file 1 "STM32F4xx_LIB/periph/src/stm32f4xx_cryp.c"
   1:STM32F4xx_LIB/periph/src/stm32f4xx_cryp.c **** /**
   2:STM32F4xx_LIB/periph/src/stm32f4xx_cryp.c ****   ******************************************************************************
   3:STM32F4xx_LIB/periph/src/stm32f4xx_cryp.c ****   * @file    stm32f4xx_cryp.c
   4:STM32F4xx_LIB/periph/src/stm32f4xx_cryp.c ****   * @author  MCD Application Team
   5:STM32F4xx_LIB/periph/src/stm32f4xx_cryp.c ****   * @version V1.8.1
   6:STM32F4xx_LIB/periph/src/stm32f4xx_cryp.c ****   * @date    27-January-2022
   7:STM32F4xx_LIB/periph/src/stm32f4xx_cryp.c ****   * @brief   This file provides firmware functions to manage the following 
   8:STM32F4xx_LIB/periph/src/stm32f4xx_cryp.c ****   *          functionalities of the  Cryptographic processor (CRYP) peripheral:
   9:STM32F4xx_LIB/periph/src/stm32f4xx_cryp.c ****   *           + Initialization and Configuration functions
  10:STM32F4xx_LIB/periph/src/stm32f4xx_cryp.c ****   *           + Data treatment functions 
  11:STM32F4xx_LIB/periph/src/stm32f4xx_cryp.c ****   *           + Context swapping functions     
  12:STM32F4xx_LIB/periph/src/stm32f4xx_cryp.c ****   *           + DMA interface function       
  13:STM32F4xx_LIB/periph/src/stm32f4xx_cryp.c ****   *           + Interrupts and flags management       
  14:STM32F4xx_LIB/periph/src/stm32f4xx_cryp.c ****   *
  15:STM32F4xx_LIB/periph/src/stm32f4xx_cryp.c **** @verbatim
  16:STM32F4xx_LIB/periph/src/stm32f4xx_cryp.c ****  ===================================================================      
  17:STM32F4xx_LIB/periph/src/stm32f4xx_cryp.c ****                  ##### How to use this driver #####
  18:STM32F4xx_LIB/periph/src/stm32f4xx_cryp.c ****  =================================================================== 
  19:STM32F4xx_LIB/periph/src/stm32f4xx_cryp.c ****  [..]
  20:STM32F4xx_LIB/periph/src/stm32f4xx_cryp.c ****    (#) Enable the CRYP controller clock using 
  21:STM32F4xx_LIB/periph/src/stm32f4xx_cryp.c ****        RCC_AHB2PeriphClockCmd(RCC_AHB2Periph_CRYP, ENABLE); function.
  22:STM32F4xx_LIB/periph/src/stm32f4xx_cryp.c ****   
  23:STM32F4xx_LIB/periph/src/stm32f4xx_cryp.c ****    (#) Initialize the CRYP using CRYP_Init(), CRYP_KeyInit() and if needed 
  24:STM32F4xx_LIB/periph/src/stm32f4xx_cryp.c ****        CRYP_IVInit(). 
  25:STM32F4xx_LIB/periph/src/stm32f4xx_cryp.c ****   
  26:STM32F4xx_LIB/periph/src/stm32f4xx_cryp.c ****    (#) Flush the IN and OUT FIFOs by using CRYP_FIFOFlush() function.
  27:STM32F4xx_LIB/periph/src/stm32f4xx_cryp.c ****   
  28:STM32F4xx_LIB/periph/src/stm32f4xx_cryp.c ****    (#) Enable the CRYP controller using the CRYP_Cmd() function. 
  29:STM32F4xx_LIB/periph/src/stm32f4xx_cryp.c ****   
  30:STM32F4xx_LIB/periph/src/stm32f4xx_cryp.c ****    (#) If using DMA for Data input and output transfer, activate the needed DMA 
ARM GAS  C:\Users\京垓\AppData\Local\Temp\ccFNyFDf.s 			page 2


  31:STM32F4xx_LIB/periph/src/stm32f4xx_cryp.c ****        Requests using CRYP_DMACmd() function 
  32:STM32F4xx_LIB/periph/src/stm32f4xx_cryp.c ****   
  33:STM32F4xx_LIB/periph/src/stm32f4xx_cryp.c ****    (#) If DMA is not used for data transfer, use CRYP_DataIn() and  CRYP_DataOut() 
  34:STM32F4xx_LIB/periph/src/stm32f4xx_cryp.c ****        functions to enter data to IN FIFO and get result from OUT FIFO.
  35:STM32F4xx_LIB/periph/src/stm32f4xx_cryp.c ****   
  36:STM32F4xx_LIB/periph/src/stm32f4xx_cryp.c ****    (#) To control CRYP events you can use one of the following two methods:
  37:STM32F4xx_LIB/periph/src/stm32f4xx_cryp.c ****        (++) Check on CRYP flags using the CRYP_GetFlagStatus() function.  
  38:STM32F4xx_LIB/periph/src/stm32f4xx_cryp.c ****        (++) Use CRYP interrupts through the function CRYP_ITConfig() at 
  39:STM32F4xx_LIB/periph/src/stm32f4xx_cryp.c ****             initialization phase and CRYP_GetITStatus() function into interrupt 
  40:STM32F4xx_LIB/periph/src/stm32f4xx_cryp.c ****             routines in processing phase.
  41:STM32F4xx_LIB/periph/src/stm32f4xx_cryp.c ****          
  42:STM32F4xx_LIB/periph/src/stm32f4xx_cryp.c ****    (#) Save and restore Cryptographic processor context using CRYP_SaveContext() 
  43:STM32F4xx_LIB/periph/src/stm32f4xx_cryp.c ****        and CRYP_RestoreContext() functions.     
  44:STM32F4xx_LIB/periph/src/stm32f4xx_cryp.c ****   
  45:STM32F4xx_LIB/periph/src/stm32f4xx_cryp.c ****   
  46:STM32F4xx_LIB/periph/src/stm32f4xx_cryp.c ****  *** Procedure to perform an encryption or a decryption ***
  47:STM32F4xx_LIB/periph/src/stm32f4xx_cryp.c ****  ========================================================== 
  48:STM32F4xx_LIB/periph/src/stm32f4xx_cryp.c ****   
  49:STM32F4xx_LIB/periph/src/stm32f4xx_cryp.c ****  *** Initialization ***
  50:STM32F4xx_LIB/periph/src/stm32f4xx_cryp.c ****  ====================== 
  51:STM32F4xx_LIB/periph/src/stm32f4xx_cryp.c ****  [..] 
  52:STM32F4xx_LIB/periph/src/stm32f4xx_cryp.c ****    (#) Initialize the peripheral using CRYP_Init(), CRYP_KeyInit() and CRYP_IVInit 
  53:STM32F4xx_LIB/periph/src/stm32f4xx_cryp.c ****        functions:
  54:STM32F4xx_LIB/periph/src/stm32f4xx_cryp.c ****        (++) Configure the key size (128-, 192- or 256-bit, in the AES only) 
  55:STM32F4xx_LIB/periph/src/stm32f4xx_cryp.c ****        (++) Enter the symmetric key 
  56:STM32F4xx_LIB/periph/src/stm32f4xx_cryp.c ****        (++) Configure the data type
  57:STM32F4xx_LIB/periph/src/stm32f4xx_cryp.c ****        (++) In case of decryption in AES-ECB or AES-CBC, you must prepare 
  58:STM32F4xx_LIB/periph/src/stm32f4xx_cryp.c ****             the key: configure the key preparation mode. Then Enable the CRYP 
  59:STM32F4xx_LIB/periph/src/stm32f4xx_cryp.c ****             peripheral using CRYP_Cmd() function: the BUSY flag is set. 
  60:STM32F4xx_LIB/periph/src/stm32f4xx_cryp.c ****             Wait until BUSY flag is reset : the key is prepared for decryption
  61:STM32F4xx_LIB/periph/src/stm32f4xx_cryp.c ****        (++) Configure the algorithm and chaining (the DES/TDES in ECB/CBC, the 
  62:STM32F4xx_LIB/periph/src/stm32f4xx_cryp.c ****             AES in ECB/CBC/CTR) 
  63:STM32F4xx_LIB/periph/src/stm32f4xx_cryp.c ****        (++) Configure the direction (encryption/decryption).
  64:STM32F4xx_LIB/periph/src/stm32f4xx_cryp.c ****        (++) Write the initialization vectors (in CBC or CTR modes only)
  65:STM32F4xx_LIB/periph/src/stm32f4xx_cryp.c ****   
  66:STM32F4xx_LIB/periph/src/stm32f4xx_cryp.c ****    (#) Flush the IN and OUT FIFOs using the CRYP_FIFOFlush() function
  67:STM32F4xx_LIB/periph/src/stm32f4xx_cryp.c ****   
  68:STM32F4xx_LIB/periph/src/stm32f4xx_cryp.c ****   
  69:STM32F4xx_LIB/periph/src/stm32f4xx_cryp.c ****   *** Basic Processing mode (polling mode) *** 
  70:STM32F4xx_LIB/periph/src/stm32f4xx_cryp.c ****   ============================================  
  71:STM32F4xx_LIB/periph/src/stm32f4xx_cryp.c ****   [..]
  72:STM32F4xx_LIB/periph/src/stm32f4xx_cryp.c ****     (#) Enable the cryptographic processor using CRYP_Cmd() function.
  73:STM32F4xx_LIB/periph/src/stm32f4xx_cryp.c ****   
  74:STM32F4xx_LIB/periph/src/stm32f4xx_cryp.c ****     (#) Write the first blocks in the input FIFO (2 to 8 words) using 
  75:STM32F4xx_LIB/periph/src/stm32f4xx_cryp.c ****         CRYP_DataIn() function.
  76:STM32F4xx_LIB/periph/src/stm32f4xx_cryp.c ****   
  77:STM32F4xx_LIB/periph/src/stm32f4xx_cryp.c ****     (#) Repeat the following sequence until the complete message has been 
  78:STM32F4xx_LIB/periph/src/stm32f4xx_cryp.c ****         processed:
  79:STM32F4xx_LIB/periph/src/stm32f4xx_cryp.c ****   
  80:STM32F4xx_LIB/periph/src/stm32f4xx_cryp.c ****         (++) Wait for flag CRYP_FLAG_OFNE occurs (using CRYP_GetFlagStatus() 
  81:STM32F4xx_LIB/periph/src/stm32f4xx_cryp.c ****             function), then read the OUT-FIFO using CRYP_DataOut() function
  82:STM32F4xx_LIB/periph/src/stm32f4xx_cryp.c ****             (1 block or until the FIFO is empty)
  83:STM32F4xx_LIB/periph/src/stm32f4xx_cryp.c ****   
  84:STM32F4xx_LIB/periph/src/stm32f4xx_cryp.c ****          (++) Wait for flag CRYP_FLAG_IFNF occurs, (using CRYP_GetFlagStatus() 
  85:STM32F4xx_LIB/periph/src/stm32f4xx_cryp.c ****             function then write the IN FIFO using CRYP_DataIn() function 
  86:STM32F4xx_LIB/periph/src/stm32f4xx_cryp.c ****             (1 block or until the FIFO is full)
  87:STM32F4xx_LIB/periph/src/stm32f4xx_cryp.c ****   
ARM GAS  C:\Users\京垓\AppData\Local\Temp\ccFNyFDf.s 			page 3


  88:STM32F4xx_LIB/periph/src/stm32f4xx_cryp.c ****     (#) At the end of the processing, CRYP_FLAG_BUSY flag will be reset and 
  89:STM32F4xx_LIB/periph/src/stm32f4xx_cryp.c ****           both FIFOs are empty (CRYP_FLAG_IFEM is set and CRYP_FLAG_OFNE is 
  90:STM32F4xx_LIB/periph/src/stm32f4xx_cryp.c ****           reset). You can disable the peripheral using CRYP_Cmd() function.
  91:STM32F4xx_LIB/periph/src/stm32f4xx_cryp.c ****   
  92:STM32F4xx_LIB/periph/src/stm32f4xx_cryp.c ****  *** Interrupts Processing mode *** 
  93:STM32F4xx_LIB/periph/src/stm32f4xx_cryp.c ****  ==================================
  94:STM32F4xx_LIB/periph/src/stm32f4xx_cryp.c ****  [..] In this mode, Processing is done when the data are transferred by the 
  95:STM32F4xx_LIB/periph/src/stm32f4xx_cryp.c ****       CPU during interrupts.
  96:STM32F4xx_LIB/periph/src/stm32f4xx_cryp.c ****   
  97:STM32F4xx_LIB/periph/src/stm32f4xx_cryp.c ****     (#) Enable the interrupts CRYP_IT_INI and CRYP_IT_OUTI using CRYP_ITConfig()
  98:STM32F4xx_LIB/periph/src/stm32f4xx_cryp.c ****         function.
  99:STM32F4xx_LIB/periph/src/stm32f4xx_cryp.c ****   
 100:STM32F4xx_LIB/periph/src/stm32f4xx_cryp.c ****     (#) Enable the cryptographic processor using CRYP_Cmd() function.
 101:STM32F4xx_LIB/periph/src/stm32f4xx_cryp.c ****   
 102:STM32F4xx_LIB/periph/src/stm32f4xx_cryp.c ****     (#) In the CRYP_IT_INI interrupt handler : load the input message into the 
 103:STM32F4xx_LIB/periph/src/stm32f4xx_cryp.c ****          IN FIFO using CRYP_DataIn() function . You can load 2 or 4 words at a 
 104:STM32F4xx_LIB/periph/src/stm32f4xx_cryp.c ****          time, or load data until the IN FIFO is full. When the last word of
 105:STM32F4xx_LIB/periph/src/stm32f4xx_cryp.c ****          the message has been entered into the IN FIFO, disable the CRYP_IT_INI 
 106:STM32F4xx_LIB/periph/src/stm32f4xx_cryp.c ****          interrupt (using CRYP_ITConfig() function).
 107:STM32F4xx_LIB/periph/src/stm32f4xx_cryp.c ****   
 108:STM32F4xx_LIB/periph/src/stm32f4xx_cryp.c ****     (#) In the CRYP_IT_OUTI interrupt handler : read the output message from 
 109:STM32F4xx_LIB/periph/src/stm32f4xx_cryp.c ****          the OUT FIFO using CRYP_DataOut() function. You can read 1 block (2 or 
 110:STM32F4xx_LIB/periph/src/stm32f4xx_cryp.c ****          4 words) at a time or read data until the FIFO is empty.
 111:STM32F4xx_LIB/periph/src/stm32f4xx_cryp.c ****          When the last word has been read, INIM=0, BUSY=0 and both FIFOs are 
 112:STM32F4xx_LIB/periph/src/stm32f4xx_cryp.c ****          empty (CRYP_FLAG_IFEM is set and CRYP_FLAG_OFNE is reset). 
 113:STM32F4xx_LIB/periph/src/stm32f4xx_cryp.c ****          You can disable the CRYP_IT_OUTI interrupt (using CRYP_ITConfig() 
 114:STM32F4xx_LIB/periph/src/stm32f4xx_cryp.c ****          function) and you can disable the peripheral using CRYP_Cmd() function.
 115:STM32F4xx_LIB/periph/src/stm32f4xx_cryp.c ****   
 116:STM32F4xx_LIB/periph/src/stm32f4xx_cryp.c ****  *** DMA Processing mode *** 
 117:STM32F4xx_LIB/periph/src/stm32f4xx_cryp.c ****  ===========================
 118:STM32F4xx_LIB/periph/src/stm32f4xx_cryp.c ****  [..] In this mode, Processing is done when the DMA is used to transfer the 
 119:STM32F4xx_LIB/periph/src/stm32f4xx_cryp.c ****       data from/to the memory.
 120:STM32F4xx_LIB/periph/src/stm32f4xx_cryp.c ****   
 121:STM32F4xx_LIB/periph/src/stm32f4xx_cryp.c ****     (#) Configure the DMA controller to transfer the input data from the 
 122:STM32F4xx_LIB/periph/src/stm32f4xx_cryp.c ****          memory using DMA_Init() function. 
 123:STM32F4xx_LIB/periph/src/stm32f4xx_cryp.c ****          The transfer length is the length of the message. 
 124:STM32F4xx_LIB/periph/src/stm32f4xx_cryp.c ****          As message padding is not managed by the peripheral, the message 
 125:STM32F4xx_LIB/periph/src/stm32f4xx_cryp.c ****          length must be an entire number of blocks. The data are transferred 
 126:STM32F4xx_LIB/periph/src/stm32f4xx_cryp.c ****          in burst mode. The burst length is 4 words in the AES and 2 or 4 
 127:STM32F4xx_LIB/periph/src/stm32f4xx_cryp.c ****          words in the DES/TDES. The DMA should be configured to set an 
 128:STM32F4xx_LIB/periph/src/stm32f4xx_cryp.c ****          interrupt on transfer completion of the output data to indicate that 
 129:STM32F4xx_LIB/periph/src/stm32f4xx_cryp.c ****          the processing is finished. 
 130:STM32F4xx_LIB/periph/src/stm32f4xx_cryp.c ****          Refer to DMA peripheral driver for more details.  
 131:STM32F4xx_LIB/periph/src/stm32f4xx_cryp.c ****   
 132:STM32F4xx_LIB/periph/src/stm32f4xx_cryp.c ****      (#) Enable the cryptographic processor using CRYP_Cmd() function. 
 133:STM32F4xx_LIB/periph/src/stm32f4xx_cryp.c ****          Enable the DMA requests CRYP_DMAReq_DataIN and CRYP_DMAReq_DataOUT 
 134:STM32F4xx_LIB/periph/src/stm32f4xx_cryp.c ****          using CRYP_DMACmd() function.
 135:STM32F4xx_LIB/periph/src/stm32f4xx_cryp.c ****   
 136:STM32F4xx_LIB/periph/src/stm32f4xx_cryp.c ****      (#) All the transfers and processing are managed by the DMA and the 
 137:STM32F4xx_LIB/periph/src/stm32f4xx_cryp.c ****          cryptographic processor. The DMA transfer complete interrupt indicates 
 138:STM32F4xx_LIB/periph/src/stm32f4xx_cryp.c ****          that the processing is complete. Both FIFOs are normally empty and 
 139:STM32F4xx_LIB/periph/src/stm32f4xx_cryp.c ****          CRYP_FLAG_BUSY flag is reset.
 140:STM32F4xx_LIB/periph/src/stm32f4xx_cryp.c ****   
 141:STM32F4xx_LIB/periph/src/stm32f4xx_cryp.c ****     @endverbatim
 142:STM32F4xx_LIB/periph/src/stm32f4xx_cryp.c ****   *
 143:STM32F4xx_LIB/periph/src/stm32f4xx_cryp.c ****   ******************************************************************************
 144:STM32F4xx_LIB/periph/src/stm32f4xx_cryp.c ****   * @attention
ARM GAS  C:\Users\京垓\AppData\Local\Temp\ccFNyFDf.s 			page 4


 145:STM32F4xx_LIB/periph/src/stm32f4xx_cryp.c ****   *
 146:STM32F4xx_LIB/periph/src/stm32f4xx_cryp.c ****   * Copyright (c) 2016 STMicroelectronics.
 147:STM32F4xx_LIB/periph/src/stm32f4xx_cryp.c ****   * All rights reserved.
 148:STM32F4xx_LIB/periph/src/stm32f4xx_cryp.c ****   *
 149:STM32F4xx_LIB/periph/src/stm32f4xx_cryp.c ****   * This software is licensed under terms that can be found in the LICENSE file
 150:STM32F4xx_LIB/periph/src/stm32f4xx_cryp.c ****   * in the root directory of this software component.
 151:STM32F4xx_LIB/periph/src/stm32f4xx_cryp.c ****   * If no LICENSE file comes with this software, it is provided AS-IS.
 152:STM32F4xx_LIB/periph/src/stm32f4xx_cryp.c ****   *
 153:STM32F4xx_LIB/periph/src/stm32f4xx_cryp.c ****   ******************************************************************************
 154:STM32F4xx_LIB/periph/src/stm32f4xx_cryp.c ****   */
 155:STM32F4xx_LIB/periph/src/stm32f4xx_cryp.c **** 
 156:STM32F4xx_LIB/periph/src/stm32f4xx_cryp.c **** /* Includes ------------------------------------------------------------------*/
 157:STM32F4xx_LIB/periph/src/stm32f4xx_cryp.c **** #include "stm32f4xx_cryp.h"
 158:STM32F4xx_LIB/periph/src/stm32f4xx_cryp.c **** #include "stm32f4xx_rcc.h"
 159:STM32F4xx_LIB/periph/src/stm32f4xx_cryp.c **** 
 160:STM32F4xx_LIB/periph/src/stm32f4xx_cryp.c **** /** @addtogroup STM32F4xx_StdPeriph_Driver
 161:STM32F4xx_LIB/periph/src/stm32f4xx_cryp.c ****   * @{
 162:STM32F4xx_LIB/periph/src/stm32f4xx_cryp.c ****   */
 163:STM32F4xx_LIB/periph/src/stm32f4xx_cryp.c **** 
 164:STM32F4xx_LIB/periph/src/stm32f4xx_cryp.c **** /** @defgroup CRYP 
 165:STM32F4xx_LIB/periph/src/stm32f4xx_cryp.c ****   * @brief CRYP driver modules
 166:STM32F4xx_LIB/periph/src/stm32f4xx_cryp.c ****   * @{
 167:STM32F4xx_LIB/periph/src/stm32f4xx_cryp.c ****   */ 
 168:STM32F4xx_LIB/periph/src/stm32f4xx_cryp.c **** 
 169:STM32F4xx_LIB/periph/src/stm32f4xx_cryp.c **** /* Private typedef -----------------------------------------------------------*/
 170:STM32F4xx_LIB/periph/src/stm32f4xx_cryp.c **** /* Private define ------------------------------------------------------------*/
 171:STM32F4xx_LIB/periph/src/stm32f4xx_cryp.c **** #define FLAG_MASK     ((uint8_t)0x20)
 172:STM32F4xx_LIB/periph/src/stm32f4xx_cryp.c **** #define MAX_TIMEOUT   ((uint16_t)0xFFFF)
 173:STM32F4xx_LIB/periph/src/stm32f4xx_cryp.c **** 
 174:STM32F4xx_LIB/periph/src/stm32f4xx_cryp.c **** /* Private macro -------------------------------------------------------------*/
 175:STM32F4xx_LIB/periph/src/stm32f4xx_cryp.c **** /* Private variables ---------------------------------------------------------*/
 176:STM32F4xx_LIB/periph/src/stm32f4xx_cryp.c **** /* Private function prototypes -----------------------------------------------*/
 177:STM32F4xx_LIB/periph/src/stm32f4xx_cryp.c **** /* Private functions ---------------------------------------------------------*/
 178:STM32F4xx_LIB/periph/src/stm32f4xx_cryp.c **** 
 179:STM32F4xx_LIB/periph/src/stm32f4xx_cryp.c **** /** @defgroup CRYP_Private_Functions
 180:STM32F4xx_LIB/periph/src/stm32f4xx_cryp.c ****   * @{
 181:STM32F4xx_LIB/periph/src/stm32f4xx_cryp.c ****   */ 
 182:STM32F4xx_LIB/periph/src/stm32f4xx_cryp.c **** 
 183:STM32F4xx_LIB/periph/src/stm32f4xx_cryp.c **** /** @defgroup CRYP_Group1 Initialization and Configuration functions
 184:STM32F4xx_LIB/periph/src/stm32f4xx_cryp.c ****  *  @brief    Initialization and Configuration functions 
 185:STM32F4xx_LIB/periph/src/stm32f4xx_cryp.c ****  *
 186:STM32F4xx_LIB/periph/src/stm32f4xx_cryp.c **** @verbatim    
 187:STM32F4xx_LIB/periph/src/stm32f4xx_cryp.c ****  ===============================================================================
 188:STM32F4xx_LIB/periph/src/stm32f4xx_cryp.c ****              ##### Initialization and Configuration functions #####
 189:STM32F4xx_LIB/periph/src/stm32f4xx_cryp.c ****  ===============================================================================  
 190:STM32F4xx_LIB/periph/src/stm32f4xx_cryp.c ****  [..] This section provides functions allowing to 
 191:STM32F4xx_LIB/periph/src/stm32f4xx_cryp.c ****    (+) Initialize the cryptographic Processor using CRYP_Init() function 
 192:STM32F4xx_LIB/periph/src/stm32f4xx_cryp.c ****        (++)  Encrypt or Decrypt 
 193:STM32F4xx_LIB/periph/src/stm32f4xx_cryp.c ****        (++)  mode : TDES-ECB, TDES-CBC, 
 194:STM32F4xx_LIB/periph/src/stm32f4xx_cryp.c ****                     DES-ECB, DES-CBC, 
 195:STM32F4xx_LIB/periph/src/stm32f4xx_cryp.c ****                     AES-ECB, AES-CBC, AES-CTR, AES-Key, AES-GCM, AES-CCM 
 196:STM32F4xx_LIB/periph/src/stm32f4xx_cryp.c ****        (++) DataType :  32-bit data, 16-bit data, bit data or bit-string
 197:STM32F4xx_LIB/periph/src/stm32f4xx_cryp.c ****        (++) Key Size (only in AES modes)
 198:STM32F4xx_LIB/periph/src/stm32f4xx_cryp.c ****    (+) Configure the Encrypt or Decrypt Key using CRYP_KeyInit() function 
 199:STM32F4xx_LIB/periph/src/stm32f4xx_cryp.c ****    (+) Configure the Initialization Vectors(IV) for CBC and CTR modes using 
 200:STM32F4xx_LIB/periph/src/stm32f4xx_cryp.c ****        CRYP_IVInit() function.  
 201:STM32F4xx_LIB/periph/src/stm32f4xx_cryp.c ****    (+) Flushes the IN and OUT FIFOs : using CRYP_FIFOFlush() function.                         
ARM GAS  C:\Users\京垓\AppData\Local\Temp\ccFNyFDf.s 			page 5


 202:STM32F4xx_LIB/periph/src/stm32f4xx_cryp.c ****    (+) Enable or disable the CRYP Processor using CRYP_Cmd() function 
 203:STM32F4xx_LIB/periph/src/stm32f4xx_cryp.c ****        
 204:STM32F4xx_LIB/periph/src/stm32f4xx_cryp.c **** @endverbatim
 205:STM32F4xx_LIB/periph/src/stm32f4xx_cryp.c ****   * @{
 206:STM32F4xx_LIB/periph/src/stm32f4xx_cryp.c ****   */
 207:STM32F4xx_LIB/periph/src/stm32f4xx_cryp.c **** /**
 208:STM32F4xx_LIB/periph/src/stm32f4xx_cryp.c ****   * @brief  Deinitializes the CRYP peripheral registers to their default reset values
 209:STM32F4xx_LIB/periph/src/stm32f4xx_cryp.c ****   * @param  None
 210:STM32F4xx_LIB/periph/src/stm32f4xx_cryp.c ****   * @retval None
 211:STM32F4xx_LIB/periph/src/stm32f4xx_cryp.c ****   */
 212:STM32F4xx_LIB/periph/src/stm32f4xx_cryp.c **** void CRYP_DeInit(void)
 213:STM32F4xx_LIB/periph/src/stm32f4xx_cryp.c **** {
  29              		.loc 1 213 1 view -0
  30              		.cfi_startproc
  31              		@ args = 0, pretend = 0, frame = 0
  32              		@ frame_needed = 0, uses_anonymous_args = 0
  33 0000 08B5     		push	{r3, lr}
  34              	.LCFI0:
  35              		.cfi_def_cfa_offset 8
  36              		.cfi_offset 3, -8
  37              		.cfi_offset 14, -4
 214:STM32F4xx_LIB/periph/src/stm32f4xx_cryp.c ****   /* Enable CRYP reset state */
 215:STM32F4xx_LIB/periph/src/stm32f4xx_cryp.c ****   RCC_AHB2PeriphResetCmd(RCC_AHB2Periph_CRYP, ENABLE);
  38              		.loc 1 215 3 view .LVU1
  39 0002 0121     		movs	r1, #1
  40 0004 1020     		movs	r0, #16
  41 0006 FFF7FEFF 		bl	RCC_AHB2PeriphResetCmd
  42              	.LVL0:
 216:STM32F4xx_LIB/periph/src/stm32f4xx_cryp.c **** 
 217:STM32F4xx_LIB/periph/src/stm32f4xx_cryp.c ****   /* Release CRYP from reset state */
 218:STM32F4xx_LIB/periph/src/stm32f4xx_cryp.c ****   RCC_AHB2PeriphResetCmd(RCC_AHB2Periph_CRYP, DISABLE);
  43              		.loc 1 218 3 view .LVU2
  44 000a 0021     		movs	r1, #0
  45 000c 1020     		movs	r0, #16
  46 000e FFF7FEFF 		bl	RCC_AHB2PeriphResetCmd
  47              	.LVL1:
 219:STM32F4xx_LIB/periph/src/stm32f4xx_cryp.c **** }
  48              		.loc 1 219 1 is_stmt 0 view .LVU3
  49 0012 08BD     		pop	{r3, pc}
  50              		.cfi_endproc
  51              	.LFE123:
  53              		.section	.text.CRYP_Init,"ax",%progbits
  54              		.align	1
  55              		.global	CRYP_Init
  56              		.syntax unified
  57              		.thumb
  58              		.thumb_func
  59              		.fpu fpv4-sp-d16
  61              	CRYP_Init:
  62              	.LVL2:
  63              	.LFB124:
 220:STM32F4xx_LIB/periph/src/stm32f4xx_cryp.c **** 
 221:STM32F4xx_LIB/periph/src/stm32f4xx_cryp.c **** /**
 222:STM32F4xx_LIB/periph/src/stm32f4xx_cryp.c ****   * @brief  Initializes the CRYP peripheral according to the specified parameters
 223:STM32F4xx_LIB/periph/src/stm32f4xx_cryp.c ****   *         in the CRYP_InitStruct.
 224:STM32F4xx_LIB/periph/src/stm32f4xx_cryp.c ****   * @param  CRYP_InitStruct: pointer to a CRYP_InitTypeDef structure that contains
 225:STM32F4xx_LIB/periph/src/stm32f4xx_cryp.c ****   *         the configuration information for the CRYP peripheral.
ARM GAS  C:\Users\京垓\AppData\Local\Temp\ccFNyFDf.s 			page 6


 226:STM32F4xx_LIB/periph/src/stm32f4xx_cryp.c ****   * @retval None
 227:STM32F4xx_LIB/periph/src/stm32f4xx_cryp.c ****   */
 228:STM32F4xx_LIB/periph/src/stm32f4xx_cryp.c **** void CRYP_Init(CRYP_InitTypeDef* CRYP_InitStruct)
 229:STM32F4xx_LIB/periph/src/stm32f4xx_cryp.c **** {
  64              		.loc 1 229 1 is_stmt 1 view -0
  65              		.cfi_startproc
  66              		@ args = 0, pretend = 0, frame = 0
  67              		@ frame_needed = 0, uses_anonymous_args = 0
  68              		@ link register save eliminated.
 230:STM32F4xx_LIB/periph/src/stm32f4xx_cryp.c ****   /* Check the parameters */
 231:STM32F4xx_LIB/periph/src/stm32f4xx_cryp.c ****   assert_param(IS_CRYP_ALGOMODE(CRYP_InitStruct->CRYP_AlgoMode));
  69              		.loc 1 231 3 view .LVU5
 232:STM32F4xx_LIB/periph/src/stm32f4xx_cryp.c ****   assert_param(IS_CRYP_DATATYPE(CRYP_InitStruct->CRYP_DataType));
  70              		.loc 1 232 3 view .LVU6
 233:STM32F4xx_LIB/periph/src/stm32f4xx_cryp.c ****   assert_param(IS_CRYP_ALGODIR(CRYP_InitStruct->CRYP_AlgoDir));
  71              		.loc 1 233 3 view .LVU7
 234:STM32F4xx_LIB/periph/src/stm32f4xx_cryp.c **** 
 235:STM32F4xx_LIB/periph/src/stm32f4xx_cryp.c ****   /* Select Algorithm mode*/  
 236:STM32F4xx_LIB/periph/src/stm32f4xx_cryp.c ****   CRYP->CR &= ~CRYP_CR_ALGOMODE;
  72              		.loc 1 236 3 view .LVU8
  73              		.loc 1 236 12 is_stmt 0 view .LVU9
  74 0000 164B     		ldr	r3, .L5
  75 0002 1A68     		ldr	r2, [r3]
  76 0004 22F40022 		bic	r2, r2, #524288
  77 0008 22F03802 		bic	r2, r2, #56
  78 000c 1A60     		str	r2, [r3]
 237:STM32F4xx_LIB/periph/src/stm32f4xx_cryp.c ****   CRYP->CR |= CRYP_InitStruct->CRYP_AlgoMode;
  79              		.loc 1 237 3 is_stmt 1 view .LVU10
  80              		.loc 1 237 12 is_stmt 0 view .LVU11
  81 000e 1A68     		ldr	r2, [r3]
  82              		.loc 1 237 30 view .LVU12
  83 0010 4168     		ldr	r1, [r0, #4]
  84              		.loc 1 237 12 view .LVU13
  85 0012 0A43     		orrs	r2, r2, r1
  86 0014 1A60     		str	r2, [r3]
 238:STM32F4xx_LIB/periph/src/stm32f4xx_cryp.c **** 
 239:STM32F4xx_LIB/periph/src/stm32f4xx_cryp.c ****   /* Select dataType */ 
 240:STM32F4xx_LIB/periph/src/stm32f4xx_cryp.c ****   CRYP->CR &= ~CRYP_CR_DATATYPE;
  87              		.loc 1 240 3 is_stmt 1 view .LVU14
  88              		.loc 1 240 12 is_stmt 0 view .LVU15
  89 0016 1A68     		ldr	r2, [r3]
  90 0018 22F0C002 		bic	r2, r2, #192
  91 001c 1A60     		str	r2, [r3]
 241:STM32F4xx_LIB/periph/src/stm32f4xx_cryp.c ****   CRYP->CR |= CRYP_InitStruct->CRYP_DataType;
  92              		.loc 1 241 3 is_stmt 1 view .LVU16
  93              		.loc 1 241 12 is_stmt 0 view .LVU17
  94 001e 1A68     		ldr	r2, [r3]
  95              		.loc 1 241 30 view .LVU18
  96 0020 8168     		ldr	r1, [r0, #8]
  97              		.loc 1 241 12 view .LVU19
  98 0022 0A43     		orrs	r2, r2, r1
  99 0024 1A60     		str	r2, [r3]
 242:STM32F4xx_LIB/periph/src/stm32f4xx_cryp.c **** 
 243:STM32F4xx_LIB/periph/src/stm32f4xx_cryp.c ****   /* select Key size (used only with AES algorithm) */
 244:STM32F4xx_LIB/periph/src/stm32f4xx_cryp.c ****   if ((CRYP_InitStruct->CRYP_AlgoMode != CRYP_AlgoMode_TDES_ECB) &&
 100              		.loc 1 244 3 is_stmt 1 view .LVU20
 101              		.loc 1 244 23 is_stmt 0 view .LVU21
ARM GAS  C:\Users\京垓\AppData\Local\Temp\ccFNyFDf.s 			page 7


 102 0026 4368     		ldr	r3, [r0, #4]
 103              		.loc 1 244 6 view .LVU22
 104 0028 73B1     		cbz	r3, .L4
 105              		.loc 1 244 66 discriminator 1 view .LVU23
 106 002a 082B     		cmp	r3, #8
 107 002c 0CD0     		beq	.L4
 245:STM32F4xx_LIB/periph/src/stm32f4xx_cryp.c ****       (CRYP_InitStruct->CRYP_AlgoMode != CRYP_AlgoMode_TDES_CBC) &&
 108              		.loc 1 245 66 view .LVU24
 109 002e 102B     		cmp	r3, #16
 110 0030 0AD0     		beq	.L4
 246:STM32F4xx_LIB/periph/src/stm32f4xx_cryp.c ****       (CRYP_InitStruct->CRYP_AlgoMode != CRYP_AlgoMode_DES_ECB) &&
 111              		.loc 1 246 65 view .LVU25
 112 0032 182B     		cmp	r3, #24
 113 0034 08D0     		beq	.L4
 247:STM32F4xx_LIB/periph/src/stm32f4xx_cryp.c ****       (CRYP_InitStruct->CRYP_AlgoMode != CRYP_AlgoMode_DES_CBC))
 248:STM32F4xx_LIB/periph/src/stm32f4xx_cryp.c ****   {
 249:STM32F4xx_LIB/periph/src/stm32f4xx_cryp.c ****     assert_param(IS_CRYP_KEYSIZE(CRYP_InitStruct->CRYP_KeySize));
 114              		.loc 1 249 5 is_stmt 1 view .LVU26
 250:STM32F4xx_LIB/periph/src/stm32f4xx_cryp.c ****     CRYP->CR &= ~CRYP_CR_KEYSIZE;
 115              		.loc 1 250 5 view .LVU27
 116              		.loc 1 250 14 is_stmt 0 view .LVU28
 117 0036 094B     		ldr	r3, .L5
 118 0038 1A68     		ldr	r2, [r3]
 119 003a 22F44072 		bic	r2, r2, #768
 120 003e 1A60     		str	r2, [r3]
 251:STM32F4xx_LIB/periph/src/stm32f4xx_cryp.c ****     CRYP->CR |= CRYP_InitStruct->CRYP_KeySize; /* Key size and value must be 
 121              		.loc 1 251 5 is_stmt 1 view .LVU29
 122              		.loc 1 251 14 is_stmt 0 view .LVU30
 123 0040 1A68     		ldr	r2, [r3]
 124              		.loc 1 251 32 view .LVU31
 125 0042 C168     		ldr	r1, [r0, #12]
 126              		.loc 1 251 14 view .LVU32
 127 0044 0A43     		orrs	r2, r2, r1
 128 0046 1A60     		str	r2, [r3]
 129              	.L4:
 252:STM32F4xx_LIB/periph/src/stm32f4xx_cryp.c ****                                                   configured once the key has 
 253:STM32F4xx_LIB/periph/src/stm32f4xx_cryp.c ****                                                   been prepared */
 254:STM32F4xx_LIB/periph/src/stm32f4xx_cryp.c ****   }
 255:STM32F4xx_LIB/periph/src/stm32f4xx_cryp.c **** 
 256:STM32F4xx_LIB/periph/src/stm32f4xx_cryp.c ****   /* Select data Direction */ 
 257:STM32F4xx_LIB/periph/src/stm32f4xx_cryp.c ****   CRYP->CR &= ~CRYP_CR_ALGODIR;
 130              		.loc 1 257 3 is_stmt 1 view .LVU33
 131              		.loc 1 257 12 is_stmt 0 view .LVU34
 132 0048 044B     		ldr	r3, .L5
 133 004a 1A68     		ldr	r2, [r3]
 134 004c 22F00402 		bic	r2, r2, #4
 135 0050 1A60     		str	r2, [r3]
 258:STM32F4xx_LIB/periph/src/stm32f4xx_cryp.c ****   CRYP->CR |= CRYP_InitStruct->CRYP_AlgoDir;
 136              		.loc 1 258 3 is_stmt 1 view .LVU35
 137              		.loc 1 258 12 is_stmt 0 view .LVU36
 138 0052 1A68     		ldr	r2, [r3]
 139              		.loc 1 258 30 view .LVU37
 140 0054 0168     		ldr	r1, [r0]
 141              		.loc 1 258 12 view .LVU38
 142 0056 0A43     		orrs	r2, r2, r1
 143 0058 1A60     		str	r2, [r3]
 259:STM32F4xx_LIB/periph/src/stm32f4xx_cryp.c **** }
ARM GAS  C:\Users\京垓\AppData\Local\Temp\ccFNyFDf.s 			page 8


 144              		.loc 1 259 1 view .LVU39
 145 005a 7047     		bx	lr
 146              	.L6:
 147              		.align	2
 148              	.L5:
 149 005c 00000650 		.word	1342570496
 150              		.cfi_endproc
 151              	.LFE124:
 153              		.section	.text.CRYP_StructInit,"ax",%progbits
 154              		.align	1
 155              		.global	CRYP_StructInit
 156              		.syntax unified
 157              		.thumb
 158              		.thumb_func
 159              		.fpu fpv4-sp-d16
 161              	CRYP_StructInit:
 162              	.LVL3:
 163              	.LFB125:
 260:STM32F4xx_LIB/periph/src/stm32f4xx_cryp.c **** 
 261:STM32F4xx_LIB/periph/src/stm32f4xx_cryp.c **** /**
 262:STM32F4xx_LIB/periph/src/stm32f4xx_cryp.c ****   * @brief  Fills each CRYP_InitStruct member with its default value.
 263:STM32F4xx_LIB/periph/src/stm32f4xx_cryp.c ****   * @param  CRYP_InitStruct: pointer to a CRYP_InitTypeDef structure which will
 264:STM32F4xx_LIB/periph/src/stm32f4xx_cryp.c ****   *         be initialized.
 265:STM32F4xx_LIB/periph/src/stm32f4xx_cryp.c ****   * @retval None
 266:STM32F4xx_LIB/periph/src/stm32f4xx_cryp.c ****   */
 267:STM32F4xx_LIB/periph/src/stm32f4xx_cryp.c **** void CRYP_StructInit(CRYP_InitTypeDef* CRYP_InitStruct)
 268:STM32F4xx_LIB/periph/src/stm32f4xx_cryp.c **** {
 164              		.loc 1 268 1 is_stmt 1 view -0
 165              		.cfi_startproc
 166              		@ args = 0, pretend = 0, frame = 0
 167              		@ frame_needed = 0, uses_anonymous_args = 0
 168              		@ link register save eliminated.
 269:STM32F4xx_LIB/periph/src/stm32f4xx_cryp.c ****   /* Initialize the CRYP_AlgoDir member */
 270:STM32F4xx_LIB/periph/src/stm32f4xx_cryp.c ****   CRYP_InitStruct->CRYP_AlgoDir = CRYP_AlgoDir_Encrypt;
 169              		.loc 1 270 3 view .LVU41
 170              		.loc 1 270 33 is_stmt 0 view .LVU42
 171 0000 0023     		movs	r3, #0
 172 0002 0360     		str	r3, [r0]
 271:STM32F4xx_LIB/periph/src/stm32f4xx_cryp.c **** 
 272:STM32F4xx_LIB/periph/src/stm32f4xx_cryp.c ****   /* initialize the CRYP_AlgoMode member */
 273:STM32F4xx_LIB/periph/src/stm32f4xx_cryp.c ****   CRYP_InitStruct->CRYP_AlgoMode = CRYP_AlgoMode_TDES_ECB;
 173              		.loc 1 273 3 is_stmt 1 view .LVU43
 174              		.loc 1 273 34 is_stmt 0 view .LVU44
 175 0004 4360     		str	r3, [r0, #4]
 274:STM32F4xx_LIB/periph/src/stm32f4xx_cryp.c **** 
 275:STM32F4xx_LIB/periph/src/stm32f4xx_cryp.c ****   /* initialize the CRYP_DataType member */
 276:STM32F4xx_LIB/periph/src/stm32f4xx_cryp.c ****   CRYP_InitStruct->CRYP_DataType = CRYP_DataType_32b;
 176              		.loc 1 276 3 is_stmt 1 view .LVU45
 177              		.loc 1 276 34 is_stmt 0 view .LVU46
 178 0006 8360     		str	r3, [r0, #8]
 277:STM32F4xx_LIB/periph/src/stm32f4xx_cryp.c ****   
 278:STM32F4xx_LIB/periph/src/stm32f4xx_cryp.c ****   /* Initialize the CRYP_KeySize member */
 279:STM32F4xx_LIB/periph/src/stm32f4xx_cryp.c ****   CRYP_InitStruct->CRYP_KeySize = CRYP_KeySize_128b;
 179              		.loc 1 279 3 is_stmt 1 view .LVU47
 180              		.loc 1 279 33 is_stmt 0 view .LVU48
 181 0008 C360     		str	r3, [r0, #12]
 280:STM32F4xx_LIB/periph/src/stm32f4xx_cryp.c **** }
ARM GAS  C:\Users\京垓\AppData\Local\Temp\ccFNyFDf.s 			page 9


 182              		.loc 1 280 1 view .LVU49
 183 000a 7047     		bx	lr
 184              		.cfi_endproc
 185              	.LFE125:
 187              		.section	.text.CRYP_KeyInit,"ax",%progbits
 188              		.align	1
 189              		.global	CRYP_KeyInit
 190              		.syntax unified
 191              		.thumb
 192              		.thumb_func
 193              		.fpu fpv4-sp-d16
 195              	CRYP_KeyInit:
 196              	.LVL4:
 197              	.LFB126:
 281:STM32F4xx_LIB/periph/src/stm32f4xx_cryp.c **** 
 282:STM32F4xx_LIB/periph/src/stm32f4xx_cryp.c **** /**
 283:STM32F4xx_LIB/periph/src/stm32f4xx_cryp.c ****   * @brief  Initializes the CRYP Keys according to the specified parameters in
 284:STM32F4xx_LIB/periph/src/stm32f4xx_cryp.c ****   *         the CRYP_KeyInitStruct.
 285:STM32F4xx_LIB/periph/src/stm32f4xx_cryp.c ****   * @param  CRYP_KeyInitStruct: pointer to a CRYP_KeyInitTypeDef structure that
 286:STM32F4xx_LIB/periph/src/stm32f4xx_cryp.c ****   *         contains the configuration information for the CRYP Keys.
 287:STM32F4xx_LIB/periph/src/stm32f4xx_cryp.c ****   * @retval None
 288:STM32F4xx_LIB/periph/src/stm32f4xx_cryp.c ****   */
 289:STM32F4xx_LIB/periph/src/stm32f4xx_cryp.c **** void CRYP_KeyInit(CRYP_KeyInitTypeDef* CRYP_KeyInitStruct)
 290:STM32F4xx_LIB/periph/src/stm32f4xx_cryp.c **** {
 198              		.loc 1 290 1 is_stmt 1 view -0
 199              		.cfi_startproc
 200              		@ args = 0, pretend = 0, frame = 0
 201              		@ frame_needed = 0, uses_anonymous_args = 0
 202              		@ link register save eliminated.
 291:STM32F4xx_LIB/periph/src/stm32f4xx_cryp.c ****   /* Key Initialisation */
 292:STM32F4xx_LIB/periph/src/stm32f4xx_cryp.c ****   CRYP->K0LR = CRYP_KeyInitStruct->CRYP_Key0Left;
 203              		.loc 1 292 3 view .LVU51
 204              		.loc 1 292 34 is_stmt 0 view .LVU52
 205 0000 0268     		ldr	r2, [r0]
 206              		.loc 1 292 14 view .LVU53
 207 0002 084B     		ldr	r3, .L9
 208 0004 1A62     		str	r2, [r3, #32]
 293:STM32F4xx_LIB/periph/src/stm32f4xx_cryp.c ****   CRYP->K0RR = CRYP_KeyInitStruct->CRYP_Key0Right;
 209              		.loc 1 293 3 is_stmt 1 view .LVU54
 210              		.loc 1 293 34 is_stmt 0 view .LVU55
 211 0006 4268     		ldr	r2, [r0, #4]
 212              		.loc 1 293 14 view .LVU56
 213 0008 5A62     		str	r2, [r3, #36]
 294:STM32F4xx_LIB/periph/src/stm32f4xx_cryp.c ****   CRYP->K1LR = CRYP_KeyInitStruct->CRYP_Key1Left;
 214              		.loc 1 294 3 is_stmt 1 view .LVU57
 215              		.loc 1 294 34 is_stmt 0 view .LVU58
 216 000a 8268     		ldr	r2, [r0, #8]
 217              		.loc 1 294 14 view .LVU59
 218 000c 9A62     		str	r2, [r3, #40]
 295:STM32F4xx_LIB/periph/src/stm32f4xx_cryp.c ****   CRYP->K1RR = CRYP_KeyInitStruct->CRYP_Key1Right;
 219              		.loc 1 295 3 is_stmt 1 view .LVU60
 220              		.loc 1 295 34 is_stmt 0 view .LVU61
 221 000e C268     		ldr	r2, [r0, #12]
 222              		.loc 1 295 14 view .LVU62
 223 0010 DA62     		str	r2, [r3, #44]
 296:STM32F4xx_LIB/periph/src/stm32f4xx_cryp.c ****   CRYP->K2LR = CRYP_KeyInitStruct->CRYP_Key2Left;
 224              		.loc 1 296 3 is_stmt 1 view .LVU63
ARM GAS  C:\Users\京垓\AppData\Local\Temp\ccFNyFDf.s 			page 10


 225              		.loc 1 296 34 is_stmt 0 view .LVU64
 226 0012 0269     		ldr	r2, [r0, #16]
 227              		.loc 1 296 14 view .LVU65
 228 0014 1A63     		str	r2, [r3, #48]
 297:STM32F4xx_LIB/periph/src/stm32f4xx_cryp.c ****   CRYP->K2RR = CRYP_KeyInitStruct->CRYP_Key2Right;
 229              		.loc 1 297 3 is_stmt 1 view .LVU66
 230              		.loc 1 297 34 is_stmt 0 view .LVU67
 231 0016 4269     		ldr	r2, [r0, #20]
 232              		.loc 1 297 14 view .LVU68
 233 0018 5A63     		str	r2, [r3, #52]
 298:STM32F4xx_LIB/periph/src/stm32f4xx_cryp.c ****   CRYP->K3LR = CRYP_KeyInitStruct->CRYP_Key3Left;
 234              		.loc 1 298 3 is_stmt 1 view .LVU69
 235              		.loc 1 298 34 is_stmt 0 view .LVU70
 236 001a 8269     		ldr	r2, [r0, #24]
 237              		.loc 1 298 14 view .LVU71
 238 001c 9A63     		str	r2, [r3, #56]
 299:STM32F4xx_LIB/periph/src/stm32f4xx_cryp.c ****   CRYP->K3RR = CRYP_KeyInitStruct->CRYP_Key3Right;
 239              		.loc 1 299 3 is_stmt 1 view .LVU72
 240              		.loc 1 299 34 is_stmt 0 view .LVU73
 241 001e C269     		ldr	r2, [r0, #28]
 242              		.loc 1 299 14 view .LVU74
 243 0020 DA63     		str	r2, [r3, #60]
 300:STM32F4xx_LIB/periph/src/stm32f4xx_cryp.c **** }
 244              		.loc 1 300 1 view .LVU75
 245 0022 7047     		bx	lr
 246              	.L10:
 247              		.align	2
 248              	.L9:
 249 0024 00000650 		.word	1342570496
 250              		.cfi_endproc
 251              	.LFE126:
 253              		.section	.text.CRYP_KeyStructInit,"ax",%progbits
 254              		.align	1
 255              		.global	CRYP_KeyStructInit
 256              		.syntax unified
 257              		.thumb
 258              		.thumb_func
 259              		.fpu fpv4-sp-d16
 261              	CRYP_KeyStructInit:
 262              	.LVL5:
 263              	.LFB127:
 301:STM32F4xx_LIB/periph/src/stm32f4xx_cryp.c **** 
 302:STM32F4xx_LIB/periph/src/stm32f4xx_cryp.c **** /**
 303:STM32F4xx_LIB/periph/src/stm32f4xx_cryp.c ****   * @brief  Fills each CRYP_KeyInitStruct member with its default value.
 304:STM32F4xx_LIB/periph/src/stm32f4xx_cryp.c ****   * @param  CRYP_KeyInitStruct: pointer to a CRYP_KeyInitTypeDef structure 
 305:STM32F4xx_LIB/periph/src/stm32f4xx_cryp.c ****   *         which will be initialized.
 306:STM32F4xx_LIB/periph/src/stm32f4xx_cryp.c ****   * @retval None
 307:STM32F4xx_LIB/periph/src/stm32f4xx_cryp.c ****   */
 308:STM32F4xx_LIB/periph/src/stm32f4xx_cryp.c **** void CRYP_KeyStructInit(CRYP_KeyInitTypeDef* CRYP_KeyInitStruct)
 309:STM32F4xx_LIB/periph/src/stm32f4xx_cryp.c **** {
 264              		.loc 1 309 1 is_stmt 1 view -0
 265              		.cfi_startproc
 266              		@ args = 0, pretend = 0, frame = 0
 267              		@ frame_needed = 0, uses_anonymous_args = 0
 268              		@ link register save eliminated.
 310:STM32F4xx_LIB/periph/src/stm32f4xx_cryp.c ****   CRYP_KeyInitStruct->CRYP_Key0Left  = 0;
 269              		.loc 1 310 3 view .LVU77
ARM GAS  C:\Users\京垓\AppData\Local\Temp\ccFNyFDf.s 			page 11


 270              		.loc 1 310 38 is_stmt 0 view .LVU78
 271 0000 0023     		movs	r3, #0
 272 0002 0360     		str	r3, [r0]
 311:STM32F4xx_LIB/periph/src/stm32f4xx_cryp.c ****   CRYP_KeyInitStruct->CRYP_Key0Right = 0;
 273              		.loc 1 311 3 is_stmt 1 view .LVU79
 274              		.loc 1 311 38 is_stmt 0 view .LVU80
 275 0004 4360     		str	r3, [r0, #4]
 312:STM32F4xx_LIB/periph/src/stm32f4xx_cryp.c ****   CRYP_KeyInitStruct->CRYP_Key1Left  = 0;
 276              		.loc 1 312 3 is_stmt 1 view .LVU81
 277              		.loc 1 312 38 is_stmt 0 view .LVU82
 278 0006 8360     		str	r3, [r0, #8]
 313:STM32F4xx_LIB/periph/src/stm32f4xx_cryp.c ****   CRYP_KeyInitStruct->CRYP_Key1Right = 0;
 279              		.loc 1 313 3 is_stmt 1 view .LVU83
 280              		.loc 1 313 38 is_stmt 0 view .LVU84
 281 0008 C360     		str	r3, [r0, #12]
 314:STM32F4xx_LIB/periph/src/stm32f4xx_cryp.c ****   CRYP_KeyInitStruct->CRYP_Key2Left  = 0;
 282              		.loc 1 314 3 is_stmt 1 view .LVU85
 283              		.loc 1 314 38 is_stmt 0 view .LVU86
 284 000a 0361     		str	r3, [r0, #16]
 315:STM32F4xx_LIB/periph/src/stm32f4xx_cryp.c ****   CRYP_KeyInitStruct->CRYP_Key2Right = 0;
 285              		.loc 1 315 3 is_stmt 1 view .LVU87
 286              		.loc 1 315 38 is_stmt 0 view .LVU88
 287 000c 4361     		str	r3, [r0, #20]
 316:STM32F4xx_LIB/periph/src/stm32f4xx_cryp.c ****   CRYP_KeyInitStruct->CRYP_Key3Left  = 0;
 288              		.loc 1 316 3 is_stmt 1 view .LVU89
 289              		.loc 1 316 38 is_stmt 0 view .LVU90
 290 000e 8361     		str	r3, [r0, #24]
 317:STM32F4xx_LIB/periph/src/stm32f4xx_cryp.c ****   CRYP_KeyInitStruct->CRYP_Key3Right = 0;
 291              		.loc 1 317 3 is_stmt 1 view .LVU91
 292              		.loc 1 317 38 is_stmt 0 view .LVU92
 293 0010 C361     		str	r3, [r0, #28]
 318:STM32F4xx_LIB/periph/src/stm32f4xx_cryp.c **** }
 294              		.loc 1 318 1 view .LVU93
 295 0012 7047     		bx	lr
 296              		.cfi_endproc
 297              	.LFE127:
 299              		.section	.text.CRYP_IVInit,"ax",%progbits
 300              		.align	1
 301              		.global	CRYP_IVInit
 302              		.syntax unified
 303              		.thumb
 304              		.thumb_func
 305              		.fpu fpv4-sp-d16
 307              	CRYP_IVInit:
 308              	.LVL6:
 309              	.LFB128:
 319:STM32F4xx_LIB/periph/src/stm32f4xx_cryp.c **** /**
 320:STM32F4xx_LIB/periph/src/stm32f4xx_cryp.c ****   * @brief  Initializes the CRYP Initialization Vectors(IV) according to the
 321:STM32F4xx_LIB/periph/src/stm32f4xx_cryp.c ****   *         specified parameters in the CRYP_IVInitStruct.
 322:STM32F4xx_LIB/periph/src/stm32f4xx_cryp.c ****   * @param  CRYP_IVInitStruct: pointer to a CRYP_IVInitTypeDef structure that contains
 323:STM32F4xx_LIB/periph/src/stm32f4xx_cryp.c ****   *         the configuration information for the CRYP Initialization Vectors(IV).
 324:STM32F4xx_LIB/periph/src/stm32f4xx_cryp.c ****   * @retval None
 325:STM32F4xx_LIB/periph/src/stm32f4xx_cryp.c ****   */
 326:STM32F4xx_LIB/periph/src/stm32f4xx_cryp.c **** void CRYP_IVInit(CRYP_IVInitTypeDef* CRYP_IVInitStruct)
 327:STM32F4xx_LIB/periph/src/stm32f4xx_cryp.c **** {
 310              		.loc 1 327 1 is_stmt 1 view -0
 311              		.cfi_startproc
ARM GAS  C:\Users\京垓\AppData\Local\Temp\ccFNyFDf.s 			page 12


 312              		@ args = 0, pretend = 0, frame = 0
 313              		@ frame_needed = 0, uses_anonymous_args = 0
 314              		@ link register save eliminated.
 328:STM32F4xx_LIB/periph/src/stm32f4xx_cryp.c ****   CRYP->IV0LR = CRYP_IVInitStruct->CRYP_IV0Left;
 315              		.loc 1 328 3 view .LVU95
 316              		.loc 1 328 34 is_stmt 0 view .LVU96
 317 0000 0268     		ldr	r2, [r0]
 318              		.loc 1 328 15 view .LVU97
 319 0002 044B     		ldr	r3, .L13
 320 0004 1A64     		str	r2, [r3, #64]
 329:STM32F4xx_LIB/periph/src/stm32f4xx_cryp.c ****   CRYP->IV0RR = CRYP_IVInitStruct->CRYP_IV0Right;
 321              		.loc 1 329 3 is_stmt 1 view .LVU98
 322              		.loc 1 329 34 is_stmt 0 view .LVU99
 323 0006 4268     		ldr	r2, [r0, #4]
 324              		.loc 1 329 15 view .LVU100
 325 0008 5A64     		str	r2, [r3, #68]
 330:STM32F4xx_LIB/periph/src/stm32f4xx_cryp.c ****   CRYP->IV1LR = CRYP_IVInitStruct->CRYP_IV1Left;
 326              		.loc 1 330 3 is_stmt 1 view .LVU101
 327              		.loc 1 330 34 is_stmt 0 view .LVU102
 328 000a 8268     		ldr	r2, [r0, #8]
 329              		.loc 1 330 15 view .LVU103
 330 000c 9A64     		str	r2, [r3, #72]
 331:STM32F4xx_LIB/periph/src/stm32f4xx_cryp.c ****   CRYP->IV1RR = CRYP_IVInitStruct->CRYP_IV1Right;
 331              		.loc 1 331 3 is_stmt 1 view .LVU104
 332              		.loc 1 331 34 is_stmt 0 view .LVU105
 333 000e C268     		ldr	r2, [r0, #12]
 334              		.loc 1 331 15 view .LVU106
 335 0010 DA64     		str	r2, [r3, #76]
 332:STM32F4xx_LIB/periph/src/stm32f4xx_cryp.c **** }
 336              		.loc 1 332 1 view .LVU107
 337 0012 7047     		bx	lr
 338              	.L14:
 339              		.align	2
 340              	.L13:
 341 0014 00000650 		.word	1342570496
 342              		.cfi_endproc
 343              	.LFE128:
 345              		.section	.text.CRYP_IVStructInit,"ax",%progbits
 346              		.align	1
 347              		.global	CRYP_IVStructInit
 348              		.syntax unified
 349              		.thumb
 350              		.thumb_func
 351              		.fpu fpv4-sp-d16
 353              	CRYP_IVStructInit:
 354              	.LVL7:
 355              	.LFB129:
 333:STM32F4xx_LIB/periph/src/stm32f4xx_cryp.c **** 
 334:STM32F4xx_LIB/periph/src/stm32f4xx_cryp.c **** /**
 335:STM32F4xx_LIB/periph/src/stm32f4xx_cryp.c ****   * @brief  Fills each CRYP_IVInitStruct member with its default value.
 336:STM32F4xx_LIB/periph/src/stm32f4xx_cryp.c ****   * @param  CRYP_IVInitStruct: pointer to a CRYP_IVInitTypeDef Initialization 
 337:STM32F4xx_LIB/periph/src/stm32f4xx_cryp.c ****   *         Vectors(IV) structure which will be initialized.
 338:STM32F4xx_LIB/periph/src/stm32f4xx_cryp.c ****   * @retval None
 339:STM32F4xx_LIB/periph/src/stm32f4xx_cryp.c ****   */
 340:STM32F4xx_LIB/periph/src/stm32f4xx_cryp.c **** void CRYP_IVStructInit(CRYP_IVInitTypeDef* CRYP_IVInitStruct)
 341:STM32F4xx_LIB/periph/src/stm32f4xx_cryp.c **** {
 356              		.loc 1 341 1 is_stmt 1 view -0
ARM GAS  C:\Users\京垓\AppData\Local\Temp\ccFNyFDf.s 			page 13


 357              		.cfi_startproc
 358              		@ args = 0, pretend = 0, frame = 0
 359              		@ frame_needed = 0, uses_anonymous_args = 0
 360              		@ link register save eliminated.
 342:STM32F4xx_LIB/periph/src/stm32f4xx_cryp.c ****   CRYP_IVInitStruct->CRYP_IV0Left  = 0;
 361              		.loc 1 342 3 view .LVU109
 362              		.loc 1 342 36 is_stmt 0 view .LVU110
 363 0000 0023     		movs	r3, #0
 364 0002 0360     		str	r3, [r0]
 343:STM32F4xx_LIB/periph/src/stm32f4xx_cryp.c ****   CRYP_IVInitStruct->CRYP_IV0Right = 0;
 365              		.loc 1 343 3 is_stmt 1 view .LVU111
 366              		.loc 1 343 36 is_stmt 0 view .LVU112
 367 0004 4360     		str	r3, [r0, #4]
 344:STM32F4xx_LIB/periph/src/stm32f4xx_cryp.c ****   CRYP_IVInitStruct->CRYP_IV1Left  = 0;
 368              		.loc 1 344 3 is_stmt 1 view .LVU113
 369              		.loc 1 344 36 is_stmt 0 view .LVU114
 370 0006 8360     		str	r3, [r0, #8]
 345:STM32F4xx_LIB/periph/src/stm32f4xx_cryp.c ****   CRYP_IVInitStruct->CRYP_IV1Right = 0;
 371              		.loc 1 345 3 is_stmt 1 view .LVU115
 372              		.loc 1 345 36 is_stmt 0 view .LVU116
 373 0008 C360     		str	r3, [r0, #12]
 346:STM32F4xx_LIB/periph/src/stm32f4xx_cryp.c **** }
 374              		.loc 1 346 1 view .LVU117
 375 000a 7047     		bx	lr
 376              		.cfi_endproc
 377              	.LFE129:
 379              		.section	.text.CRYP_PhaseConfig,"ax",%progbits
 380              		.align	1
 381              		.global	CRYP_PhaseConfig
 382              		.syntax unified
 383              		.thumb
 384              		.thumb_func
 385              		.fpu fpv4-sp-d16
 387              	CRYP_PhaseConfig:
 388              	.LVL8:
 389              	.LFB130:
 347:STM32F4xx_LIB/periph/src/stm32f4xx_cryp.c **** 
 348:STM32F4xx_LIB/periph/src/stm32f4xx_cryp.c **** /**
 349:STM32F4xx_LIB/periph/src/stm32f4xx_cryp.c ****   * @brief  Configures the AES-CCM and AES-GCM phases
 350:STM32F4xx_LIB/periph/src/stm32f4xx_cryp.c ****   * @note   This function is used only with AES-CCM or AES-GCM Algorithms  
 351:STM32F4xx_LIB/periph/src/stm32f4xx_cryp.c ****   * @param  CRYP_Phase: specifies the CRYP AES-CCM and AES-GCM phase to be configured.
 352:STM32F4xx_LIB/periph/src/stm32f4xx_cryp.c ****   *           This parameter can be one of the following values:
 353:STM32F4xx_LIB/periph/src/stm32f4xx_cryp.c ****   *            @arg CRYP_Phase_Init: Initialization phase
 354:STM32F4xx_LIB/periph/src/stm32f4xx_cryp.c ****   *            @arg CRYP_Phase_Header: Header phase
 355:STM32F4xx_LIB/periph/src/stm32f4xx_cryp.c ****   *            @arg CRYP_Phase_Payload: Payload phase
 356:STM32F4xx_LIB/periph/src/stm32f4xx_cryp.c ****   *            @arg CRYP_Phase_Final: Final phase 
 357:STM32F4xx_LIB/periph/src/stm32f4xx_cryp.c ****   * @retval None
 358:STM32F4xx_LIB/periph/src/stm32f4xx_cryp.c ****   */
 359:STM32F4xx_LIB/periph/src/stm32f4xx_cryp.c **** void CRYP_PhaseConfig(uint32_t CRYP_Phase)
 360:STM32F4xx_LIB/periph/src/stm32f4xx_cryp.c **** { uint32_t tempcr = 0;
 390              		.loc 1 360 1 is_stmt 1 view -0
 391              		.cfi_startproc
 392              		@ args = 0, pretend = 0, frame = 0
 393              		@ frame_needed = 0, uses_anonymous_args = 0
 394              		@ link register save eliminated.
 395              		.loc 1 360 3 view .LVU119
 361:STM32F4xx_LIB/periph/src/stm32f4xx_cryp.c **** 
ARM GAS  C:\Users\京垓\AppData\Local\Temp\ccFNyFDf.s 			page 14


 362:STM32F4xx_LIB/periph/src/stm32f4xx_cryp.c ****   /* Check the parameter */
 363:STM32F4xx_LIB/periph/src/stm32f4xx_cryp.c ****   assert_param(IS_CRYP_PHASE(CRYP_Phase));
 396              		.loc 1 363 3 view .LVU120
 364:STM32F4xx_LIB/periph/src/stm32f4xx_cryp.c **** 
 365:STM32F4xx_LIB/periph/src/stm32f4xx_cryp.c ****   /* Get the CR register */
 366:STM32F4xx_LIB/periph/src/stm32f4xx_cryp.c ****   tempcr = CRYP->CR;
 397              		.loc 1 366 3 view .LVU121
 398              		.loc 1 366 10 is_stmt 0 view .LVU122
 399 0000 034A     		ldr	r2, .L17
 400 0002 1368     		ldr	r3, [r2]
 401              	.LVL9:
 367:STM32F4xx_LIB/periph/src/stm32f4xx_cryp.c ****   
 368:STM32F4xx_LIB/periph/src/stm32f4xx_cryp.c ****   /* Reset the phase configuration bits: GCMP_CCMPH */
 369:STM32F4xx_LIB/periph/src/stm32f4xx_cryp.c ****   tempcr &= (uint32_t)(~CRYP_CR_GCM_CCMPH);
 402              		.loc 1 369 3 is_stmt 1 view .LVU123
 403              		.loc 1 369 10 is_stmt 0 view .LVU124
 404 0004 23F44033 		bic	r3, r3, #196608
 405              	.LVL10:
 370:STM32F4xx_LIB/periph/src/stm32f4xx_cryp.c ****   /* Set the selected phase */
 371:STM32F4xx_LIB/periph/src/stm32f4xx_cryp.c ****   tempcr |= (uint32_t)CRYP_Phase;
 406              		.loc 1 371 3 is_stmt 1 view .LVU125
 407              		.loc 1 371 10 is_stmt 0 view .LVU126
 408 0008 0343     		orrs	r3, r3, r0
 409              	.LVL11:
 372:STM32F4xx_LIB/periph/src/stm32f4xx_cryp.c **** 
 373:STM32F4xx_LIB/periph/src/stm32f4xx_cryp.c ****   /* Set the CR register */ 
 374:STM32F4xx_LIB/periph/src/stm32f4xx_cryp.c ****   CRYP->CR = tempcr;    
 410              		.loc 1 374 3 is_stmt 1 view .LVU127
 411              		.loc 1 374 12 is_stmt 0 view .LVU128
 412 000a 1360     		str	r3, [r2]
 375:STM32F4xx_LIB/periph/src/stm32f4xx_cryp.c **** }
 413              		.loc 1 375 1 view .LVU129
 414 000c 7047     		bx	lr
 415              	.L18:
 416 000e 00BF     		.align	2
 417              	.L17:
 418 0010 00000650 		.word	1342570496
 419              		.cfi_endproc
 420              	.LFE130:
 422              		.section	.text.CRYP_FIFOFlush,"ax",%progbits
 423              		.align	1
 424              		.global	CRYP_FIFOFlush
 425              		.syntax unified
 426              		.thumb
 427              		.thumb_func
 428              		.fpu fpv4-sp-d16
 430              	CRYP_FIFOFlush:
 431              	.LFB131:
 376:STM32F4xx_LIB/periph/src/stm32f4xx_cryp.c **** 
 377:STM32F4xx_LIB/periph/src/stm32f4xx_cryp.c **** /**
 378:STM32F4xx_LIB/periph/src/stm32f4xx_cryp.c ****   * @brief  Flushes the IN and OUT FIFOs (that is read and write pointers of the 
 379:STM32F4xx_LIB/periph/src/stm32f4xx_cryp.c ****   *         FIFOs are reset)
 380:STM32F4xx_LIB/periph/src/stm32f4xx_cryp.c ****   * @note   The FIFOs must be flushed only when BUSY flag is reset.  
 381:STM32F4xx_LIB/periph/src/stm32f4xx_cryp.c ****   * @param  None
 382:STM32F4xx_LIB/periph/src/stm32f4xx_cryp.c ****   * @retval None
 383:STM32F4xx_LIB/periph/src/stm32f4xx_cryp.c ****   */
 384:STM32F4xx_LIB/periph/src/stm32f4xx_cryp.c **** void CRYP_FIFOFlush(void)
ARM GAS  C:\Users\京垓\AppData\Local\Temp\ccFNyFDf.s 			page 15


 385:STM32F4xx_LIB/periph/src/stm32f4xx_cryp.c **** {
 432              		.loc 1 385 1 is_stmt 1 view -0
 433              		.cfi_startproc
 434              		@ args = 0, pretend = 0, frame = 0
 435              		@ frame_needed = 0, uses_anonymous_args = 0
 436              		@ link register save eliminated.
 386:STM32F4xx_LIB/periph/src/stm32f4xx_cryp.c ****   /* Reset the read and write pointers of the FIFOs */
 387:STM32F4xx_LIB/periph/src/stm32f4xx_cryp.c ****   CRYP->CR |= CRYP_CR_FFLUSH;
 437              		.loc 1 387 3 view .LVU131
 438              		.loc 1 387 12 is_stmt 0 view .LVU132
 439 0000 024A     		ldr	r2, .L20
 440 0002 1368     		ldr	r3, [r2]
 441 0004 43F48043 		orr	r3, r3, #16384
 442 0008 1360     		str	r3, [r2]
 388:STM32F4xx_LIB/periph/src/stm32f4xx_cryp.c **** }
 443              		.loc 1 388 1 view .LVU133
 444 000a 7047     		bx	lr
 445              	.L21:
 446              		.align	2
 447              	.L20:
 448 000c 00000650 		.word	1342570496
 449              		.cfi_endproc
 450              	.LFE131:
 452              		.section	.text.CRYP_Cmd,"ax",%progbits
 453              		.align	1
 454              		.global	CRYP_Cmd
 455              		.syntax unified
 456              		.thumb
 457              		.thumb_func
 458              		.fpu fpv4-sp-d16
 460              	CRYP_Cmd:
 461              	.LVL12:
 462              	.LFB132:
 389:STM32F4xx_LIB/periph/src/stm32f4xx_cryp.c **** 
 390:STM32F4xx_LIB/periph/src/stm32f4xx_cryp.c **** /**
 391:STM32F4xx_LIB/periph/src/stm32f4xx_cryp.c ****   * @brief  Enables or disables the CRYP peripheral.
 392:STM32F4xx_LIB/periph/src/stm32f4xx_cryp.c ****   * @param  NewState: new state of the CRYP peripheral.
 393:STM32F4xx_LIB/periph/src/stm32f4xx_cryp.c ****   *          This parameter can be: ENABLE or DISABLE.
 394:STM32F4xx_LIB/periph/src/stm32f4xx_cryp.c ****   * @retval None
 395:STM32F4xx_LIB/periph/src/stm32f4xx_cryp.c ****   */
 396:STM32F4xx_LIB/periph/src/stm32f4xx_cryp.c **** void CRYP_Cmd(FunctionalState NewState)
 397:STM32F4xx_LIB/periph/src/stm32f4xx_cryp.c **** {
 463              		.loc 1 397 1 is_stmt 1 view -0
 464              		.cfi_startproc
 465              		@ args = 0, pretend = 0, frame = 0
 466              		@ frame_needed = 0, uses_anonymous_args = 0
 467              		@ link register save eliminated.
 398:STM32F4xx_LIB/periph/src/stm32f4xx_cryp.c ****   /* Check the parameters */
 399:STM32F4xx_LIB/periph/src/stm32f4xx_cryp.c ****   assert_param(IS_FUNCTIONAL_STATE(NewState));
 468              		.loc 1 399 3 view .LVU135
 400:STM32F4xx_LIB/periph/src/stm32f4xx_cryp.c **** 
 401:STM32F4xx_LIB/periph/src/stm32f4xx_cryp.c ****   if (NewState != DISABLE)
 469              		.loc 1 401 3 view .LVU136
 470              		.loc 1 401 6 is_stmt 0 view .LVU137
 471 0000 28B1     		cbz	r0, .L23
 402:STM32F4xx_LIB/periph/src/stm32f4xx_cryp.c ****   {
 403:STM32F4xx_LIB/periph/src/stm32f4xx_cryp.c ****     /* Enable the Cryptographic processor */
ARM GAS  C:\Users\京垓\AppData\Local\Temp\ccFNyFDf.s 			page 16


 404:STM32F4xx_LIB/periph/src/stm32f4xx_cryp.c ****     CRYP->CR |= CRYP_CR_CRYPEN;
 472              		.loc 1 404 5 is_stmt 1 view .LVU138
 473              		.loc 1 404 14 is_stmt 0 view .LVU139
 474 0002 064A     		ldr	r2, .L25
 475 0004 1368     		ldr	r3, [r2]
 476 0006 43F40043 		orr	r3, r3, #32768
 477 000a 1360     		str	r3, [r2]
 478 000c 7047     		bx	lr
 479              	.L23:
 405:STM32F4xx_LIB/periph/src/stm32f4xx_cryp.c ****   }
 406:STM32F4xx_LIB/periph/src/stm32f4xx_cryp.c ****   else
 407:STM32F4xx_LIB/periph/src/stm32f4xx_cryp.c ****   {
 408:STM32F4xx_LIB/periph/src/stm32f4xx_cryp.c ****     /* Disable the Cryptographic processor */
 409:STM32F4xx_LIB/periph/src/stm32f4xx_cryp.c ****     CRYP->CR &= ~CRYP_CR_CRYPEN;
 480              		.loc 1 409 5 is_stmt 1 view .LVU140
 481              		.loc 1 409 14 is_stmt 0 view .LVU141
 482 000e 034A     		ldr	r2, .L25
 483 0010 1368     		ldr	r3, [r2]
 484 0012 23F40043 		bic	r3, r3, #32768
 485 0016 1360     		str	r3, [r2]
 410:STM32F4xx_LIB/periph/src/stm32f4xx_cryp.c ****   }
 411:STM32F4xx_LIB/periph/src/stm32f4xx_cryp.c **** }
 486              		.loc 1 411 1 view .LVU142
 487 0018 7047     		bx	lr
 488              	.L26:
 489 001a 00BF     		.align	2
 490              	.L25:
 491 001c 00000650 		.word	1342570496
 492              		.cfi_endproc
 493              	.LFE132:
 495              		.section	.text.CRYP_DataIn,"ax",%progbits
 496              		.align	1
 497              		.global	CRYP_DataIn
 498              		.syntax unified
 499              		.thumb
 500              		.thumb_func
 501              		.fpu fpv4-sp-d16
 503              	CRYP_DataIn:
 504              	.LVL13:
 505              	.LFB133:
 412:STM32F4xx_LIB/periph/src/stm32f4xx_cryp.c **** /**
 413:STM32F4xx_LIB/periph/src/stm32f4xx_cryp.c ****   * @}
 414:STM32F4xx_LIB/periph/src/stm32f4xx_cryp.c ****   */
 415:STM32F4xx_LIB/periph/src/stm32f4xx_cryp.c ****   
 416:STM32F4xx_LIB/periph/src/stm32f4xx_cryp.c **** /** @defgroup CRYP_Group2 CRYP Data processing functions
 417:STM32F4xx_LIB/periph/src/stm32f4xx_cryp.c ****  *  @brief    CRYP Data processing functions
 418:STM32F4xx_LIB/periph/src/stm32f4xx_cryp.c ****  *
 419:STM32F4xx_LIB/periph/src/stm32f4xx_cryp.c **** @verbatim    
 420:STM32F4xx_LIB/periph/src/stm32f4xx_cryp.c ****  ===============================================================================
 421:STM32F4xx_LIB/periph/src/stm32f4xx_cryp.c ****                     ##### CRYP Data processing functions #####
 422:STM32F4xx_LIB/periph/src/stm32f4xx_cryp.c ****  ===============================================================================  
 423:STM32F4xx_LIB/periph/src/stm32f4xx_cryp.c ****  [..] This section provides functions allowing the encryption and decryption 
 424:STM32F4xx_LIB/periph/src/stm32f4xx_cryp.c ****       operations: 
 425:STM32F4xx_LIB/periph/src/stm32f4xx_cryp.c ****    (+) Enter data to be treated in the IN FIFO : using CRYP_DataIn() function.
 426:STM32F4xx_LIB/periph/src/stm32f4xx_cryp.c ****    (+) Get the data result from the OUT FIFO : using CRYP_DataOut() function.
 427:STM32F4xx_LIB/periph/src/stm32f4xx_cryp.c **** 
 428:STM32F4xx_LIB/periph/src/stm32f4xx_cryp.c **** @endverbatim
ARM GAS  C:\Users\京垓\AppData\Local\Temp\ccFNyFDf.s 			page 17


 429:STM32F4xx_LIB/periph/src/stm32f4xx_cryp.c ****   * @{
 430:STM32F4xx_LIB/periph/src/stm32f4xx_cryp.c ****   */
 431:STM32F4xx_LIB/periph/src/stm32f4xx_cryp.c **** 
 432:STM32F4xx_LIB/periph/src/stm32f4xx_cryp.c **** /**
 433:STM32F4xx_LIB/periph/src/stm32f4xx_cryp.c ****   * @brief  Writes data in the Data Input register (DIN).
 434:STM32F4xx_LIB/periph/src/stm32f4xx_cryp.c ****   * @note   After the DIN register has been read once or several times, 
 435:STM32F4xx_LIB/periph/src/stm32f4xx_cryp.c ****   *         the FIFO must be flushed (using CRYP_FIFOFlush() function).  
 436:STM32F4xx_LIB/periph/src/stm32f4xx_cryp.c ****   * @param  Data: data to write in Data Input register
 437:STM32F4xx_LIB/periph/src/stm32f4xx_cryp.c ****   * @retval None
 438:STM32F4xx_LIB/periph/src/stm32f4xx_cryp.c ****   */
 439:STM32F4xx_LIB/periph/src/stm32f4xx_cryp.c **** void CRYP_DataIn(uint32_t Data)
 440:STM32F4xx_LIB/periph/src/stm32f4xx_cryp.c **** {
 506              		.loc 1 440 1 is_stmt 1 view -0
 507              		.cfi_startproc
 508              		@ args = 0, pretend = 0, frame = 0
 509              		@ frame_needed = 0, uses_anonymous_args = 0
 510              		@ link register save eliminated.
 441:STM32F4xx_LIB/periph/src/stm32f4xx_cryp.c ****   CRYP->DR = Data;
 511              		.loc 1 441 3 view .LVU144
 512              		.loc 1 441 12 is_stmt 0 view .LVU145
 513 0000 014B     		ldr	r3, .L28
 514 0002 9860     		str	r0, [r3, #8]
 442:STM32F4xx_LIB/periph/src/stm32f4xx_cryp.c **** }
 515              		.loc 1 442 1 view .LVU146
 516 0004 7047     		bx	lr
 517              	.L29:
 518 0006 00BF     		.align	2
 519              	.L28:
 520 0008 00000650 		.word	1342570496
 521              		.cfi_endproc
 522              	.LFE133:
 524              		.section	.text.CRYP_DataOut,"ax",%progbits
 525              		.align	1
 526              		.global	CRYP_DataOut
 527              		.syntax unified
 528              		.thumb
 529              		.thumb_func
 530              		.fpu fpv4-sp-d16
 532              	CRYP_DataOut:
 533              	.LFB134:
 443:STM32F4xx_LIB/periph/src/stm32f4xx_cryp.c **** 
 444:STM32F4xx_LIB/periph/src/stm32f4xx_cryp.c **** /**
 445:STM32F4xx_LIB/periph/src/stm32f4xx_cryp.c ****   * @brief  Returns the last data entered into the output FIFO.
 446:STM32F4xx_LIB/periph/src/stm32f4xx_cryp.c ****   * @param  None
 447:STM32F4xx_LIB/periph/src/stm32f4xx_cryp.c ****   * @retval Last data entered into the output FIFO.
 448:STM32F4xx_LIB/periph/src/stm32f4xx_cryp.c ****   */
 449:STM32F4xx_LIB/periph/src/stm32f4xx_cryp.c **** uint32_t CRYP_DataOut(void)
 450:STM32F4xx_LIB/periph/src/stm32f4xx_cryp.c **** {
 534              		.loc 1 450 1 is_stmt 1 view -0
 535              		.cfi_startproc
 536              		@ args = 0, pretend = 0, frame = 0
 537              		@ frame_needed = 0, uses_anonymous_args = 0
 538              		@ link register save eliminated.
 451:STM32F4xx_LIB/periph/src/stm32f4xx_cryp.c ****   return CRYP->DOUT;
 539              		.loc 1 451 3 view .LVU148
 540              		.loc 1 451 14 is_stmt 0 view .LVU149
 541 0000 014B     		ldr	r3, .L31
ARM GAS  C:\Users\京垓\AppData\Local\Temp\ccFNyFDf.s 			page 18


 542 0002 D868     		ldr	r0, [r3, #12]
 452:STM32F4xx_LIB/periph/src/stm32f4xx_cryp.c **** }
 543              		.loc 1 452 1 view .LVU150
 544 0004 7047     		bx	lr
 545              	.L32:
 546 0006 00BF     		.align	2
 547              	.L31:
 548 0008 00000650 		.word	1342570496
 549              		.cfi_endproc
 550              	.LFE134:
 552              		.section	.text.CRYP_SaveContext,"ax",%progbits
 553              		.align	1
 554              		.global	CRYP_SaveContext
 555              		.syntax unified
 556              		.thumb
 557              		.thumb_func
 558              		.fpu fpv4-sp-d16
 560              	CRYP_SaveContext:
 561              	.LVL14:
 562              	.LFB135:
 453:STM32F4xx_LIB/periph/src/stm32f4xx_cryp.c **** /**
 454:STM32F4xx_LIB/periph/src/stm32f4xx_cryp.c ****   * @}
 455:STM32F4xx_LIB/periph/src/stm32f4xx_cryp.c ****   */
 456:STM32F4xx_LIB/periph/src/stm32f4xx_cryp.c ****   
 457:STM32F4xx_LIB/periph/src/stm32f4xx_cryp.c **** /** @defgroup CRYP_Group3 Context swapping functions
 458:STM32F4xx_LIB/periph/src/stm32f4xx_cryp.c ****  *  @brief   Context swapping functions
 459:STM32F4xx_LIB/periph/src/stm32f4xx_cryp.c ****  *
 460:STM32F4xx_LIB/periph/src/stm32f4xx_cryp.c **** @verbatim   
 461:STM32F4xx_LIB/periph/src/stm32f4xx_cryp.c ****  ===============================================================================
 462:STM32F4xx_LIB/periph/src/stm32f4xx_cryp.c ****                       ##### Context swapping functions #####
 463:STM32F4xx_LIB/periph/src/stm32f4xx_cryp.c ****  ===============================================================================  
 464:STM32F4xx_LIB/periph/src/stm32f4xx_cryp.c ****  [..] This section provides functions allowing to save and store CRYP Context
 465:STM32F4xx_LIB/periph/src/stm32f4xx_cryp.c **** 
 466:STM32F4xx_LIB/periph/src/stm32f4xx_cryp.c ****  [..] It is possible to interrupt an encryption/ decryption/ key generation process 
 467:STM32F4xx_LIB/periph/src/stm32f4xx_cryp.c ****       to perform another processing with a higher priority, and to complete the 
 468:STM32F4xx_LIB/periph/src/stm32f4xx_cryp.c ****       interrupted process later on, when the higher-priority task is complete. To do 
 469:STM32F4xx_LIB/periph/src/stm32f4xx_cryp.c ****       so, the context of the interrupted task must be saved from the CRYP registers 
 470:STM32F4xx_LIB/periph/src/stm32f4xx_cryp.c ****       to memory, and then be restored from memory to the CRYP registers.
 471:STM32F4xx_LIB/periph/src/stm32f4xx_cryp.c ****    
 472:STM32F4xx_LIB/periph/src/stm32f4xx_cryp.c ****    (#) To save the current context, use CRYP_SaveContext() function
 473:STM32F4xx_LIB/periph/src/stm32f4xx_cryp.c ****    (#) To restore the saved context, use CRYP_RestoreContext() function 
 474:STM32F4xx_LIB/periph/src/stm32f4xx_cryp.c **** 
 475:STM32F4xx_LIB/periph/src/stm32f4xx_cryp.c **** @endverbatim
 476:STM32F4xx_LIB/periph/src/stm32f4xx_cryp.c ****   * @{
 477:STM32F4xx_LIB/periph/src/stm32f4xx_cryp.c ****   */
 478:STM32F4xx_LIB/periph/src/stm32f4xx_cryp.c ****   
 479:STM32F4xx_LIB/periph/src/stm32f4xx_cryp.c **** /**
 480:STM32F4xx_LIB/periph/src/stm32f4xx_cryp.c ****   * @brief  Saves the CRYP peripheral Context. 
 481:STM32F4xx_LIB/periph/src/stm32f4xx_cryp.c ****   * @note   This function stops DMA transfer before to save the context. After 
 482:STM32F4xx_LIB/periph/src/stm32f4xx_cryp.c ****   *         restoring the context, you have to enable the DMA again (if the DMA
 483:STM32F4xx_LIB/periph/src/stm32f4xx_cryp.c ****   *         was previously used).
 484:STM32F4xx_LIB/periph/src/stm32f4xx_cryp.c ****   * @param  CRYP_ContextSave: pointer to a CRYP_Context structure that contains
 485:STM32F4xx_LIB/periph/src/stm32f4xx_cryp.c ****   *         the repository for current context.
 486:STM32F4xx_LIB/periph/src/stm32f4xx_cryp.c ****   * @param  CRYP_KeyInitStruct: pointer to a CRYP_KeyInitTypeDef structure that 
 487:STM32F4xx_LIB/periph/src/stm32f4xx_cryp.c ****   *         contains the configuration information for the CRYP Keys.  
 488:STM32F4xx_LIB/periph/src/stm32f4xx_cryp.c ****   * @retval None
 489:STM32F4xx_LIB/periph/src/stm32f4xx_cryp.c ****   */
ARM GAS  C:\Users\京垓\AppData\Local\Temp\ccFNyFDf.s 			page 19


 490:STM32F4xx_LIB/periph/src/stm32f4xx_cryp.c **** ErrorStatus CRYP_SaveContext(CRYP_Context* CRYP_ContextSave,
 491:STM32F4xx_LIB/periph/src/stm32f4xx_cryp.c ****                              CRYP_KeyInitTypeDef* CRYP_KeyInitStruct)
 492:STM32F4xx_LIB/periph/src/stm32f4xx_cryp.c **** {
 563              		.loc 1 492 1 is_stmt 1 view -0
 564              		.cfi_startproc
 565              		@ args = 0, pretend = 0, frame = 8
 566              		@ frame_needed = 0, uses_anonymous_args = 0
 567              		@ link register save eliminated.
 568              		.loc 1 492 1 is_stmt 0 view .LVU152
 569 0000 30B4     		push	{r4, r5}
 570              	.LCFI1:
 571              		.cfi_def_cfa_offset 8
 572              		.cfi_offset 4, -8
 573              		.cfi_offset 5, -4
 574 0002 82B0     		sub	sp, sp, #8
 575              	.LCFI2:
 576              		.cfi_def_cfa_offset 16
 493:STM32F4xx_LIB/periph/src/stm32f4xx_cryp.c ****   __IO uint32_t timeout = 0;
 577              		.loc 1 493 3 is_stmt 1 view .LVU153
 578              		.loc 1 493 17 is_stmt 0 view .LVU154
 579 0004 0023     		movs	r3, #0
 580 0006 0193     		str	r3, [sp, #4]
 494:STM32F4xx_LIB/periph/src/stm32f4xx_cryp.c ****   uint32_t ckeckmask = 0, bitstatus;    
 581              		.loc 1 494 3 is_stmt 1 view .LVU155
 582              	.LVL15:
 495:STM32F4xx_LIB/periph/src/stm32f4xx_cryp.c ****   ErrorStatus status = ERROR;
 583              		.loc 1 495 3 view .LVU156
 496:STM32F4xx_LIB/periph/src/stm32f4xx_cryp.c **** 
 497:STM32F4xx_LIB/periph/src/stm32f4xx_cryp.c ****   /* Stop DMA transfers on the IN FIFO by clearing the DIEN bit in the CRYP_DMACR */
 498:STM32F4xx_LIB/periph/src/stm32f4xx_cryp.c ****   CRYP->DMACR &= ~(uint32_t)CRYP_DMACR_DIEN;
 584              		.loc 1 498 3 view .LVU157
 585              		.loc 1 498 15 is_stmt 0 view .LVU158
 586 0008 394B     		ldr	r3, .L42
 587 000a 1A69     		ldr	r2, [r3, #16]
 588 000c 22F00102 		bic	r2, r2, #1
 589 0010 1A61     		str	r2, [r3, #16]
 499:STM32F4xx_LIB/periph/src/stm32f4xx_cryp.c ****     
 500:STM32F4xx_LIB/periph/src/stm32f4xx_cryp.c ****   /* Wait until both the IN and OUT FIFOs are empty  
 501:STM32F4xx_LIB/periph/src/stm32f4xx_cryp.c ****     (IFEM=1 and OFNE=0 in the CRYP_SR register) and the 
 502:STM32F4xx_LIB/periph/src/stm32f4xx_cryp.c ****      BUSY bit is cleared. */
 503:STM32F4xx_LIB/periph/src/stm32f4xx_cryp.c **** 
 504:STM32F4xx_LIB/periph/src/stm32f4xx_cryp.c ****   if ((CRYP->CR & (uint32_t)(CRYP_CR_ALGOMODE_TDES_ECB | CRYP_CR_ALGOMODE_TDES_CBC)) != (uint32_t)0
 590              		.loc 1 504 3 is_stmt 1 view .LVU159
 591              		.loc 1 504 12 is_stmt 0 view .LVU160
 592 0012 1B68     		ldr	r3, [r3]
 593              		.loc 1 504 6 view .LVU161
 594 0014 13F0080F 		tst	r3, #8
 595 0018 16D0     		beq	.L38
 505:STM32F4xx_LIB/periph/src/stm32f4xx_cryp.c ****   { 
 506:STM32F4xx_LIB/periph/src/stm32f4xx_cryp.c ****     ckeckmask =  CRYP_SR_IFEM | CRYP_SR_BUSY ;
 596              		.loc 1 506 15 view .LVU162
 597 001a 1125     		movs	r5, #17
 598              	.LVL16:
 599              	.L36:
 507:STM32F4xx_LIB/periph/src/stm32f4xx_cryp.c ****   }
 508:STM32F4xx_LIB/periph/src/stm32f4xx_cryp.c ****   else /* AES or DES */
 509:STM32F4xx_LIB/periph/src/stm32f4xx_cryp.c ****   {
ARM GAS  C:\Users\京垓\AppData\Local\Temp\ccFNyFDf.s 			page 20


 510:STM32F4xx_LIB/periph/src/stm32f4xx_cryp.c ****     ckeckmask =  CRYP_SR_IFEM | CRYP_SR_BUSY | CRYP_SR_OFNE;
 511:STM32F4xx_LIB/periph/src/stm32f4xx_cryp.c ****   }           
 512:STM32F4xx_LIB/periph/src/stm32f4xx_cryp.c ****    
 513:STM32F4xx_LIB/periph/src/stm32f4xx_cryp.c ****   do 
 600              		.loc 1 513 3 is_stmt 1 discriminator 2 view .LVU163
 514:STM32F4xx_LIB/periph/src/stm32f4xx_cryp.c ****   {
 515:STM32F4xx_LIB/periph/src/stm32f4xx_cryp.c ****     bitstatus = CRYP->SR & ckeckmask;
 601              		.loc 1 515 5 discriminator 2 view .LVU164
 602              		.loc 1 515 21 is_stmt 0 discriminator 2 view .LVU165
 603 001c 344B     		ldr	r3, .L42
 604 001e 5A68     		ldr	r2, [r3, #4]
 605              		.loc 1 515 15 discriminator 2 view .LVU166
 606 0020 2A40     		ands	r2, r2, r5
 607              	.LVL17:
 516:STM32F4xx_LIB/periph/src/stm32f4xx_cryp.c ****     timeout++;
 608              		.loc 1 516 5 is_stmt 1 discriminator 2 view .LVU167
 609              		.loc 1 516 12 is_stmt 0 discriminator 2 view .LVU168
 610 0022 019B     		ldr	r3, [sp, #4]
 611 0024 0133     		adds	r3, r3, #1
 612 0026 0193     		str	r3, [sp, #4]
 517:STM32F4xx_LIB/periph/src/stm32f4xx_cryp.c ****   }
 518:STM32F4xx_LIB/periph/src/stm32f4xx_cryp.c ****   while ((timeout != MAX_TIMEOUT) && (bitstatus != CRYP_SR_IFEM));
 613              		.loc 1 518 9 is_stmt 1 discriminator 2 view .LVU169
 614              		.loc 1 518 19 is_stmt 0 discriminator 2 view .LVU170
 615 0028 019C     		ldr	r4, [sp, #4]
 616              		.loc 1 518 3 discriminator 2 view .LVU171
 617 002a 4FF6FF73 		movw	r3, #65535
 618 002e 9C42     		cmp	r4, r3
 619 0030 01D0     		beq	.L35
 620              		.loc 1 518 35 discriminator 1 view .LVU172
 621 0032 012A     		cmp	r2, #1
 622 0034 F2D1     		bne	.L36
 623              	.L35:
 519:STM32F4xx_LIB/periph/src/stm32f4xx_cryp.c ****      
 520:STM32F4xx_LIB/periph/src/stm32f4xx_cryp.c ****   if ((CRYP->SR & ckeckmask) != CRYP_SR_IFEM)
 624              		.loc 1 520 3 is_stmt 1 view .LVU173
 625              		.loc 1 520 12 is_stmt 0 view .LVU174
 626 0036 2E4B     		ldr	r3, .L42
 627 0038 5B68     		ldr	r3, [r3, #4]
 628              		.loc 1 520 17 view .LVU175
 629 003a 1D40     		ands	r5, r5, r3
 630              	.LVL18:
 631              		.loc 1 520 6 view .LVU176
 632 003c 012D     		cmp	r5, #1
 633 003e 05D0     		beq	.L41
 521:STM32F4xx_LIB/periph/src/stm32f4xx_cryp.c ****   {
 522:STM32F4xx_LIB/periph/src/stm32f4xx_cryp.c ****     status = ERROR;
 634              		.loc 1 522 12 view .LVU177
 635 0040 0020     		movs	r0, #0
 636              	.LVL19:
 637              	.L37:
 523:STM32F4xx_LIB/periph/src/stm32f4xx_cryp.c ****   }
 524:STM32F4xx_LIB/periph/src/stm32f4xx_cryp.c ****   else
 525:STM32F4xx_LIB/periph/src/stm32f4xx_cryp.c ****   {      
 526:STM32F4xx_LIB/periph/src/stm32f4xx_cryp.c ****     /* Stop DMA transfers on the OUT FIFO by 
 527:STM32F4xx_LIB/periph/src/stm32f4xx_cryp.c ****        - writing the DOEN bit to 0 in the CRYP_DMACR register 
 528:STM32F4xx_LIB/periph/src/stm32f4xx_cryp.c ****        - and clear the CRYPEN bit. */
ARM GAS  C:\Users\京垓\AppData\Local\Temp\ccFNyFDf.s 			page 21


 529:STM32F4xx_LIB/periph/src/stm32f4xx_cryp.c **** 
 530:STM32F4xx_LIB/periph/src/stm32f4xx_cryp.c ****     CRYP->DMACR &= ~(uint32_t)CRYP_DMACR_DOEN;
 531:STM32F4xx_LIB/periph/src/stm32f4xx_cryp.c ****     CRYP->CR &= ~(uint32_t)CRYP_CR_CRYPEN;
 532:STM32F4xx_LIB/periph/src/stm32f4xx_cryp.c **** 
 533:STM32F4xx_LIB/periph/src/stm32f4xx_cryp.c ****     /* Save the current configuration (bit 19, bit[17:16] and bits [9:2] in the CRYP_CR register) *
 534:STM32F4xx_LIB/periph/src/stm32f4xx_cryp.c ****     CRYP_ContextSave->CR_CurrentConfig  = CRYP->CR & (CRYP_CR_GCM_CCMPH |
 535:STM32F4xx_LIB/periph/src/stm32f4xx_cryp.c ****                                                       CRYP_CR_KEYSIZE  |
 536:STM32F4xx_LIB/periph/src/stm32f4xx_cryp.c ****                                                       CRYP_CR_DATATYPE |
 537:STM32F4xx_LIB/periph/src/stm32f4xx_cryp.c ****                                                       CRYP_CR_ALGOMODE |
 538:STM32F4xx_LIB/periph/src/stm32f4xx_cryp.c ****                                                       CRYP_CR_ALGODIR);
 539:STM32F4xx_LIB/periph/src/stm32f4xx_cryp.c **** 
 540:STM32F4xx_LIB/periph/src/stm32f4xx_cryp.c ****     /* and, if not in ECB mode, the initialization vectors. */
 541:STM32F4xx_LIB/periph/src/stm32f4xx_cryp.c ****     CRYP_ContextSave->CRYP_IV0LR = CRYP->IV0LR;
 542:STM32F4xx_LIB/periph/src/stm32f4xx_cryp.c ****     CRYP_ContextSave->CRYP_IV0RR = CRYP->IV0RR;
 543:STM32F4xx_LIB/periph/src/stm32f4xx_cryp.c ****     CRYP_ContextSave->CRYP_IV1LR = CRYP->IV1LR;
 544:STM32F4xx_LIB/periph/src/stm32f4xx_cryp.c ****     CRYP_ContextSave->CRYP_IV1RR = CRYP->IV1RR;
 545:STM32F4xx_LIB/periph/src/stm32f4xx_cryp.c **** 
 546:STM32F4xx_LIB/periph/src/stm32f4xx_cryp.c ****     /* save The key value */
 547:STM32F4xx_LIB/periph/src/stm32f4xx_cryp.c ****     CRYP_ContextSave->CRYP_K0LR = CRYP_KeyInitStruct->CRYP_Key0Left; 
 548:STM32F4xx_LIB/periph/src/stm32f4xx_cryp.c ****     CRYP_ContextSave->CRYP_K0RR = CRYP_KeyInitStruct->CRYP_Key0Right; 
 549:STM32F4xx_LIB/periph/src/stm32f4xx_cryp.c ****     CRYP_ContextSave->CRYP_K1LR = CRYP_KeyInitStruct->CRYP_Key1Left; 
 550:STM32F4xx_LIB/periph/src/stm32f4xx_cryp.c ****     CRYP_ContextSave->CRYP_K1RR = CRYP_KeyInitStruct->CRYP_Key1Right; 
 551:STM32F4xx_LIB/periph/src/stm32f4xx_cryp.c ****     CRYP_ContextSave->CRYP_K2LR = CRYP_KeyInitStruct->CRYP_Key2Left; 
 552:STM32F4xx_LIB/periph/src/stm32f4xx_cryp.c ****     CRYP_ContextSave->CRYP_K2RR = CRYP_KeyInitStruct->CRYP_Key2Right; 
 553:STM32F4xx_LIB/periph/src/stm32f4xx_cryp.c ****     CRYP_ContextSave->CRYP_K3LR = CRYP_KeyInitStruct->CRYP_Key3Left; 
 554:STM32F4xx_LIB/periph/src/stm32f4xx_cryp.c ****     CRYP_ContextSave->CRYP_K3RR = CRYP_KeyInitStruct->CRYP_Key3Right; 
 555:STM32F4xx_LIB/periph/src/stm32f4xx_cryp.c **** 
 556:STM32F4xx_LIB/periph/src/stm32f4xx_cryp.c ****     /* Save the content of context swap registers */
 557:STM32F4xx_LIB/periph/src/stm32f4xx_cryp.c ****     CRYP_ContextSave->CRYP_CSGCMCCMR[0] = CRYP->CSGCMCCM0R;
 558:STM32F4xx_LIB/periph/src/stm32f4xx_cryp.c ****     CRYP_ContextSave->CRYP_CSGCMCCMR[1] = CRYP->CSGCMCCM1R;
 559:STM32F4xx_LIB/periph/src/stm32f4xx_cryp.c ****     CRYP_ContextSave->CRYP_CSGCMCCMR[2] = CRYP->CSGCMCCM2R;
 560:STM32F4xx_LIB/periph/src/stm32f4xx_cryp.c ****     CRYP_ContextSave->CRYP_CSGCMCCMR[3] = CRYP->CSGCMCCM3R;
 561:STM32F4xx_LIB/periph/src/stm32f4xx_cryp.c ****     CRYP_ContextSave->CRYP_CSGCMCCMR[4] = CRYP->CSGCMCCM4R;
 562:STM32F4xx_LIB/periph/src/stm32f4xx_cryp.c ****     CRYP_ContextSave->CRYP_CSGCMCCMR[5] = CRYP->CSGCMCCM5R;
 563:STM32F4xx_LIB/periph/src/stm32f4xx_cryp.c ****     CRYP_ContextSave->CRYP_CSGCMCCMR[6] = CRYP->CSGCMCCM6R;
 564:STM32F4xx_LIB/periph/src/stm32f4xx_cryp.c ****     CRYP_ContextSave->CRYP_CSGCMCCMR[7] = CRYP->CSGCMCCM7R;
 565:STM32F4xx_LIB/periph/src/stm32f4xx_cryp.c ****     
 566:STM32F4xx_LIB/periph/src/stm32f4xx_cryp.c ****     CRYP_ContextSave->CRYP_CSGCMR[0] = CRYP->CSGCM0R;
 567:STM32F4xx_LIB/periph/src/stm32f4xx_cryp.c ****     CRYP_ContextSave->CRYP_CSGCMR[1] = CRYP->CSGCM1R;
 568:STM32F4xx_LIB/periph/src/stm32f4xx_cryp.c ****     CRYP_ContextSave->CRYP_CSGCMR[2] = CRYP->CSGCM2R;
 569:STM32F4xx_LIB/periph/src/stm32f4xx_cryp.c ****     CRYP_ContextSave->CRYP_CSGCMR[3] = CRYP->CSGCM3R;
 570:STM32F4xx_LIB/periph/src/stm32f4xx_cryp.c ****     CRYP_ContextSave->CRYP_CSGCMR[4] = CRYP->CSGCM4R;
 571:STM32F4xx_LIB/periph/src/stm32f4xx_cryp.c ****     CRYP_ContextSave->CRYP_CSGCMR[5] = CRYP->CSGCM5R;
 572:STM32F4xx_LIB/periph/src/stm32f4xx_cryp.c ****     CRYP_ContextSave->CRYP_CSGCMR[6] = CRYP->CSGCM6R;
 573:STM32F4xx_LIB/periph/src/stm32f4xx_cryp.c ****     CRYP_ContextSave->CRYP_CSGCMR[7] = CRYP->CSGCM7R;
 574:STM32F4xx_LIB/periph/src/stm32f4xx_cryp.c ****     
 575:STM32F4xx_LIB/periph/src/stm32f4xx_cryp.c ****    /* When needed, save the DMA status (pointers for IN and OUT messages, 
 576:STM32F4xx_LIB/periph/src/stm32f4xx_cryp.c ****       number of remaining bytes, etc.) */
 577:STM32F4xx_LIB/periph/src/stm32f4xx_cryp.c ****      
 578:STM32F4xx_LIB/periph/src/stm32f4xx_cryp.c ****     status = SUCCESS;
 579:STM32F4xx_LIB/periph/src/stm32f4xx_cryp.c ****   }
 580:STM32F4xx_LIB/periph/src/stm32f4xx_cryp.c **** 
 581:STM32F4xx_LIB/periph/src/stm32f4xx_cryp.c ****    return status;
 638              		.loc 1 581 4 is_stmt 1 view .LVU178
 582:STM32F4xx_LIB/periph/src/stm32f4xx_cryp.c **** }
 639              		.loc 1 582 1 is_stmt 0 view .LVU179
 640 0042 02B0     		add	sp, sp, #8
ARM GAS  C:\Users\京垓\AppData\Local\Temp\ccFNyFDf.s 			page 22


 641              	.LCFI3:
 642              		.cfi_remember_state
 643              		.cfi_def_cfa_offset 8
 644              		@ sp needed
 645 0044 30BC     		pop	{r4, r5}
 646              	.LCFI4:
 647              		.cfi_restore 5
 648              		.cfi_restore 4
 649              		.cfi_def_cfa_offset 0
 650 0046 7047     		bx	lr
 651              	.LVL20:
 652              	.L38:
 653              	.LCFI5:
 654              		.cfi_restore_state
 510:STM32F4xx_LIB/periph/src/stm32f4xx_cryp.c ****   }           
 655              		.loc 1 510 15 view .LVU180
 656 0048 1525     		movs	r5, #21
 657              	.LVL21:
 510:STM32F4xx_LIB/periph/src/stm32f4xx_cryp.c ****   }           
 658              		.loc 1 510 15 view .LVU181
 659 004a E7E7     		b	.L36
 660              	.LVL22:
 661              	.L41:
 530:STM32F4xx_LIB/periph/src/stm32f4xx_cryp.c ****     CRYP->CR &= ~(uint32_t)CRYP_CR_CRYPEN;
 662              		.loc 1 530 5 is_stmt 1 view .LVU182
 530:STM32F4xx_LIB/periph/src/stm32f4xx_cryp.c ****     CRYP->CR &= ~(uint32_t)CRYP_CR_CRYPEN;
 663              		.loc 1 530 17 is_stmt 0 view .LVU183
 664 004c 284B     		ldr	r3, .L42
 665 004e 1A69     		ldr	r2, [r3, #16]
 666              	.LVL23:
 530:STM32F4xx_LIB/periph/src/stm32f4xx_cryp.c ****     CRYP->CR &= ~(uint32_t)CRYP_CR_CRYPEN;
 667              		.loc 1 530 17 view .LVU184
 668 0050 22F00202 		bic	r2, r2, #2
 669 0054 1A61     		str	r2, [r3, #16]
 531:STM32F4xx_LIB/periph/src/stm32f4xx_cryp.c **** 
 670              		.loc 1 531 5 is_stmt 1 view .LVU185
 531:STM32F4xx_LIB/periph/src/stm32f4xx_cryp.c **** 
 671              		.loc 1 531 14 is_stmt 0 view .LVU186
 672 0056 1A68     		ldr	r2, [r3]
 673 0058 22F40042 		bic	r2, r2, #32768
 674 005c 1A60     		str	r2, [r3]
 534:STM32F4xx_LIB/periph/src/stm32f4xx_cryp.c ****                                                       CRYP_CR_KEYSIZE  |
 675              		.loc 1 534 5 is_stmt 1 view .LVU187
 534:STM32F4xx_LIB/periph/src/stm32f4xx_cryp.c ****                                                       CRYP_CR_KEYSIZE  |
 676              		.loc 1 534 47 is_stmt 0 view .LVU188
 677 005e 1A68     		ldr	r2, [r3]
 534:STM32F4xx_LIB/periph/src/stm32f4xx_cryp.c ****                                                       CRYP_CR_KEYSIZE  |
 678              		.loc 1 534 52 view .LVU189
 679 0060 22F07F42 		bic	r2, r2, #-16777216
 680 0064 22F47402 		bic	r2, r2, #15990784
 681 0068 22F47C42 		bic	r2, r2, #64512
 682 006c 22F00302 		bic	r2, r2, #3
 534:STM32F4xx_LIB/periph/src/stm32f4xx_cryp.c ****                                                       CRYP_CR_KEYSIZE  |
 683              		.loc 1 534 41 view .LVU190
 684 0070 0260     		str	r2, [r0]
 541:STM32F4xx_LIB/periph/src/stm32f4xx_cryp.c ****     CRYP_ContextSave->CRYP_IV0RR = CRYP->IV0RR;
 685              		.loc 1 541 5 is_stmt 1 view .LVU191
ARM GAS  C:\Users\京垓\AppData\Local\Temp\ccFNyFDf.s 			page 23


 541:STM32F4xx_LIB/periph/src/stm32f4xx_cryp.c ****     CRYP_ContextSave->CRYP_IV0RR = CRYP->IV0RR;
 686              		.loc 1 541 40 is_stmt 0 view .LVU192
 687 0072 1A6C     		ldr	r2, [r3, #64]
 541:STM32F4xx_LIB/periph/src/stm32f4xx_cryp.c ****     CRYP_ContextSave->CRYP_IV0RR = CRYP->IV0RR;
 688              		.loc 1 541 34 view .LVU193
 689 0074 4260     		str	r2, [r0, #4]
 542:STM32F4xx_LIB/periph/src/stm32f4xx_cryp.c ****     CRYP_ContextSave->CRYP_IV1LR = CRYP->IV1LR;
 690              		.loc 1 542 5 is_stmt 1 view .LVU194
 542:STM32F4xx_LIB/periph/src/stm32f4xx_cryp.c ****     CRYP_ContextSave->CRYP_IV1LR = CRYP->IV1LR;
 691              		.loc 1 542 40 is_stmt 0 view .LVU195
 692 0076 5A6C     		ldr	r2, [r3, #68]
 542:STM32F4xx_LIB/periph/src/stm32f4xx_cryp.c ****     CRYP_ContextSave->CRYP_IV1LR = CRYP->IV1LR;
 693              		.loc 1 542 34 view .LVU196
 694 0078 8260     		str	r2, [r0, #8]
 543:STM32F4xx_LIB/periph/src/stm32f4xx_cryp.c ****     CRYP_ContextSave->CRYP_IV1RR = CRYP->IV1RR;
 695              		.loc 1 543 5 is_stmt 1 view .LVU197
 543:STM32F4xx_LIB/periph/src/stm32f4xx_cryp.c ****     CRYP_ContextSave->CRYP_IV1RR = CRYP->IV1RR;
 696              		.loc 1 543 40 is_stmt 0 view .LVU198
 697 007a 9A6C     		ldr	r2, [r3, #72]
 543:STM32F4xx_LIB/periph/src/stm32f4xx_cryp.c ****     CRYP_ContextSave->CRYP_IV1RR = CRYP->IV1RR;
 698              		.loc 1 543 34 view .LVU199
 699 007c C260     		str	r2, [r0, #12]
 544:STM32F4xx_LIB/periph/src/stm32f4xx_cryp.c **** 
 700              		.loc 1 544 5 is_stmt 1 view .LVU200
 544:STM32F4xx_LIB/periph/src/stm32f4xx_cryp.c **** 
 701              		.loc 1 544 40 is_stmt 0 view .LVU201
 702 007e DA6C     		ldr	r2, [r3, #76]
 544:STM32F4xx_LIB/periph/src/stm32f4xx_cryp.c **** 
 703              		.loc 1 544 34 view .LVU202
 704 0080 0261     		str	r2, [r0, #16]
 547:STM32F4xx_LIB/periph/src/stm32f4xx_cryp.c ****     CRYP_ContextSave->CRYP_K0RR = CRYP_KeyInitStruct->CRYP_Key0Right; 
 705              		.loc 1 547 5 is_stmt 1 view .LVU203
 547:STM32F4xx_LIB/periph/src/stm32f4xx_cryp.c ****     CRYP_ContextSave->CRYP_K0RR = CRYP_KeyInitStruct->CRYP_Key0Right; 
 706              		.loc 1 547 53 is_stmt 0 view .LVU204
 707 0082 0A68     		ldr	r2, [r1]
 547:STM32F4xx_LIB/periph/src/stm32f4xx_cryp.c ****     CRYP_ContextSave->CRYP_K0RR = CRYP_KeyInitStruct->CRYP_Key0Right; 
 708              		.loc 1 547 33 view .LVU205
 709 0084 4261     		str	r2, [r0, #20]
 548:STM32F4xx_LIB/periph/src/stm32f4xx_cryp.c ****     CRYP_ContextSave->CRYP_K1LR = CRYP_KeyInitStruct->CRYP_Key1Left; 
 710              		.loc 1 548 5 is_stmt 1 view .LVU206
 548:STM32F4xx_LIB/periph/src/stm32f4xx_cryp.c ****     CRYP_ContextSave->CRYP_K1LR = CRYP_KeyInitStruct->CRYP_Key1Left; 
 711              		.loc 1 548 53 is_stmt 0 view .LVU207
 712 0086 4A68     		ldr	r2, [r1, #4]
 548:STM32F4xx_LIB/periph/src/stm32f4xx_cryp.c ****     CRYP_ContextSave->CRYP_K1LR = CRYP_KeyInitStruct->CRYP_Key1Left; 
 713              		.loc 1 548 33 view .LVU208
 714 0088 8261     		str	r2, [r0, #24]
 549:STM32F4xx_LIB/periph/src/stm32f4xx_cryp.c ****     CRYP_ContextSave->CRYP_K1RR = CRYP_KeyInitStruct->CRYP_Key1Right; 
 715              		.loc 1 549 5 is_stmt 1 view .LVU209
 549:STM32F4xx_LIB/periph/src/stm32f4xx_cryp.c ****     CRYP_ContextSave->CRYP_K1RR = CRYP_KeyInitStruct->CRYP_Key1Right; 
 716              		.loc 1 549 53 is_stmt 0 view .LVU210
 717 008a 8A68     		ldr	r2, [r1, #8]
 549:STM32F4xx_LIB/periph/src/stm32f4xx_cryp.c ****     CRYP_ContextSave->CRYP_K1RR = CRYP_KeyInitStruct->CRYP_Key1Right; 
 718              		.loc 1 549 33 view .LVU211
 719 008c C261     		str	r2, [r0, #28]
 550:STM32F4xx_LIB/periph/src/stm32f4xx_cryp.c ****     CRYP_ContextSave->CRYP_K2LR = CRYP_KeyInitStruct->CRYP_Key2Left; 
 720              		.loc 1 550 5 is_stmt 1 view .LVU212
 550:STM32F4xx_LIB/periph/src/stm32f4xx_cryp.c ****     CRYP_ContextSave->CRYP_K2LR = CRYP_KeyInitStruct->CRYP_Key2Left; 
ARM GAS  C:\Users\京垓\AppData\Local\Temp\ccFNyFDf.s 			page 24


 721              		.loc 1 550 53 is_stmt 0 view .LVU213
 722 008e CA68     		ldr	r2, [r1, #12]
 550:STM32F4xx_LIB/periph/src/stm32f4xx_cryp.c ****     CRYP_ContextSave->CRYP_K2LR = CRYP_KeyInitStruct->CRYP_Key2Left; 
 723              		.loc 1 550 33 view .LVU214
 724 0090 0262     		str	r2, [r0, #32]
 551:STM32F4xx_LIB/periph/src/stm32f4xx_cryp.c ****     CRYP_ContextSave->CRYP_K2RR = CRYP_KeyInitStruct->CRYP_Key2Right; 
 725              		.loc 1 551 5 is_stmt 1 view .LVU215
 551:STM32F4xx_LIB/periph/src/stm32f4xx_cryp.c ****     CRYP_ContextSave->CRYP_K2RR = CRYP_KeyInitStruct->CRYP_Key2Right; 
 726              		.loc 1 551 53 is_stmt 0 view .LVU216
 727 0092 0A69     		ldr	r2, [r1, #16]
 551:STM32F4xx_LIB/periph/src/stm32f4xx_cryp.c ****     CRYP_ContextSave->CRYP_K2RR = CRYP_KeyInitStruct->CRYP_Key2Right; 
 728              		.loc 1 551 33 view .LVU217
 729 0094 4262     		str	r2, [r0, #36]
 552:STM32F4xx_LIB/periph/src/stm32f4xx_cryp.c ****     CRYP_ContextSave->CRYP_K3LR = CRYP_KeyInitStruct->CRYP_Key3Left; 
 730              		.loc 1 552 5 is_stmt 1 view .LVU218
 552:STM32F4xx_LIB/periph/src/stm32f4xx_cryp.c ****     CRYP_ContextSave->CRYP_K3LR = CRYP_KeyInitStruct->CRYP_Key3Left; 
 731              		.loc 1 552 53 is_stmt 0 view .LVU219
 732 0096 4A69     		ldr	r2, [r1, #20]
 552:STM32F4xx_LIB/periph/src/stm32f4xx_cryp.c ****     CRYP_ContextSave->CRYP_K3LR = CRYP_KeyInitStruct->CRYP_Key3Left; 
 733              		.loc 1 552 33 view .LVU220
 734 0098 8262     		str	r2, [r0, #40]
 553:STM32F4xx_LIB/periph/src/stm32f4xx_cryp.c ****     CRYP_ContextSave->CRYP_K3RR = CRYP_KeyInitStruct->CRYP_Key3Right; 
 735              		.loc 1 553 5 is_stmt 1 view .LVU221
 553:STM32F4xx_LIB/periph/src/stm32f4xx_cryp.c ****     CRYP_ContextSave->CRYP_K3RR = CRYP_KeyInitStruct->CRYP_Key3Right; 
 736              		.loc 1 553 53 is_stmt 0 view .LVU222
 737 009a 8A69     		ldr	r2, [r1, #24]
 553:STM32F4xx_LIB/periph/src/stm32f4xx_cryp.c ****     CRYP_ContextSave->CRYP_K3RR = CRYP_KeyInitStruct->CRYP_Key3Right; 
 738              		.loc 1 553 33 view .LVU223
 739 009c C262     		str	r2, [r0, #44]
 554:STM32F4xx_LIB/periph/src/stm32f4xx_cryp.c **** 
 740              		.loc 1 554 5 is_stmt 1 view .LVU224
 554:STM32F4xx_LIB/periph/src/stm32f4xx_cryp.c **** 
 741              		.loc 1 554 53 is_stmt 0 view .LVU225
 742 009e CA69     		ldr	r2, [r1, #28]
 554:STM32F4xx_LIB/periph/src/stm32f4xx_cryp.c **** 
 743              		.loc 1 554 33 view .LVU226
 744 00a0 0263     		str	r2, [r0, #48]
 557:STM32F4xx_LIB/periph/src/stm32f4xx_cryp.c ****     CRYP_ContextSave->CRYP_CSGCMCCMR[1] = CRYP->CSGCMCCM1R;
 745              		.loc 1 557 5 is_stmt 1 view .LVU227
 557:STM32F4xx_LIB/periph/src/stm32f4xx_cryp.c ****     CRYP_ContextSave->CRYP_CSGCMCCMR[1] = CRYP->CSGCMCCM1R;
 746              		.loc 1 557 47 is_stmt 0 view .LVU228
 747 00a2 1A6D     		ldr	r2, [r3, #80]
 557:STM32F4xx_LIB/periph/src/stm32f4xx_cryp.c ****     CRYP_ContextSave->CRYP_CSGCMCCMR[1] = CRYP->CSGCMCCM1R;
 748              		.loc 1 557 41 view .LVU229
 749 00a4 4263     		str	r2, [r0, #52]
 558:STM32F4xx_LIB/periph/src/stm32f4xx_cryp.c ****     CRYP_ContextSave->CRYP_CSGCMCCMR[2] = CRYP->CSGCMCCM2R;
 750              		.loc 1 558 5 is_stmt 1 view .LVU230
 558:STM32F4xx_LIB/periph/src/stm32f4xx_cryp.c ****     CRYP_ContextSave->CRYP_CSGCMCCMR[2] = CRYP->CSGCMCCM2R;
 751              		.loc 1 558 47 is_stmt 0 view .LVU231
 752 00a6 5A6D     		ldr	r2, [r3, #84]
 558:STM32F4xx_LIB/periph/src/stm32f4xx_cryp.c ****     CRYP_ContextSave->CRYP_CSGCMCCMR[2] = CRYP->CSGCMCCM2R;
 753              		.loc 1 558 41 view .LVU232
 754 00a8 8263     		str	r2, [r0, #56]
 559:STM32F4xx_LIB/periph/src/stm32f4xx_cryp.c ****     CRYP_ContextSave->CRYP_CSGCMCCMR[3] = CRYP->CSGCMCCM3R;
 755              		.loc 1 559 5 is_stmt 1 view .LVU233
 559:STM32F4xx_LIB/periph/src/stm32f4xx_cryp.c ****     CRYP_ContextSave->CRYP_CSGCMCCMR[3] = CRYP->CSGCMCCM3R;
 756              		.loc 1 559 47 is_stmt 0 view .LVU234
ARM GAS  C:\Users\京垓\AppData\Local\Temp\ccFNyFDf.s 			page 25


 757 00aa 9A6D     		ldr	r2, [r3, #88]
 559:STM32F4xx_LIB/periph/src/stm32f4xx_cryp.c ****     CRYP_ContextSave->CRYP_CSGCMCCMR[3] = CRYP->CSGCMCCM3R;
 758              		.loc 1 559 41 view .LVU235
 759 00ac C263     		str	r2, [r0, #60]
 560:STM32F4xx_LIB/periph/src/stm32f4xx_cryp.c ****     CRYP_ContextSave->CRYP_CSGCMCCMR[4] = CRYP->CSGCMCCM4R;
 760              		.loc 1 560 5 is_stmt 1 view .LVU236
 560:STM32F4xx_LIB/periph/src/stm32f4xx_cryp.c ****     CRYP_ContextSave->CRYP_CSGCMCCMR[4] = CRYP->CSGCMCCM4R;
 761              		.loc 1 560 47 is_stmt 0 view .LVU237
 762 00ae DA6D     		ldr	r2, [r3, #92]
 560:STM32F4xx_LIB/periph/src/stm32f4xx_cryp.c ****     CRYP_ContextSave->CRYP_CSGCMCCMR[4] = CRYP->CSGCMCCM4R;
 763              		.loc 1 560 41 view .LVU238
 764 00b0 0264     		str	r2, [r0, #64]
 561:STM32F4xx_LIB/periph/src/stm32f4xx_cryp.c ****     CRYP_ContextSave->CRYP_CSGCMCCMR[5] = CRYP->CSGCMCCM5R;
 765              		.loc 1 561 5 is_stmt 1 view .LVU239
 561:STM32F4xx_LIB/periph/src/stm32f4xx_cryp.c ****     CRYP_ContextSave->CRYP_CSGCMCCMR[5] = CRYP->CSGCMCCM5R;
 766              		.loc 1 561 47 is_stmt 0 view .LVU240
 767 00b2 1A6E     		ldr	r2, [r3, #96]
 561:STM32F4xx_LIB/periph/src/stm32f4xx_cryp.c ****     CRYP_ContextSave->CRYP_CSGCMCCMR[5] = CRYP->CSGCMCCM5R;
 768              		.loc 1 561 41 view .LVU241
 769 00b4 4264     		str	r2, [r0, #68]
 562:STM32F4xx_LIB/periph/src/stm32f4xx_cryp.c ****     CRYP_ContextSave->CRYP_CSGCMCCMR[6] = CRYP->CSGCMCCM6R;
 770              		.loc 1 562 5 is_stmt 1 view .LVU242
 562:STM32F4xx_LIB/periph/src/stm32f4xx_cryp.c ****     CRYP_ContextSave->CRYP_CSGCMCCMR[6] = CRYP->CSGCMCCM6R;
 771              		.loc 1 562 47 is_stmt 0 view .LVU243
 772 00b6 5A6E     		ldr	r2, [r3, #100]
 562:STM32F4xx_LIB/periph/src/stm32f4xx_cryp.c ****     CRYP_ContextSave->CRYP_CSGCMCCMR[6] = CRYP->CSGCMCCM6R;
 773              		.loc 1 562 41 view .LVU244
 774 00b8 8264     		str	r2, [r0, #72]
 563:STM32F4xx_LIB/periph/src/stm32f4xx_cryp.c ****     CRYP_ContextSave->CRYP_CSGCMCCMR[7] = CRYP->CSGCMCCM7R;
 775              		.loc 1 563 5 is_stmt 1 view .LVU245
 563:STM32F4xx_LIB/periph/src/stm32f4xx_cryp.c ****     CRYP_ContextSave->CRYP_CSGCMCCMR[7] = CRYP->CSGCMCCM7R;
 776              		.loc 1 563 47 is_stmt 0 view .LVU246
 777 00ba 9A6E     		ldr	r2, [r3, #104]
 563:STM32F4xx_LIB/periph/src/stm32f4xx_cryp.c ****     CRYP_ContextSave->CRYP_CSGCMCCMR[7] = CRYP->CSGCMCCM7R;
 778              		.loc 1 563 41 view .LVU247
 779 00bc C264     		str	r2, [r0, #76]
 564:STM32F4xx_LIB/periph/src/stm32f4xx_cryp.c ****     
 780              		.loc 1 564 5 is_stmt 1 view .LVU248
 564:STM32F4xx_LIB/periph/src/stm32f4xx_cryp.c ****     
 781              		.loc 1 564 47 is_stmt 0 view .LVU249
 782 00be DA6E     		ldr	r2, [r3, #108]
 564:STM32F4xx_LIB/periph/src/stm32f4xx_cryp.c ****     
 783              		.loc 1 564 41 view .LVU250
 784 00c0 0265     		str	r2, [r0, #80]
 566:STM32F4xx_LIB/periph/src/stm32f4xx_cryp.c ****     CRYP_ContextSave->CRYP_CSGCMR[1] = CRYP->CSGCM1R;
 785              		.loc 1 566 5 is_stmt 1 view .LVU251
 566:STM32F4xx_LIB/periph/src/stm32f4xx_cryp.c ****     CRYP_ContextSave->CRYP_CSGCMR[1] = CRYP->CSGCM1R;
 786              		.loc 1 566 44 is_stmt 0 view .LVU252
 787 00c2 1A6F     		ldr	r2, [r3, #112]
 566:STM32F4xx_LIB/periph/src/stm32f4xx_cryp.c ****     CRYP_ContextSave->CRYP_CSGCMR[1] = CRYP->CSGCM1R;
 788              		.loc 1 566 38 view .LVU253
 789 00c4 4265     		str	r2, [r0, #84]
 567:STM32F4xx_LIB/periph/src/stm32f4xx_cryp.c ****     CRYP_ContextSave->CRYP_CSGCMR[2] = CRYP->CSGCM2R;
 790              		.loc 1 567 5 is_stmt 1 view .LVU254
 567:STM32F4xx_LIB/periph/src/stm32f4xx_cryp.c ****     CRYP_ContextSave->CRYP_CSGCMR[2] = CRYP->CSGCM2R;
 791              		.loc 1 567 44 is_stmt 0 view .LVU255
 792 00c6 5A6F     		ldr	r2, [r3, #116]
ARM GAS  C:\Users\京垓\AppData\Local\Temp\ccFNyFDf.s 			page 26


 567:STM32F4xx_LIB/periph/src/stm32f4xx_cryp.c ****     CRYP_ContextSave->CRYP_CSGCMR[2] = CRYP->CSGCM2R;
 793              		.loc 1 567 38 view .LVU256
 794 00c8 8265     		str	r2, [r0, #88]
 568:STM32F4xx_LIB/periph/src/stm32f4xx_cryp.c ****     CRYP_ContextSave->CRYP_CSGCMR[3] = CRYP->CSGCM3R;
 795              		.loc 1 568 5 is_stmt 1 view .LVU257
 568:STM32F4xx_LIB/periph/src/stm32f4xx_cryp.c ****     CRYP_ContextSave->CRYP_CSGCMR[3] = CRYP->CSGCM3R;
 796              		.loc 1 568 44 is_stmt 0 view .LVU258
 797 00ca 9A6F     		ldr	r2, [r3, #120]
 568:STM32F4xx_LIB/periph/src/stm32f4xx_cryp.c ****     CRYP_ContextSave->CRYP_CSGCMR[3] = CRYP->CSGCM3R;
 798              		.loc 1 568 38 view .LVU259
 799 00cc C265     		str	r2, [r0, #92]
 569:STM32F4xx_LIB/periph/src/stm32f4xx_cryp.c ****     CRYP_ContextSave->CRYP_CSGCMR[4] = CRYP->CSGCM4R;
 800              		.loc 1 569 5 is_stmt 1 view .LVU260
 569:STM32F4xx_LIB/periph/src/stm32f4xx_cryp.c ****     CRYP_ContextSave->CRYP_CSGCMR[4] = CRYP->CSGCM4R;
 801              		.loc 1 569 44 is_stmt 0 view .LVU261
 802 00ce DA6F     		ldr	r2, [r3, #124]
 569:STM32F4xx_LIB/periph/src/stm32f4xx_cryp.c ****     CRYP_ContextSave->CRYP_CSGCMR[4] = CRYP->CSGCM4R;
 803              		.loc 1 569 38 view .LVU262
 804 00d0 0266     		str	r2, [r0, #96]
 570:STM32F4xx_LIB/periph/src/stm32f4xx_cryp.c ****     CRYP_ContextSave->CRYP_CSGCMR[5] = CRYP->CSGCM5R;
 805              		.loc 1 570 5 is_stmt 1 view .LVU263
 570:STM32F4xx_LIB/periph/src/stm32f4xx_cryp.c ****     CRYP_ContextSave->CRYP_CSGCMR[5] = CRYP->CSGCM5R;
 806              		.loc 1 570 44 is_stmt 0 view .LVU264
 807 00d2 D3F88020 		ldr	r2, [r3, #128]
 570:STM32F4xx_LIB/periph/src/stm32f4xx_cryp.c ****     CRYP_ContextSave->CRYP_CSGCMR[5] = CRYP->CSGCM5R;
 808              		.loc 1 570 38 view .LVU265
 809 00d6 4266     		str	r2, [r0, #100]
 571:STM32F4xx_LIB/periph/src/stm32f4xx_cryp.c ****     CRYP_ContextSave->CRYP_CSGCMR[6] = CRYP->CSGCM6R;
 810              		.loc 1 571 5 is_stmt 1 view .LVU266
 571:STM32F4xx_LIB/periph/src/stm32f4xx_cryp.c ****     CRYP_ContextSave->CRYP_CSGCMR[6] = CRYP->CSGCM6R;
 811              		.loc 1 571 44 is_stmt 0 view .LVU267
 812 00d8 D3F88420 		ldr	r2, [r3, #132]
 571:STM32F4xx_LIB/periph/src/stm32f4xx_cryp.c ****     CRYP_ContextSave->CRYP_CSGCMR[6] = CRYP->CSGCM6R;
 813              		.loc 1 571 38 view .LVU268
 814 00dc 8266     		str	r2, [r0, #104]
 572:STM32F4xx_LIB/periph/src/stm32f4xx_cryp.c ****     CRYP_ContextSave->CRYP_CSGCMR[7] = CRYP->CSGCM7R;
 815              		.loc 1 572 5 is_stmt 1 view .LVU269
 572:STM32F4xx_LIB/periph/src/stm32f4xx_cryp.c ****     CRYP_ContextSave->CRYP_CSGCMR[7] = CRYP->CSGCM7R;
 816              		.loc 1 572 44 is_stmt 0 view .LVU270
 817 00de D3F88820 		ldr	r2, [r3, #136]
 572:STM32F4xx_LIB/periph/src/stm32f4xx_cryp.c ****     CRYP_ContextSave->CRYP_CSGCMR[7] = CRYP->CSGCM7R;
 818              		.loc 1 572 38 view .LVU271
 819 00e2 C266     		str	r2, [r0, #108]
 573:STM32F4xx_LIB/periph/src/stm32f4xx_cryp.c ****     
 820              		.loc 1 573 5 is_stmt 1 view .LVU272
 573:STM32F4xx_LIB/periph/src/stm32f4xx_cryp.c ****     
 821              		.loc 1 573 44 is_stmt 0 view .LVU273
 822 00e4 D3F88C30 		ldr	r3, [r3, #140]
 573:STM32F4xx_LIB/periph/src/stm32f4xx_cryp.c ****     
 823              		.loc 1 573 38 view .LVU274
 824 00e8 0367     		str	r3, [r0, #112]
 578:STM32F4xx_LIB/periph/src/stm32f4xx_cryp.c ****   }
 825              		.loc 1 578 5 is_stmt 1 view .LVU275
 826              	.LVL24:
 578:STM32F4xx_LIB/periph/src/stm32f4xx_cryp.c ****   }
 827              		.loc 1 578 12 is_stmt 0 view .LVU276
 828 00ea 0120     		movs	r0, #1
ARM GAS  C:\Users\京垓\AppData\Local\Temp\ccFNyFDf.s 			page 27


 829              	.LVL25:
 578:STM32F4xx_LIB/periph/src/stm32f4xx_cryp.c ****   }
 830              		.loc 1 578 12 view .LVU277
 831 00ec A9E7     		b	.L37
 832              	.L43:
 833 00ee 00BF     		.align	2
 834              	.L42:
 835 00f0 00000650 		.word	1342570496
 836              		.cfi_endproc
 837              	.LFE135:
 839              		.section	.text.CRYP_RestoreContext,"ax",%progbits
 840              		.align	1
 841              		.global	CRYP_RestoreContext
 842              		.syntax unified
 843              		.thumb
 844              		.thumb_func
 845              		.fpu fpv4-sp-d16
 847              	CRYP_RestoreContext:
 848              	.LVL26:
 849              	.LFB136:
 583:STM32F4xx_LIB/periph/src/stm32f4xx_cryp.c **** 
 584:STM32F4xx_LIB/periph/src/stm32f4xx_cryp.c **** /**
 585:STM32F4xx_LIB/periph/src/stm32f4xx_cryp.c ****   * @brief  Restores the CRYP peripheral Context.
 586:STM32F4xx_LIB/periph/src/stm32f4xx_cryp.c ****   * @note   Since the DMA transfer is stopped in CRYP_SaveContext() function,
 587:STM32F4xx_LIB/periph/src/stm32f4xx_cryp.c ****   *         after restoring the context, you have to enable the DMA again (if the
 588:STM32F4xx_LIB/periph/src/stm32f4xx_cryp.c ****   *         DMA was previously used).  
 589:STM32F4xx_LIB/periph/src/stm32f4xx_cryp.c ****   * @param  CRYP_ContextRestore: pointer to a CRYP_Context structure that contains
 590:STM32F4xx_LIB/periph/src/stm32f4xx_cryp.c ****   *         the repository for saved context.
 591:STM32F4xx_LIB/periph/src/stm32f4xx_cryp.c ****   * @note   The data that were saved during context saving must be rewritten into
 592:STM32F4xx_LIB/periph/src/stm32f4xx_cryp.c ****   *         the IN FIFO.
 593:STM32F4xx_LIB/periph/src/stm32f4xx_cryp.c ****   * @retval None
 594:STM32F4xx_LIB/periph/src/stm32f4xx_cryp.c ****   */
 595:STM32F4xx_LIB/periph/src/stm32f4xx_cryp.c **** void CRYP_RestoreContext(CRYP_Context* CRYP_ContextRestore)  
 596:STM32F4xx_LIB/periph/src/stm32f4xx_cryp.c **** {
 850              		.loc 1 596 1 is_stmt 1 view -0
 851              		.cfi_startproc
 852              		@ args = 0, pretend = 0, frame = 0
 853              		@ frame_needed = 0, uses_anonymous_args = 0
 854              		@ link register save eliminated.
 597:STM32F4xx_LIB/periph/src/stm32f4xx_cryp.c **** 
 598:STM32F4xx_LIB/periph/src/stm32f4xx_cryp.c ****   /* Configure the processor with the saved configuration */
 599:STM32F4xx_LIB/periph/src/stm32f4xx_cryp.c ****   CRYP->CR = CRYP_ContextRestore->CR_CurrentConfig;
 855              		.loc 1 599 3 view .LVU279
 856              		.loc 1 599 33 is_stmt 0 view .LVU280
 857 0000 0268     		ldr	r2, [r0]
 858              		.loc 1 599 12 view .LVU281
 859 0002 214B     		ldr	r3, .L45
 860 0004 1A60     		str	r2, [r3]
 600:STM32F4xx_LIB/periph/src/stm32f4xx_cryp.c **** 
 601:STM32F4xx_LIB/periph/src/stm32f4xx_cryp.c ****   /* restore The key value */
 602:STM32F4xx_LIB/periph/src/stm32f4xx_cryp.c ****   CRYP->K0LR = CRYP_ContextRestore->CRYP_K0LR; 
 861              		.loc 1 602 3 is_stmt 1 view .LVU282
 862              		.loc 1 602 35 is_stmt 0 view .LVU283
 863 0006 4269     		ldr	r2, [r0, #20]
 864              		.loc 1 602 14 view .LVU284
 865 0008 1A62     		str	r2, [r3, #32]
 603:STM32F4xx_LIB/periph/src/stm32f4xx_cryp.c ****   CRYP->K0RR = CRYP_ContextRestore->CRYP_K0RR;
ARM GAS  C:\Users\京垓\AppData\Local\Temp\ccFNyFDf.s 			page 28


 866              		.loc 1 603 3 is_stmt 1 view .LVU285
 867              		.loc 1 603 35 is_stmt 0 view .LVU286
 868 000a 8269     		ldr	r2, [r0, #24]
 869              		.loc 1 603 14 view .LVU287
 870 000c 5A62     		str	r2, [r3, #36]
 604:STM32F4xx_LIB/periph/src/stm32f4xx_cryp.c ****   CRYP->K1LR = CRYP_ContextRestore->CRYP_K1LR;
 871              		.loc 1 604 3 is_stmt 1 view .LVU288
 872              		.loc 1 604 35 is_stmt 0 view .LVU289
 873 000e C269     		ldr	r2, [r0, #28]
 874              		.loc 1 604 14 view .LVU290
 875 0010 9A62     		str	r2, [r3, #40]
 605:STM32F4xx_LIB/periph/src/stm32f4xx_cryp.c ****   CRYP->K1RR = CRYP_ContextRestore->CRYP_K1RR;
 876              		.loc 1 605 3 is_stmt 1 view .LVU291
 877              		.loc 1 605 35 is_stmt 0 view .LVU292
 878 0012 026A     		ldr	r2, [r0, #32]
 879              		.loc 1 605 14 view .LVU293
 880 0014 DA62     		str	r2, [r3, #44]
 606:STM32F4xx_LIB/periph/src/stm32f4xx_cryp.c ****   CRYP->K2LR = CRYP_ContextRestore->CRYP_K2LR;
 881              		.loc 1 606 3 is_stmt 1 view .LVU294
 882              		.loc 1 606 35 is_stmt 0 view .LVU295
 883 0016 426A     		ldr	r2, [r0, #36]
 884              		.loc 1 606 14 view .LVU296
 885 0018 1A63     		str	r2, [r3, #48]
 607:STM32F4xx_LIB/periph/src/stm32f4xx_cryp.c ****   CRYP->K2RR = CRYP_ContextRestore->CRYP_K2RR;
 886              		.loc 1 607 3 is_stmt 1 view .LVU297
 887              		.loc 1 607 35 is_stmt 0 view .LVU298
 888 001a 826A     		ldr	r2, [r0, #40]
 889              		.loc 1 607 14 view .LVU299
 890 001c 5A63     		str	r2, [r3, #52]
 608:STM32F4xx_LIB/periph/src/stm32f4xx_cryp.c ****   CRYP->K3LR = CRYP_ContextRestore->CRYP_K3LR;
 891              		.loc 1 608 3 is_stmt 1 view .LVU300
 892              		.loc 1 608 35 is_stmt 0 view .LVU301
 893 001e C26A     		ldr	r2, [r0, #44]
 894              		.loc 1 608 14 view .LVU302
 895 0020 9A63     		str	r2, [r3, #56]
 609:STM32F4xx_LIB/periph/src/stm32f4xx_cryp.c ****   CRYP->K3RR = CRYP_ContextRestore->CRYP_K3RR;
 896              		.loc 1 609 3 is_stmt 1 view .LVU303
 897              		.loc 1 609 35 is_stmt 0 view .LVU304
 898 0022 026B     		ldr	r2, [r0, #48]
 899              		.loc 1 609 14 view .LVU305
 900 0024 DA63     		str	r2, [r3, #60]
 610:STM32F4xx_LIB/periph/src/stm32f4xx_cryp.c **** 
 611:STM32F4xx_LIB/periph/src/stm32f4xx_cryp.c ****   /* and the initialization vectors. */
 612:STM32F4xx_LIB/periph/src/stm32f4xx_cryp.c ****   CRYP->IV0LR = CRYP_ContextRestore->CRYP_IV0LR;
 901              		.loc 1 612 3 is_stmt 1 view .LVU306
 902              		.loc 1 612 36 is_stmt 0 view .LVU307
 903 0026 4268     		ldr	r2, [r0, #4]
 904              		.loc 1 612 15 view .LVU308
 905 0028 1A64     		str	r2, [r3, #64]
 613:STM32F4xx_LIB/periph/src/stm32f4xx_cryp.c ****   CRYP->IV0RR = CRYP_ContextRestore->CRYP_IV0RR;
 906              		.loc 1 613 3 is_stmt 1 view .LVU309
 907              		.loc 1 613 36 is_stmt 0 view .LVU310
 908 002a 8268     		ldr	r2, [r0, #8]
 909              		.loc 1 613 15 view .LVU311
 910 002c 5A64     		str	r2, [r3, #68]
 614:STM32F4xx_LIB/periph/src/stm32f4xx_cryp.c ****   CRYP->IV1LR = CRYP_ContextRestore->CRYP_IV1LR;
 911              		.loc 1 614 3 is_stmt 1 view .LVU312
ARM GAS  C:\Users\京垓\AppData\Local\Temp\ccFNyFDf.s 			page 29


 912              		.loc 1 614 36 is_stmt 0 view .LVU313
 913 002e C268     		ldr	r2, [r0, #12]
 914              		.loc 1 614 15 view .LVU314
 915 0030 9A64     		str	r2, [r3, #72]
 615:STM32F4xx_LIB/periph/src/stm32f4xx_cryp.c ****   CRYP->IV1RR = CRYP_ContextRestore->CRYP_IV1RR;
 916              		.loc 1 615 3 is_stmt 1 view .LVU315
 917              		.loc 1 615 36 is_stmt 0 view .LVU316
 918 0032 0269     		ldr	r2, [r0, #16]
 919              		.loc 1 615 15 view .LVU317
 920 0034 DA64     		str	r2, [r3, #76]
 616:STM32F4xx_LIB/periph/src/stm32f4xx_cryp.c **** 
 617:STM32F4xx_LIB/periph/src/stm32f4xx_cryp.c ****   /* Restore the content of context swap registers */
 618:STM32F4xx_LIB/periph/src/stm32f4xx_cryp.c ****   CRYP->CSGCMCCM0R = CRYP_ContextRestore->CRYP_CSGCMCCMR[0];
 921              		.loc 1 618 3 is_stmt 1 view .LVU318
 922              		.loc 1 618 57 is_stmt 0 view .LVU319
 923 0036 426B     		ldr	r2, [r0, #52]
 924              		.loc 1 618 20 view .LVU320
 925 0038 1A65     		str	r2, [r3, #80]
 619:STM32F4xx_LIB/periph/src/stm32f4xx_cryp.c ****   CRYP->CSGCMCCM1R = CRYP_ContextRestore->CRYP_CSGCMCCMR[1];
 926              		.loc 1 619 3 is_stmt 1 view .LVU321
 927              		.loc 1 619 57 is_stmt 0 view .LVU322
 928 003a 826B     		ldr	r2, [r0, #56]
 929              		.loc 1 619 20 view .LVU323
 930 003c 5A65     		str	r2, [r3, #84]
 620:STM32F4xx_LIB/periph/src/stm32f4xx_cryp.c ****   CRYP->CSGCMCCM2R = CRYP_ContextRestore->CRYP_CSGCMCCMR[2];
 931              		.loc 1 620 3 is_stmt 1 view .LVU324
 932              		.loc 1 620 57 is_stmt 0 view .LVU325
 933 003e C26B     		ldr	r2, [r0, #60]
 934              		.loc 1 620 20 view .LVU326
 935 0040 9A65     		str	r2, [r3, #88]
 621:STM32F4xx_LIB/periph/src/stm32f4xx_cryp.c ****   CRYP->CSGCMCCM3R = CRYP_ContextRestore->CRYP_CSGCMCCMR[3];
 936              		.loc 1 621 3 is_stmt 1 view .LVU327
 937              		.loc 1 621 57 is_stmt 0 view .LVU328
 938 0042 026C     		ldr	r2, [r0, #64]
 939              		.loc 1 621 20 view .LVU329
 940 0044 DA65     		str	r2, [r3, #92]
 622:STM32F4xx_LIB/periph/src/stm32f4xx_cryp.c ****   CRYP->CSGCMCCM4R = CRYP_ContextRestore->CRYP_CSGCMCCMR[4];
 941              		.loc 1 622 3 is_stmt 1 view .LVU330
 942              		.loc 1 622 57 is_stmt 0 view .LVU331
 943 0046 426C     		ldr	r2, [r0, #68]
 944              		.loc 1 622 20 view .LVU332
 945 0048 1A66     		str	r2, [r3, #96]
 623:STM32F4xx_LIB/periph/src/stm32f4xx_cryp.c ****   CRYP->CSGCMCCM5R = CRYP_ContextRestore->CRYP_CSGCMCCMR[5];
 946              		.loc 1 623 3 is_stmt 1 view .LVU333
 947              		.loc 1 623 57 is_stmt 0 view .LVU334
 948 004a 826C     		ldr	r2, [r0, #72]
 949              		.loc 1 623 20 view .LVU335
 950 004c 5A66     		str	r2, [r3, #100]
 624:STM32F4xx_LIB/periph/src/stm32f4xx_cryp.c ****   CRYP->CSGCMCCM6R = CRYP_ContextRestore->CRYP_CSGCMCCMR[6];
 951              		.loc 1 624 3 is_stmt 1 view .LVU336
 952              		.loc 1 624 57 is_stmt 0 view .LVU337
 953 004e C26C     		ldr	r2, [r0, #76]
 954              		.loc 1 624 20 view .LVU338
 955 0050 9A66     		str	r2, [r3, #104]
 625:STM32F4xx_LIB/periph/src/stm32f4xx_cryp.c ****   CRYP->CSGCMCCM7R = CRYP_ContextRestore->CRYP_CSGCMCCMR[7];
 956              		.loc 1 625 3 is_stmt 1 view .LVU339
 957              		.loc 1 625 57 is_stmt 0 view .LVU340
ARM GAS  C:\Users\京垓\AppData\Local\Temp\ccFNyFDf.s 			page 30


 958 0052 026D     		ldr	r2, [r0, #80]
 959              		.loc 1 625 20 view .LVU341
 960 0054 DA66     		str	r2, [r3, #108]
 626:STM32F4xx_LIB/periph/src/stm32f4xx_cryp.c ****   
 627:STM32F4xx_LIB/periph/src/stm32f4xx_cryp.c ****   CRYP->CSGCM0R = CRYP_ContextRestore->CRYP_CSGCMR[0];
 961              		.loc 1 627 3 is_stmt 1 view .LVU342
 962              		.loc 1 627 51 is_stmt 0 view .LVU343
 963 0056 426D     		ldr	r2, [r0, #84]
 964              		.loc 1 627 17 view .LVU344
 965 0058 1A67     		str	r2, [r3, #112]
 628:STM32F4xx_LIB/periph/src/stm32f4xx_cryp.c ****   CRYP->CSGCM1R = CRYP_ContextRestore->CRYP_CSGCMR[1];
 966              		.loc 1 628 3 is_stmt 1 view .LVU345
 967              		.loc 1 628 51 is_stmt 0 view .LVU346
 968 005a 826D     		ldr	r2, [r0, #88]
 969              		.loc 1 628 17 view .LVU347
 970 005c 5A67     		str	r2, [r3, #116]
 629:STM32F4xx_LIB/periph/src/stm32f4xx_cryp.c ****   CRYP->CSGCM2R = CRYP_ContextRestore->CRYP_CSGCMR[2];
 971              		.loc 1 629 3 is_stmt 1 view .LVU348
 972              		.loc 1 629 51 is_stmt 0 view .LVU349
 973 005e C26D     		ldr	r2, [r0, #92]
 974              		.loc 1 629 17 view .LVU350
 975 0060 9A67     		str	r2, [r3, #120]
 630:STM32F4xx_LIB/periph/src/stm32f4xx_cryp.c ****   CRYP->CSGCM3R = CRYP_ContextRestore->CRYP_CSGCMR[3];
 976              		.loc 1 630 3 is_stmt 1 view .LVU351
 977              		.loc 1 630 51 is_stmt 0 view .LVU352
 978 0062 026E     		ldr	r2, [r0, #96]
 979              		.loc 1 630 17 view .LVU353
 980 0064 DA67     		str	r2, [r3, #124]
 631:STM32F4xx_LIB/periph/src/stm32f4xx_cryp.c ****   CRYP->CSGCM4R = CRYP_ContextRestore->CRYP_CSGCMR[4];
 981              		.loc 1 631 3 is_stmt 1 view .LVU354
 982              		.loc 1 631 51 is_stmt 0 view .LVU355
 983 0066 426E     		ldr	r2, [r0, #100]
 984              		.loc 1 631 17 view .LVU356
 985 0068 C3F88020 		str	r2, [r3, #128]
 632:STM32F4xx_LIB/periph/src/stm32f4xx_cryp.c ****   CRYP->CSGCM5R = CRYP_ContextRestore->CRYP_CSGCMR[5];
 986              		.loc 1 632 3 is_stmt 1 view .LVU357
 987              		.loc 1 632 51 is_stmt 0 view .LVU358
 988 006c 826E     		ldr	r2, [r0, #104]
 989              		.loc 1 632 17 view .LVU359
 990 006e C3F88420 		str	r2, [r3, #132]
 633:STM32F4xx_LIB/periph/src/stm32f4xx_cryp.c ****   CRYP->CSGCM6R = CRYP_ContextRestore->CRYP_CSGCMR[6];
 991              		.loc 1 633 3 is_stmt 1 view .LVU360
 992              		.loc 1 633 51 is_stmt 0 view .LVU361
 993 0072 C26E     		ldr	r2, [r0, #108]
 994              		.loc 1 633 17 view .LVU362
 995 0074 C3F88820 		str	r2, [r3, #136]
 634:STM32F4xx_LIB/periph/src/stm32f4xx_cryp.c ****   CRYP->CSGCM7R = CRYP_ContextRestore->CRYP_CSGCMR[7];
 996              		.loc 1 634 3 is_stmt 1 view .LVU363
 997              		.loc 1 634 51 is_stmt 0 view .LVU364
 998 0078 026F     		ldr	r2, [r0, #112]
 999              		.loc 1 634 17 view .LVU365
 1000 007a C3F88C20 		str	r2, [r3, #140]
 635:STM32F4xx_LIB/periph/src/stm32f4xx_cryp.c ****   
 636:STM32F4xx_LIB/periph/src/stm32f4xx_cryp.c ****   /* Enable the cryptographic processor */
 637:STM32F4xx_LIB/periph/src/stm32f4xx_cryp.c ****   CRYP->CR |= CRYP_CR_CRYPEN;
 1001              		.loc 1 637 3 is_stmt 1 view .LVU366
 1002              		.loc 1 637 12 is_stmt 0 view .LVU367
ARM GAS  C:\Users\京垓\AppData\Local\Temp\ccFNyFDf.s 			page 31


 1003 007e 1A68     		ldr	r2, [r3]
 1004 0080 42F40042 		orr	r2, r2, #32768
 1005 0084 1A60     		str	r2, [r3]
 638:STM32F4xx_LIB/periph/src/stm32f4xx_cryp.c **** }
 1006              		.loc 1 638 1 view .LVU368
 1007 0086 7047     		bx	lr
 1008              	.L46:
 1009              		.align	2
 1010              	.L45:
 1011 0088 00000650 		.word	1342570496
 1012              		.cfi_endproc
 1013              	.LFE136:
 1015              		.section	.text.CRYP_DMACmd,"ax",%progbits
 1016              		.align	1
 1017              		.global	CRYP_DMACmd
 1018              		.syntax unified
 1019              		.thumb
 1020              		.thumb_func
 1021              		.fpu fpv4-sp-d16
 1023              	CRYP_DMACmd:
 1024              	.LVL27:
 1025              	.LFB137:
 639:STM32F4xx_LIB/periph/src/stm32f4xx_cryp.c **** /**
 640:STM32F4xx_LIB/periph/src/stm32f4xx_cryp.c ****   * @}
 641:STM32F4xx_LIB/periph/src/stm32f4xx_cryp.c ****   */
 642:STM32F4xx_LIB/periph/src/stm32f4xx_cryp.c **** 
 643:STM32F4xx_LIB/periph/src/stm32f4xx_cryp.c **** /** @defgroup CRYP_Group4 CRYP's DMA interface Configuration function
 644:STM32F4xx_LIB/periph/src/stm32f4xx_cryp.c ****  *  @brief   CRYP's DMA interface Configuration function 
 645:STM32F4xx_LIB/periph/src/stm32f4xx_cryp.c ****  *
 646:STM32F4xx_LIB/periph/src/stm32f4xx_cryp.c **** @verbatim   
 647:STM32F4xx_LIB/periph/src/stm32f4xx_cryp.c ****  ===============================================================================
 648:STM32F4xx_LIB/periph/src/stm32f4xx_cryp.c ****              ##### CRYP's DMA interface Configuration function #####
 649:STM32F4xx_LIB/periph/src/stm32f4xx_cryp.c ****  ===============================================================================  
 650:STM32F4xx_LIB/periph/src/stm32f4xx_cryp.c ****  [..] This section provides functions allowing to configure the DMA interface for 
 651:STM32F4xx_LIB/periph/src/stm32f4xx_cryp.c ****       CRYP data input and output transfer.
 652:STM32F4xx_LIB/periph/src/stm32f4xx_cryp.c ****    
 653:STM32F4xx_LIB/periph/src/stm32f4xx_cryp.c ****  [..] When the DMA mode is enabled (using the CRYP_DMACmd() function), data can be 
 654:STM32F4xx_LIB/periph/src/stm32f4xx_cryp.c ****       transferred:
 655:STM32F4xx_LIB/periph/src/stm32f4xx_cryp.c ****    (+) From memory to the CRYP IN FIFO using the DMA peripheral by enabling 
 656:STM32F4xx_LIB/periph/src/stm32f4xx_cryp.c ****        the CRYP_DMAReq_DataIN request.
 657:STM32F4xx_LIB/periph/src/stm32f4xx_cryp.c ****    (+) From the CRYP OUT FIFO to the memory using the DMA peripheral by enabling 
 658:STM32F4xx_LIB/periph/src/stm32f4xx_cryp.c ****        the CRYP_DMAReq_DataOUT request.
 659:STM32F4xx_LIB/periph/src/stm32f4xx_cryp.c **** 
 660:STM32F4xx_LIB/periph/src/stm32f4xx_cryp.c **** @endverbatim
 661:STM32F4xx_LIB/periph/src/stm32f4xx_cryp.c ****   * @{
 662:STM32F4xx_LIB/periph/src/stm32f4xx_cryp.c ****   */
 663:STM32F4xx_LIB/periph/src/stm32f4xx_cryp.c **** 
 664:STM32F4xx_LIB/periph/src/stm32f4xx_cryp.c **** /**
 665:STM32F4xx_LIB/periph/src/stm32f4xx_cryp.c ****   * @brief  Enables or disables the CRYP DMA interface.
 666:STM32F4xx_LIB/periph/src/stm32f4xx_cryp.c ****   * @param  CRYP_DMAReq: specifies the CRYP DMA transfer request to be enabled or disabled.
 667:STM32F4xx_LIB/periph/src/stm32f4xx_cryp.c ****   *           This parameter can be any combination of the following values:
 668:STM32F4xx_LIB/periph/src/stm32f4xx_cryp.c ****   *            @arg CRYP_DMAReq_DataOUT: DMA for outgoing(Tx) data transfer
 669:STM32F4xx_LIB/periph/src/stm32f4xx_cryp.c ****   *            @arg CRYP_DMAReq_DataIN: DMA for incoming(Rx) data transfer
 670:STM32F4xx_LIB/periph/src/stm32f4xx_cryp.c ****   * @param  NewState: new state of the selected CRYP DMA transfer request.
 671:STM32F4xx_LIB/periph/src/stm32f4xx_cryp.c ****   *          This parameter can be: ENABLE or DISABLE.
 672:STM32F4xx_LIB/periph/src/stm32f4xx_cryp.c ****   * @retval None
 673:STM32F4xx_LIB/periph/src/stm32f4xx_cryp.c ****   */
ARM GAS  C:\Users\京垓\AppData\Local\Temp\ccFNyFDf.s 			page 32


 674:STM32F4xx_LIB/periph/src/stm32f4xx_cryp.c **** void CRYP_DMACmd(uint8_t CRYP_DMAReq, FunctionalState NewState)
 675:STM32F4xx_LIB/periph/src/stm32f4xx_cryp.c **** {
 1026              		.loc 1 675 1 is_stmt 1 view -0
 1027              		.cfi_startproc
 1028              		@ args = 0, pretend = 0, frame = 0
 1029              		@ frame_needed = 0, uses_anonymous_args = 0
 1030              		@ link register save eliminated.
 676:STM32F4xx_LIB/periph/src/stm32f4xx_cryp.c ****   /* Check the parameters */
 677:STM32F4xx_LIB/periph/src/stm32f4xx_cryp.c ****   assert_param(IS_CRYP_DMAREQ(CRYP_DMAReq));
 1031              		.loc 1 677 3 view .LVU370
 678:STM32F4xx_LIB/periph/src/stm32f4xx_cryp.c ****   assert_param(IS_FUNCTIONAL_STATE(NewState));
 1032              		.loc 1 678 3 view .LVU371
 679:STM32F4xx_LIB/periph/src/stm32f4xx_cryp.c **** 
 680:STM32F4xx_LIB/periph/src/stm32f4xx_cryp.c ****   if (NewState != DISABLE)
 1033              		.loc 1 680 3 view .LVU372
 1034              		.loc 1 680 6 is_stmt 0 view .LVU373
 1035 0000 21B1     		cbz	r1, .L48
 681:STM32F4xx_LIB/periph/src/stm32f4xx_cryp.c ****   {
 682:STM32F4xx_LIB/periph/src/stm32f4xx_cryp.c ****     /* Enable the selected CRYP DMA request */
 683:STM32F4xx_LIB/periph/src/stm32f4xx_cryp.c ****     CRYP->DMACR |= CRYP_DMAReq;
 1036              		.loc 1 683 5 is_stmt 1 view .LVU374
 1037              		.loc 1 683 17 is_stmt 0 view .LVU375
 1038 0002 064B     		ldr	r3, .L50
 1039 0004 1A69     		ldr	r2, [r3, #16]
 1040 0006 1043     		orrs	r0, r0, r2
 1041              	.LVL28:
 1042              		.loc 1 683 17 view .LVU376
 1043 0008 1861     		str	r0, [r3, #16]
 1044 000a 7047     		bx	lr
 1045              	.LVL29:
 1046              	.L48:
 684:STM32F4xx_LIB/periph/src/stm32f4xx_cryp.c ****   }
 685:STM32F4xx_LIB/periph/src/stm32f4xx_cryp.c ****   else
 686:STM32F4xx_LIB/periph/src/stm32f4xx_cryp.c ****   {
 687:STM32F4xx_LIB/periph/src/stm32f4xx_cryp.c ****     /* Disable the selected CRYP DMA request */
 688:STM32F4xx_LIB/periph/src/stm32f4xx_cryp.c ****     CRYP->DMACR &= (uint8_t)~CRYP_DMAReq;
 1047              		.loc 1 688 5 is_stmt 1 view .LVU377
 1048              		.loc 1 688 17 is_stmt 0 view .LVU378
 1049 000c 034A     		ldr	r2, .L50
 1050 000e 1369     		ldr	r3, [r2, #16]
 1051              		.loc 1 688 20 view .LVU379
 1052 0010 C043     		mvns	r0, r0
 1053              	.LVL30:
 1054              		.loc 1 688 20 view .LVU380
 1055 0012 C0B2     		uxtb	r0, r0
 1056              		.loc 1 688 17 view .LVU381
 1057 0014 1840     		ands	r0, r0, r3
 1058 0016 1061     		str	r0, [r2, #16]
 689:STM32F4xx_LIB/periph/src/stm32f4xx_cryp.c ****   }
 690:STM32F4xx_LIB/periph/src/stm32f4xx_cryp.c **** }
 1059              		.loc 1 690 1 view .LVU382
 1060 0018 7047     		bx	lr
 1061              	.L51:
 1062 001a 00BF     		.align	2
 1063              	.L50:
 1064 001c 00000650 		.word	1342570496
 1065              		.cfi_endproc
ARM GAS  C:\Users\京垓\AppData\Local\Temp\ccFNyFDf.s 			page 33


 1066              	.LFE137:
 1068              		.section	.text.CRYP_ITConfig,"ax",%progbits
 1069              		.align	1
 1070              		.global	CRYP_ITConfig
 1071              		.syntax unified
 1072              		.thumb
 1073              		.thumb_func
 1074              		.fpu fpv4-sp-d16
 1076              	CRYP_ITConfig:
 1077              	.LVL31:
 1078              	.LFB138:
 691:STM32F4xx_LIB/periph/src/stm32f4xx_cryp.c **** /**
 692:STM32F4xx_LIB/periph/src/stm32f4xx_cryp.c ****   * @}
 693:STM32F4xx_LIB/periph/src/stm32f4xx_cryp.c ****   */
 694:STM32F4xx_LIB/periph/src/stm32f4xx_cryp.c **** 
 695:STM32F4xx_LIB/periph/src/stm32f4xx_cryp.c **** /** @defgroup CRYP_Group5 Interrupts and flags management functions
 696:STM32F4xx_LIB/periph/src/stm32f4xx_cryp.c ****  *  @brief   Interrupts and flags management functions
 697:STM32F4xx_LIB/periph/src/stm32f4xx_cryp.c ****  *
 698:STM32F4xx_LIB/periph/src/stm32f4xx_cryp.c **** @verbatim   
 699:STM32F4xx_LIB/periph/src/stm32f4xx_cryp.c ****  ===============================================================================
 700:STM32F4xx_LIB/periph/src/stm32f4xx_cryp.c ****               ##### Interrupts and flags management functions #####
 701:STM32F4xx_LIB/periph/src/stm32f4xx_cryp.c ****  ===============================================================================  
 702:STM32F4xx_LIB/periph/src/stm32f4xx_cryp.c ****  
 703:STM32F4xx_LIB/periph/src/stm32f4xx_cryp.c ****  [..] This section provides functions allowing to configure the CRYP Interrupts and 
 704:STM32F4xx_LIB/periph/src/stm32f4xx_cryp.c ****       to get the status and Interrupts pending bits.
 705:STM32F4xx_LIB/periph/src/stm32f4xx_cryp.c **** 
 706:STM32F4xx_LIB/periph/src/stm32f4xx_cryp.c ****  [..] The CRYP provides 2 Interrupts sources and 7 Flags:
 707:STM32F4xx_LIB/periph/src/stm32f4xx_cryp.c **** 
 708:STM32F4xx_LIB/periph/src/stm32f4xx_cryp.c ****  *** Flags : ***
 709:STM32F4xx_LIB/periph/src/stm32f4xx_cryp.c ****  ===============
 710:STM32F4xx_LIB/periph/src/stm32f4xx_cryp.c ****  [..] 
 711:STM32F4xx_LIB/periph/src/stm32f4xx_cryp.c ****    (#) CRYP_FLAG_IFEM :  Set when Input FIFO is empty. This Flag is cleared only
 712:STM32F4xx_LIB/periph/src/stm32f4xx_cryp.c ****        by hardware.
 713:STM32F4xx_LIB/periph/src/stm32f4xx_cryp.c ****       
 714:STM32F4xx_LIB/periph/src/stm32f4xx_cryp.c ****    (#) CRYP_FLAG_IFNF :  Set when Input FIFO is not full. This Flag is cleared 
 715:STM32F4xx_LIB/periph/src/stm32f4xx_cryp.c ****        only by hardware.
 716:STM32F4xx_LIB/periph/src/stm32f4xx_cryp.c **** 
 717:STM32F4xx_LIB/periph/src/stm32f4xx_cryp.c **** 
 718:STM32F4xx_LIB/periph/src/stm32f4xx_cryp.c ****    (#) CRYP_FLAG_INRIS  : Set when Input FIFO Raw interrupt is pending it gives 
 719:STM32F4xx_LIB/periph/src/stm32f4xx_cryp.c ****        the raw interrupt state prior to masking of the input FIFO service interrupt.
 720:STM32F4xx_LIB/periph/src/stm32f4xx_cryp.c ****        This Flag is cleared only by hardware.
 721:STM32F4xx_LIB/periph/src/stm32f4xx_cryp.c ****      
 722:STM32F4xx_LIB/periph/src/stm32f4xx_cryp.c ****    (#) CRYP_FLAG_OFNE   : Set when Output FIFO not empty. This Flag is cleared 
 723:STM32F4xx_LIB/periph/src/stm32f4xx_cryp.c ****        only by hardware.
 724:STM32F4xx_LIB/periph/src/stm32f4xx_cryp.c ****         
 725:STM32F4xx_LIB/periph/src/stm32f4xx_cryp.c ****    (#) CRYP_FLAG_OFFU   : Set when Output FIFO is full. This Flag is cleared only 
 726:STM32F4xx_LIB/periph/src/stm32f4xx_cryp.c ****        by hardware.
 727:STM32F4xx_LIB/periph/src/stm32f4xx_cryp.c ****                            
 728:STM32F4xx_LIB/periph/src/stm32f4xx_cryp.c ****    (#) CRYP_FLAG_OUTRIS : Set when Output FIFO Raw interrupt is pending it gives 
 729:STM32F4xx_LIB/periph/src/stm32f4xx_cryp.c ****        the raw interrupt state prior to masking of the output FIFO service interrupt.
 730:STM32F4xx_LIB/periph/src/stm32f4xx_cryp.c ****        This Flag is cleared only by hardware.
 731:STM32F4xx_LIB/periph/src/stm32f4xx_cryp.c ****                                
 732:STM32F4xx_LIB/periph/src/stm32f4xx_cryp.c ****    (#) CRYP_FLAG_BUSY   : Set when the CRYP core is currently processing a block 
 733:STM32F4xx_LIB/periph/src/stm32f4xx_cryp.c ****        of data or a key preparation (for AES decryption). This Flag is cleared 
 734:STM32F4xx_LIB/periph/src/stm32f4xx_cryp.c ****        only by hardware. To clear it, the CRYP core must be disabled and the last
 735:STM32F4xx_LIB/periph/src/stm32f4xx_cryp.c ****        processing has completed. 
 736:STM32F4xx_LIB/periph/src/stm32f4xx_cryp.c **** 
ARM GAS  C:\Users\京垓\AppData\Local\Temp\ccFNyFDf.s 			page 34


 737:STM32F4xx_LIB/periph/src/stm32f4xx_cryp.c ****  *** Interrupts : ***
 738:STM32F4xx_LIB/periph/src/stm32f4xx_cryp.c ****  ====================
 739:STM32F4xx_LIB/periph/src/stm32f4xx_cryp.c ****  [..]
 740:STM32F4xx_LIB/periph/src/stm32f4xx_cryp.c ****    (#) CRYP_IT_INI   : The input FIFO service interrupt is asserted when there 
 741:STM32F4xx_LIB/periph/src/stm32f4xx_cryp.c ****       are less than 4 words in the input FIFO. This interrupt is associated to 
 742:STM32F4xx_LIB/periph/src/stm32f4xx_cryp.c ****       CRYP_FLAG_INRIS flag.
 743:STM32F4xx_LIB/periph/src/stm32f4xx_cryp.c **** 
 744:STM32F4xx_LIB/periph/src/stm32f4xx_cryp.c ****       -@- This interrupt is cleared by performing write operations to the input FIFO 
 745:STM32F4xx_LIB/periph/src/stm32f4xx_cryp.c ****           until it holds 4 or more words. The input FIFO service interrupt INMIS is 
 746:STM32F4xx_LIB/periph/src/stm32f4xx_cryp.c ****           enabled with the CRYP enable bit. Consequently, when CRYP is disabled, the 
 747:STM32F4xx_LIB/periph/src/stm32f4xx_cryp.c ****           INMIS signal is low even if the input FIFO is empty.
 748:STM32F4xx_LIB/periph/src/stm32f4xx_cryp.c **** 
 749:STM32F4xx_LIB/periph/src/stm32f4xx_cryp.c **** 
 750:STM32F4xx_LIB/periph/src/stm32f4xx_cryp.c **** 
 751:STM32F4xx_LIB/periph/src/stm32f4xx_cryp.c ****    (#) CRYP_IT_OUTI  : The output FIFO service interrupt is asserted when there 
 752:STM32F4xx_LIB/periph/src/stm32f4xx_cryp.c ****        is one or more (32-bit word) data items in the output FIFO. This interrupt 
 753:STM32F4xx_LIB/periph/src/stm32f4xx_cryp.c ****        is associated to CRYP_FLAG_OUTRIS flag.
 754:STM32F4xx_LIB/periph/src/stm32f4xx_cryp.c **** 
 755:STM32F4xx_LIB/periph/src/stm32f4xx_cryp.c ****        -@- This interrupt is cleared by reading data from the output FIFO until there 
 756:STM32F4xx_LIB/periph/src/stm32f4xx_cryp.c ****            is no valid (32-bit) word left (that is, the interrupt follows the state 
 757:STM32F4xx_LIB/periph/src/stm32f4xx_cryp.c ****            of the OFNE (output FIFO not empty) flag).
 758:STM32F4xx_LIB/periph/src/stm32f4xx_cryp.c **** 
 759:STM32F4xx_LIB/periph/src/stm32f4xx_cryp.c ****  *** Managing the CRYP controller events : ***
 760:STM32F4xx_LIB/periph/src/stm32f4xx_cryp.c ****  =============================================
 761:STM32F4xx_LIB/periph/src/stm32f4xx_cryp.c ****  [..] The user should identify which mode will be used in his application to manage 
 762:STM32F4xx_LIB/periph/src/stm32f4xx_cryp.c ****       the CRYP controller events: Polling mode or Interrupt mode.
 763:STM32F4xx_LIB/periph/src/stm32f4xx_cryp.c **** 
 764:STM32F4xx_LIB/periph/src/stm32f4xx_cryp.c ****    (#) In the Polling Mode it is advised to use the following functions:
 765:STM32F4xx_LIB/periph/src/stm32f4xx_cryp.c ****        (++) CRYP_GetFlagStatus() : to check if flags events occur. 
 766:STM32F4xx_LIB/periph/src/stm32f4xx_cryp.c **** 
 767:STM32F4xx_LIB/periph/src/stm32f4xx_cryp.c ****        -@@- The CRYPT flags do not need to be cleared since they are cleared as 
 768:STM32F4xx_LIB/periph/src/stm32f4xx_cryp.c ****             soon as the associated event are reset.   
 769:STM32F4xx_LIB/periph/src/stm32f4xx_cryp.c **** 
 770:STM32F4xx_LIB/periph/src/stm32f4xx_cryp.c **** 
 771:STM32F4xx_LIB/periph/src/stm32f4xx_cryp.c ****    (#) In the Interrupt Mode it is advised to use the following functions:
 772:STM32F4xx_LIB/periph/src/stm32f4xx_cryp.c ****        (++) CRYP_ITConfig()       : to enable or disable the interrupt source.
 773:STM32F4xx_LIB/periph/src/stm32f4xx_cryp.c ****        (++) CRYP_GetITStatus()    : to check if Interrupt occurs.
 774:STM32F4xx_LIB/periph/src/stm32f4xx_cryp.c **** 
 775:STM32F4xx_LIB/periph/src/stm32f4xx_cryp.c ****        -@@- The CRYPT interrupts have no pending bits, the interrupt is cleared as 
 776:STM32F4xx_LIB/periph/src/stm32f4xx_cryp.c ****              soon as the associated event is reset. 
 777:STM32F4xx_LIB/periph/src/stm32f4xx_cryp.c **** 
 778:STM32F4xx_LIB/periph/src/stm32f4xx_cryp.c **** @endverbatim
 779:STM32F4xx_LIB/periph/src/stm32f4xx_cryp.c ****   * @{
 780:STM32F4xx_LIB/periph/src/stm32f4xx_cryp.c ****   */ 
 781:STM32F4xx_LIB/periph/src/stm32f4xx_cryp.c **** 
 782:STM32F4xx_LIB/periph/src/stm32f4xx_cryp.c **** /**
 783:STM32F4xx_LIB/periph/src/stm32f4xx_cryp.c ****   * @brief  Enables or disables the specified CRYP interrupts.
 784:STM32F4xx_LIB/periph/src/stm32f4xx_cryp.c ****   * @param  CRYP_IT: specifies the CRYP interrupt source to be enabled or disabled.
 785:STM32F4xx_LIB/periph/src/stm32f4xx_cryp.c ****   *          This parameter can be any combination of the following values:
 786:STM32F4xx_LIB/periph/src/stm32f4xx_cryp.c ****   *            @arg CRYP_IT_INI: Input FIFO interrupt
 787:STM32F4xx_LIB/periph/src/stm32f4xx_cryp.c ****   *            @arg CRYP_IT_OUTI: Output FIFO interrupt
 788:STM32F4xx_LIB/periph/src/stm32f4xx_cryp.c ****   * @param  NewState: new state of the specified CRYP interrupt.
 789:STM32F4xx_LIB/periph/src/stm32f4xx_cryp.c ****   *           This parameter can be: ENABLE or DISABLE.
 790:STM32F4xx_LIB/periph/src/stm32f4xx_cryp.c ****   * @retval None
 791:STM32F4xx_LIB/periph/src/stm32f4xx_cryp.c ****   */
 792:STM32F4xx_LIB/periph/src/stm32f4xx_cryp.c **** void CRYP_ITConfig(uint8_t CRYP_IT, FunctionalState NewState)
 793:STM32F4xx_LIB/periph/src/stm32f4xx_cryp.c **** {
ARM GAS  C:\Users\京垓\AppData\Local\Temp\ccFNyFDf.s 			page 35


 1079              		.loc 1 793 1 is_stmt 1 view -0
 1080              		.cfi_startproc
 1081              		@ args = 0, pretend = 0, frame = 0
 1082              		@ frame_needed = 0, uses_anonymous_args = 0
 1083              		@ link register save eliminated.
 794:STM32F4xx_LIB/periph/src/stm32f4xx_cryp.c ****   /* Check the parameters */
 795:STM32F4xx_LIB/periph/src/stm32f4xx_cryp.c ****   assert_param(IS_CRYP_CONFIG_IT(CRYP_IT));
 1084              		.loc 1 795 3 view .LVU384
 796:STM32F4xx_LIB/periph/src/stm32f4xx_cryp.c ****   assert_param(IS_FUNCTIONAL_STATE(NewState));
 1085              		.loc 1 796 3 view .LVU385
 797:STM32F4xx_LIB/periph/src/stm32f4xx_cryp.c **** 
 798:STM32F4xx_LIB/periph/src/stm32f4xx_cryp.c ****   if (NewState != DISABLE)
 1086              		.loc 1 798 3 view .LVU386
 1087              		.loc 1 798 6 is_stmt 0 view .LVU387
 1088 0000 21B1     		cbz	r1, .L53
 799:STM32F4xx_LIB/periph/src/stm32f4xx_cryp.c ****   {
 800:STM32F4xx_LIB/periph/src/stm32f4xx_cryp.c ****     /* Enable the selected CRYP interrupt */
 801:STM32F4xx_LIB/periph/src/stm32f4xx_cryp.c ****     CRYP->IMSCR |= CRYP_IT;
 1089              		.loc 1 801 5 is_stmt 1 view .LVU388
 1090              		.loc 1 801 17 is_stmt 0 view .LVU389
 1091 0002 064B     		ldr	r3, .L55
 1092 0004 5A69     		ldr	r2, [r3, #20]
 1093 0006 1043     		orrs	r0, r0, r2
 1094              	.LVL32:
 1095              		.loc 1 801 17 view .LVU390
 1096 0008 5861     		str	r0, [r3, #20]
 1097 000a 7047     		bx	lr
 1098              	.LVL33:
 1099              	.L53:
 802:STM32F4xx_LIB/periph/src/stm32f4xx_cryp.c ****   }
 803:STM32F4xx_LIB/periph/src/stm32f4xx_cryp.c ****   else
 804:STM32F4xx_LIB/periph/src/stm32f4xx_cryp.c ****   {
 805:STM32F4xx_LIB/periph/src/stm32f4xx_cryp.c ****     /* Disable the selected CRYP interrupt */
 806:STM32F4xx_LIB/periph/src/stm32f4xx_cryp.c ****     CRYP->IMSCR &= (uint8_t)~CRYP_IT;
 1100              		.loc 1 806 5 is_stmt 1 view .LVU391
 1101              		.loc 1 806 17 is_stmt 0 view .LVU392
 1102 000c 034A     		ldr	r2, .L55
 1103 000e 5369     		ldr	r3, [r2, #20]
 1104              		.loc 1 806 20 view .LVU393
 1105 0010 C043     		mvns	r0, r0
 1106              	.LVL34:
 1107              		.loc 1 806 20 view .LVU394
 1108 0012 C0B2     		uxtb	r0, r0
 1109              		.loc 1 806 17 view .LVU395
 1110 0014 1840     		ands	r0, r0, r3
 1111 0016 5061     		str	r0, [r2, #20]
 807:STM32F4xx_LIB/periph/src/stm32f4xx_cryp.c ****   }
 808:STM32F4xx_LIB/periph/src/stm32f4xx_cryp.c **** }
 1112              		.loc 1 808 1 view .LVU396
 1113 0018 7047     		bx	lr
 1114              	.L56:
 1115 001a 00BF     		.align	2
 1116              	.L55:
 1117 001c 00000650 		.word	1342570496
 1118              		.cfi_endproc
 1119              	.LFE138:
 1121              		.section	.text.CRYP_GetITStatus,"ax",%progbits
ARM GAS  C:\Users\京垓\AppData\Local\Temp\ccFNyFDf.s 			page 36


 1122              		.align	1
 1123              		.global	CRYP_GetITStatus
 1124              		.syntax unified
 1125              		.thumb
 1126              		.thumb_func
 1127              		.fpu fpv4-sp-d16
 1129              	CRYP_GetITStatus:
 1130              	.LVL35:
 1131              	.LFB139:
 809:STM32F4xx_LIB/periph/src/stm32f4xx_cryp.c **** 
 810:STM32F4xx_LIB/periph/src/stm32f4xx_cryp.c **** /**
 811:STM32F4xx_LIB/periph/src/stm32f4xx_cryp.c ****   * @brief  Checks whether the specified CRYP interrupt has occurred or not.
 812:STM32F4xx_LIB/periph/src/stm32f4xx_cryp.c ****   * @note   This function checks the status of the masked interrupt (i.e the 
 813:STM32F4xx_LIB/periph/src/stm32f4xx_cryp.c ****   *         interrupt should be previously enabled).     
 814:STM32F4xx_LIB/periph/src/stm32f4xx_cryp.c ****   * @param  CRYP_IT: specifies the CRYP (masked) interrupt source to check.
 815:STM32F4xx_LIB/periph/src/stm32f4xx_cryp.c ****   *           This parameter can be one of the following values:
 816:STM32F4xx_LIB/periph/src/stm32f4xx_cryp.c ****   *            @arg CRYP_IT_INI: Input FIFO interrupt
 817:STM32F4xx_LIB/periph/src/stm32f4xx_cryp.c ****   *            @arg CRYP_IT_OUTI: Output FIFO interrupt
 818:STM32F4xx_LIB/periph/src/stm32f4xx_cryp.c ****   * @retval The new state of CRYP_IT (SET or RESET).
 819:STM32F4xx_LIB/periph/src/stm32f4xx_cryp.c ****   */
 820:STM32F4xx_LIB/periph/src/stm32f4xx_cryp.c **** ITStatus CRYP_GetITStatus(uint8_t CRYP_IT)
 821:STM32F4xx_LIB/periph/src/stm32f4xx_cryp.c **** {
 1132              		.loc 1 821 1 is_stmt 1 view -0
 1133              		.cfi_startproc
 1134              		@ args = 0, pretend = 0, frame = 0
 1135              		@ frame_needed = 0, uses_anonymous_args = 0
 1136              		@ link register save eliminated.
 822:STM32F4xx_LIB/periph/src/stm32f4xx_cryp.c ****   ITStatus bitstatus = RESET;
 1137              		.loc 1 822 3 view .LVU398
 823:STM32F4xx_LIB/periph/src/stm32f4xx_cryp.c ****   /* Check the parameters */
 824:STM32F4xx_LIB/periph/src/stm32f4xx_cryp.c ****   assert_param(IS_CRYP_GET_IT(CRYP_IT));
 1138              		.loc 1 824 3 view .LVU399
 825:STM32F4xx_LIB/periph/src/stm32f4xx_cryp.c **** 
 826:STM32F4xx_LIB/periph/src/stm32f4xx_cryp.c ****   /* Check the status of the specified CRYP interrupt */
 827:STM32F4xx_LIB/periph/src/stm32f4xx_cryp.c ****   if ((CRYP->MISR &  CRYP_IT) != (uint8_t)RESET)
 1139              		.loc 1 827 3 view .LVU400
 1140              		.loc 1 827 12 is_stmt 0 view .LVU401
 1141 0000 034B     		ldr	r3, .L60
 1142 0002 DB69     		ldr	r3, [r3, #28]
 1143              		.loc 1 827 6 view .LVU402
 1144 0004 1842     		tst	r0, r3
 1145 0006 01D0     		beq	.L59
 828:STM32F4xx_LIB/periph/src/stm32f4xx_cryp.c ****   {
 829:STM32F4xx_LIB/periph/src/stm32f4xx_cryp.c ****     /* CRYP_IT is set */
 830:STM32F4xx_LIB/periph/src/stm32f4xx_cryp.c ****     bitstatus = SET;
 1146              		.loc 1 830 15 view .LVU403
 1147 0008 0120     		movs	r0, #1
 1148              	.LVL36:
 1149              		.loc 1 830 15 view .LVU404
 1150 000a 7047     		bx	lr
 1151              	.LVL37:
 1152              	.L59:
 831:STM32F4xx_LIB/periph/src/stm32f4xx_cryp.c ****   }
 832:STM32F4xx_LIB/periph/src/stm32f4xx_cryp.c ****   else
 833:STM32F4xx_LIB/periph/src/stm32f4xx_cryp.c ****   {
 834:STM32F4xx_LIB/periph/src/stm32f4xx_cryp.c ****     /* CRYP_IT is reset */
 835:STM32F4xx_LIB/periph/src/stm32f4xx_cryp.c ****     bitstatus = RESET;
ARM GAS  C:\Users\京垓\AppData\Local\Temp\ccFNyFDf.s 			page 37


 1153              		.loc 1 835 15 view .LVU405
 1154 000c 0020     		movs	r0, #0
 1155              	.LVL38:
 836:STM32F4xx_LIB/periph/src/stm32f4xx_cryp.c ****   }
 837:STM32F4xx_LIB/periph/src/stm32f4xx_cryp.c ****   /* Return the CRYP_IT status */
 838:STM32F4xx_LIB/periph/src/stm32f4xx_cryp.c ****   return bitstatus;
 1156              		.loc 1 838 3 is_stmt 1 view .LVU406
 839:STM32F4xx_LIB/periph/src/stm32f4xx_cryp.c **** }
 1157              		.loc 1 839 1 is_stmt 0 view .LVU407
 1158 000e 7047     		bx	lr
 1159              	.L61:
 1160              		.align	2
 1161              	.L60:
 1162 0010 00000650 		.word	1342570496
 1163              		.cfi_endproc
 1164              	.LFE139:
 1166              		.section	.text.CRYP_GetCmdStatus,"ax",%progbits
 1167              		.align	1
 1168              		.global	CRYP_GetCmdStatus
 1169              		.syntax unified
 1170              		.thumb
 1171              		.thumb_func
 1172              		.fpu fpv4-sp-d16
 1174              	CRYP_GetCmdStatus:
 1175              	.LFB140:
 840:STM32F4xx_LIB/periph/src/stm32f4xx_cryp.c **** 
 841:STM32F4xx_LIB/periph/src/stm32f4xx_cryp.c **** /**
 842:STM32F4xx_LIB/periph/src/stm32f4xx_cryp.c ****   * @brief  Returns whether CRYP peripheral is enabled or disabled.
 843:STM32F4xx_LIB/periph/src/stm32f4xx_cryp.c ****   * @param  none.
 844:STM32F4xx_LIB/periph/src/stm32f4xx_cryp.c ****   * @retval Current state of the CRYP peripheral (ENABLE or DISABLE).
 845:STM32F4xx_LIB/periph/src/stm32f4xx_cryp.c ****   */
 846:STM32F4xx_LIB/periph/src/stm32f4xx_cryp.c **** FunctionalState CRYP_GetCmdStatus(void)
 847:STM32F4xx_LIB/periph/src/stm32f4xx_cryp.c **** {
 1176              		.loc 1 847 1 is_stmt 1 view -0
 1177              		.cfi_startproc
 1178              		@ args = 0, pretend = 0, frame = 0
 1179              		@ frame_needed = 0, uses_anonymous_args = 0
 1180              		@ link register save eliminated.
 848:STM32F4xx_LIB/periph/src/stm32f4xx_cryp.c ****   FunctionalState state = DISABLE;
 1181              		.loc 1 848 3 view .LVU409
 1182              	.LVL39:
 849:STM32F4xx_LIB/periph/src/stm32f4xx_cryp.c **** 
 850:STM32F4xx_LIB/periph/src/stm32f4xx_cryp.c ****   if ((CRYP->CR & CRYP_CR_CRYPEN) != 0)
 1183              		.loc 1 850 3 view .LVU410
 1184              		.loc 1 850 12 is_stmt 0 view .LVU411
 1185 0000 044B     		ldr	r3, .L65
 1186 0002 1B68     		ldr	r3, [r3]
 1187              		.loc 1 850 6 view .LVU412
 1188 0004 13F4004F 		tst	r3, #32768
 1189 0008 01D0     		beq	.L64
 851:STM32F4xx_LIB/periph/src/stm32f4xx_cryp.c ****   {
 852:STM32F4xx_LIB/periph/src/stm32f4xx_cryp.c ****     /* CRYPEN bit is set */
 853:STM32F4xx_LIB/periph/src/stm32f4xx_cryp.c ****     state = ENABLE;
 1190              		.loc 1 853 11 view .LVU413
 1191 000a 0120     		movs	r0, #1
 1192 000c 7047     		bx	lr
 1193              	.L64:
ARM GAS  C:\Users\京垓\AppData\Local\Temp\ccFNyFDf.s 			page 38


 854:STM32F4xx_LIB/periph/src/stm32f4xx_cryp.c ****   }
 855:STM32F4xx_LIB/periph/src/stm32f4xx_cryp.c ****   else
 856:STM32F4xx_LIB/periph/src/stm32f4xx_cryp.c ****   {
 857:STM32F4xx_LIB/periph/src/stm32f4xx_cryp.c ****     /* CRYPEN bit is reset */
 858:STM32F4xx_LIB/periph/src/stm32f4xx_cryp.c ****     state = DISABLE;
 1194              		.loc 1 858 11 view .LVU414
 1195 000e 0020     		movs	r0, #0
 1196              	.LVL40:
 859:STM32F4xx_LIB/periph/src/stm32f4xx_cryp.c ****   }
 860:STM32F4xx_LIB/periph/src/stm32f4xx_cryp.c ****   return state;
 1197              		.loc 1 860 3 is_stmt 1 view .LVU415
 861:STM32F4xx_LIB/periph/src/stm32f4xx_cryp.c **** }
 1198              		.loc 1 861 1 is_stmt 0 view .LVU416
 1199 0010 7047     		bx	lr
 1200              	.L66:
 1201 0012 00BF     		.align	2
 1202              	.L65:
 1203 0014 00000650 		.word	1342570496
 1204              		.cfi_endproc
 1205              	.LFE140:
 1207              		.section	.text.CRYP_GetFlagStatus,"ax",%progbits
 1208              		.align	1
 1209              		.global	CRYP_GetFlagStatus
 1210              		.syntax unified
 1211              		.thumb
 1212              		.thumb_func
 1213              		.fpu fpv4-sp-d16
 1215              	CRYP_GetFlagStatus:
 1216              	.LVL41:
 1217              	.LFB141:
 862:STM32F4xx_LIB/periph/src/stm32f4xx_cryp.c **** 
 863:STM32F4xx_LIB/periph/src/stm32f4xx_cryp.c **** /**
 864:STM32F4xx_LIB/periph/src/stm32f4xx_cryp.c ****   * @brief  Checks whether the specified CRYP flag is set or not.
 865:STM32F4xx_LIB/periph/src/stm32f4xx_cryp.c ****   * @param  CRYP_FLAG: specifies the CRYP flag to check.
 866:STM32F4xx_LIB/periph/src/stm32f4xx_cryp.c ****   *          This parameter can be one of the following values:
 867:STM32F4xx_LIB/periph/src/stm32f4xx_cryp.c ****   *            @arg CRYP_FLAG_IFEM: Input FIFO Empty flag.
 868:STM32F4xx_LIB/periph/src/stm32f4xx_cryp.c ****   *            @arg CRYP_FLAG_IFNF: Input FIFO Not Full flag.
 869:STM32F4xx_LIB/periph/src/stm32f4xx_cryp.c ****   *            @arg CRYP_FLAG_OFNE: Output FIFO Not Empty flag.
 870:STM32F4xx_LIB/periph/src/stm32f4xx_cryp.c ****   *            @arg CRYP_FLAG_OFFU: Output FIFO Full flag.
 871:STM32F4xx_LIB/periph/src/stm32f4xx_cryp.c ****   *            @arg CRYP_FLAG_BUSY: Busy flag.
 872:STM32F4xx_LIB/periph/src/stm32f4xx_cryp.c ****   *            @arg CRYP_FLAG_OUTRIS: Output FIFO raw interrupt flag.
 873:STM32F4xx_LIB/periph/src/stm32f4xx_cryp.c ****   *            @arg CRYP_FLAG_INRIS: Input FIFO raw interrupt flag.
 874:STM32F4xx_LIB/periph/src/stm32f4xx_cryp.c ****   * @retval The new state of CRYP_FLAG (SET or RESET).
 875:STM32F4xx_LIB/periph/src/stm32f4xx_cryp.c ****   */
 876:STM32F4xx_LIB/periph/src/stm32f4xx_cryp.c **** FlagStatus CRYP_GetFlagStatus(uint8_t CRYP_FLAG)
 877:STM32F4xx_LIB/periph/src/stm32f4xx_cryp.c **** {
 1218              		.loc 1 877 1 is_stmt 1 view -0
 1219              		.cfi_startproc
 1220              		@ args = 0, pretend = 0, frame = 0
 1221              		@ frame_needed = 0, uses_anonymous_args = 0
 1222              		@ link register save eliminated.
 878:STM32F4xx_LIB/periph/src/stm32f4xx_cryp.c ****   FlagStatus bitstatus = RESET;
 1223              		.loc 1 878 3 view .LVU418
 879:STM32F4xx_LIB/periph/src/stm32f4xx_cryp.c ****   uint32_t tempreg = 0;
 1224              		.loc 1 879 3 view .LVU419
 880:STM32F4xx_LIB/periph/src/stm32f4xx_cryp.c **** 
 881:STM32F4xx_LIB/periph/src/stm32f4xx_cryp.c ****   /* Check the parameters */
ARM GAS  C:\Users\京垓\AppData\Local\Temp\ccFNyFDf.s 			page 39


 882:STM32F4xx_LIB/periph/src/stm32f4xx_cryp.c ****   assert_param(IS_CRYP_GET_FLAG(CRYP_FLAG));
 1225              		.loc 1 882 3 view .LVU420
 883:STM32F4xx_LIB/periph/src/stm32f4xx_cryp.c **** 
 884:STM32F4xx_LIB/periph/src/stm32f4xx_cryp.c ****   /* check if the FLAG is in RISR register */
 885:STM32F4xx_LIB/periph/src/stm32f4xx_cryp.c ****   if ((CRYP_FLAG & FLAG_MASK) != 0x00) 
 1226              		.loc 1 885 3 view .LVU421
 1227              		.loc 1 885 6 is_stmt 0 view .LVU422
 1228 0000 10F0200F 		tst	r0, #32
 1229 0004 05D0     		beq	.L68
 886:STM32F4xx_LIB/periph/src/stm32f4xx_cryp.c ****   {
 887:STM32F4xx_LIB/periph/src/stm32f4xx_cryp.c ****     tempreg = CRYP->RISR;
 1230              		.loc 1 887 5 is_stmt 1 view .LVU423
 1231              		.loc 1 887 13 is_stmt 0 view .LVU424
 1232 0006 054B     		ldr	r3, .L72
 1233 0008 9B69     		ldr	r3, [r3, #24]
 1234              	.LVL42:
 1235              	.L69:
 888:STM32F4xx_LIB/periph/src/stm32f4xx_cryp.c ****   }
 889:STM32F4xx_LIB/periph/src/stm32f4xx_cryp.c ****   else  /* The FLAG is in SR register */
 890:STM32F4xx_LIB/periph/src/stm32f4xx_cryp.c ****   {
 891:STM32F4xx_LIB/periph/src/stm32f4xx_cryp.c ****     tempreg = CRYP->SR;
 892:STM32F4xx_LIB/periph/src/stm32f4xx_cryp.c ****   }
 893:STM32F4xx_LIB/periph/src/stm32f4xx_cryp.c **** 
 894:STM32F4xx_LIB/periph/src/stm32f4xx_cryp.c **** 
 895:STM32F4xx_LIB/periph/src/stm32f4xx_cryp.c ****   /* Check the status of the specified CRYP flag */
 896:STM32F4xx_LIB/periph/src/stm32f4xx_cryp.c ****   if ((tempreg & CRYP_FLAG ) != (uint8_t)RESET)
 1236              		.loc 1 896 3 is_stmt 1 view .LVU425
 1237              		.loc 1 896 6 is_stmt 0 view .LVU426
 1238 000a 1842     		tst	r0, r3
 1239 000c 04D0     		beq	.L71
 897:STM32F4xx_LIB/periph/src/stm32f4xx_cryp.c ****   {
 898:STM32F4xx_LIB/periph/src/stm32f4xx_cryp.c ****     /* CRYP_FLAG is set */
 899:STM32F4xx_LIB/periph/src/stm32f4xx_cryp.c ****     bitstatus = SET;
 1240              		.loc 1 899 15 view .LVU427
 1241 000e 0120     		movs	r0, #1
 1242              	.LVL43:
 1243              		.loc 1 899 15 view .LVU428
 1244 0010 7047     		bx	lr
 1245              	.LVL44:
 1246              	.L68:
 891:STM32F4xx_LIB/periph/src/stm32f4xx_cryp.c ****   }
 1247              		.loc 1 891 5 is_stmt 1 view .LVU429
 891:STM32F4xx_LIB/periph/src/stm32f4xx_cryp.c ****   }
 1248              		.loc 1 891 13 is_stmt 0 view .LVU430
 1249 0012 024B     		ldr	r3, .L72
 1250 0014 5B68     		ldr	r3, [r3, #4]
 1251              	.LVL45:
 891:STM32F4xx_LIB/periph/src/stm32f4xx_cryp.c ****   }
 1252              		.loc 1 891 13 view .LVU431
 1253 0016 F8E7     		b	.L69
 1254              	.L71:
 900:STM32F4xx_LIB/periph/src/stm32f4xx_cryp.c ****   }
 901:STM32F4xx_LIB/periph/src/stm32f4xx_cryp.c ****   else
 902:STM32F4xx_LIB/periph/src/stm32f4xx_cryp.c ****   {
 903:STM32F4xx_LIB/periph/src/stm32f4xx_cryp.c ****     /* CRYP_FLAG is reset */
 904:STM32F4xx_LIB/periph/src/stm32f4xx_cryp.c ****     bitstatus = RESET;
 1255              		.loc 1 904 15 view .LVU432
ARM GAS  C:\Users\京垓\AppData\Local\Temp\ccFNyFDf.s 			page 40


 1256 0018 0020     		movs	r0, #0
 1257              	.LVL46:
 905:STM32F4xx_LIB/periph/src/stm32f4xx_cryp.c ****   }
 906:STM32F4xx_LIB/periph/src/stm32f4xx_cryp.c **** 
 907:STM32F4xx_LIB/periph/src/stm32f4xx_cryp.c ****   /* Return the CRYP_FLAG status */
 908:STM32F4xx_LIB/periph/src/stm32f4xx_cryp.c ****   return  bitstatus;
 1258              		.loc 1 908 3 is_stmt 1 view .LVU433
 909:STM32F4xx_LIB/periph/src/stm32f4xx_cryp.c **** }
 1259              		.loc 1 909 1 is_stmt 0 view .LVU434
 1260 001a 7047     		bx	lr
 1261              	.L73:
 1262              		.align	2
 1263              	.L72:
 1264 001c 00000650 		.word	1342570496
 1265              		.cfi_endproc
 1266              	.LFE141:
 1268              		.text
 1269              	.Letext0:
 1270              		.file 2 "d:\\gcc_tool\\gnu_tool_arm_embedded\\arm-none-eabi\\include\\machine\\_default_types.h"
 1271              		.file 3 "d:\\gcc_tool\\gnu_tool_arm_embedded\\arm-none-eabi\\include\\sys\\_stdint.h"
 1272              		.file 4 "STM32F4xx_LIB/core/core_cm4.h"
 1273              		.file 5 "User/system_stm32f4xx.h"
 1274              		.file 6 "User/stm32f4xx.h"
 1275              		.file 7 "STM32F4xx_LIB/periph/inc/stm32f4xx_cryp.h"
 1276              		.file 8 "STM32F4xx_LIB/periph/inc/stm32f4xx_rcc.h"
ARM GAS  C:\Users\京垓\AppData\Local\Temp\ccFNyFDf.s 			page 41

