ARM GAS  C:\Users\京垓\AppData\Local\Temp\ccBmAlt6.s 			page 1


   1              		.cpu cortex-m4
   2              		.eabi_attribute 27, 1
   3              		.eabi_attribute 28, 1
   4              		.eabi_attribute 20, 1
   5              		.eabi_attribute 21, 1
   6              		.eabi_attribute 23, 3
   7              		.eabi_attribute 24, 1
   8              		.eabi_attribute 25, 1
   9              		.eabi_attribute 26, 1
  10              		.eabi_attribute 30, 1
  11              		.eabi_attribute 34, 1
  12              		.eabi_attribute 18, 4
  13              		.file	"stm32f4xx_i2c.c"
  14              		.text
  15              	.Ltext0:
  16              		.cfi_sections	.debug_frame
  17              		.section	.text.I2C_DeInit,"ax",%progbits
  18              		.align	1
  19              		.global	I2C_DeInit
  20              		.arch armv7e-m
  21              		.syntax unified
  22              		.thumb
  23              		.thumb_func
  24              		.fpu fpv4-sp-d16
  26              	I2C_DeInit:
  27              	.LVL0:
  28              	.LFB123:
  29              		.file 1 "STM32F4xx_LIB/periph/src/stm32f4xx_i2c.c"
   1:STM32F4xx_LIB/periph/src/stm32f4xx_i2c.c **** /**
   2:STM32F4xx_LIB/periph/src/stm32f4xx_i2c.c ****   ******************************************************************************
   3:STM32F4xx_LIB/periph/src/stm32f4xx_i2c.c ****   * @file    stm32f4xx_i2c.c
   4:STM32F4xx_LIB/periph/src/stm32f4xx_i2c.c ****   * @author  MCD Application Team
   5:STM32F4xx_LIB/periph/src/stm32f4xx_i2c.c ****   * @version V1.8.1
   6:STM32F4xx_LIB/periph/src/stm32f4xx_i2c.c ****   * @date    27-January-2022
   7:STM32F4xx_LIB/periph/src/stm32f4xx_i2c.c ****   * @brief   This file provides firmware functions to manage the following 
   8:STM32F4xx_LIB/periph/src/stm32f4xx_i2c.c ****   *          functionalities of the Inter-integrated circuit (I2C)
   9:STM32F4xx_LIB/periph/src/stm32f4xx_i2c.c ****   *           + Initialization and Configuration
  10:STM32F4xx_LIB/periph/src/stm32f4xx_i2c.c ****   *           + Data transfers
  11:STM32F4xx_LIB/periph/src/stm32f4xx_i2c.c ****   *           + PEC management
  12:STM32F4xx_LIB/periph/src/stm32f4xx_i2c.c ****   *           + DMA transfers management
  13:STM32F4xx_LIB/periph/src/stm32f4xx_i2c.c ****   *           + Interrupts, events and flags management 
  14:STM32F4xx_LIB/periph/src/stm32f4xx_i2c.c ****   *           
  15:STM32F4xx_LIB/periph/src/stm32f4xx_i2c.c ****     @verbatim    
  16:STM32F4xx_LIB/periph/src/stm32f4xx_i2c.c ****  ===============================================================================
  17:STM32F4xx_LIB/periph/src/stm32f4xx_i2c.c ****                     ##### How to use this driver #####
  18:STM32F4xx_LIB/periph/src/stm32f4xx_i2c.c ****  ===============================================================================
  19:STM32F4xx_LIB/periph/src/stm32f4xx_i2c.c ****     [..]
  20:STM32F4xx_LIB/periph/src/stm32f4xx_i2c.c ****       (#) Enable peripheral clock using RCC_APB1PeriphClockCmd(RCC_APB1Periph_I2Cx, ENABLE)
  21:STM32F4xx_LIB/periph/src/stm32f4xx_i2c.c ****           function for I2C1, I2C2 or I2C3.
  22:STM32F4xx_LIB/periph/src/stm32f4xx_i2c.c ****   
  23:STM32F4xx_LIB/periph/src/stm32f4xx_i2c.c ****       (#) Enable SDA, SCL  and SMBA (when used) GPIO clocks using 
  24:STM32F4xx_LIB/periph/src/stm32f4xx_i2c.c ****           RCC_AHBPeriphClockCmd() function. 
  25:STM32F4xx_LIB/periph/src/stm32f4xx_i2c.c ****   
  26:STM32F4xx_LIB/periph/src/stm32f4xx_i2c.c ****       (#) Peripherals alternate function: 
  27:STM32F4xx_LIB/periph/src/stm32f4xx_i2c.c ****         (++) Connect the pin to the desired peripherals' Alternate 
  28:STM32F4xx_LIB/periph/src/stm32f4xx_i2c.c ****              Function (AF) using GPIO_PinAFConfig() function
  29:STM32F4xx_LIB/periph/src/stm32f4xx_i2c.c ****         (++) Configure the desired pin in alternate function by:
ARM GAS  C:\Users\京垓\AppData\Local\Temp\ccBmAlt6.s 			page 2


  30:STM32F4xx_LIB/periph/src/stm32f4xx_i2c.c ****              GPIO_InitStruct->GPIO_Mode = GPIO_Mode_AF
  31:STM32F4xx_LIB/periph/src/stm32f4xx_i2c.c ****         (++) Select the type, pull-up/pull-down and output speed via 
  32:STM32F4xx_LIB/periph/src/stm32f4xx_i2c.c ****              GPIO_PuPd, GPIO_OType and GPIO_Speed members
  33:STM32F4xx_LIB/periph/src/stm32f4xx_i2c.c ****         (++) Call GPIO_Init() function
  34:STM32F4xx_LIB/periph/src/stm32f4xx_i2c.c ****              Recommended configuration is Push-Pull, Pull-up, Open-Drain.
  35:STM32F4xx_LIB/periph/src/stm32f4xx_i2c.c ****              Add an external pull up if necessary (typically 4.7 KOhm).      
  36:STM32F4xx_LIB/periph/src/stm32f4xx_i2c.c ****           
  37:STM32F4xx_LIB/periph/src/stm32f4xx_i2c.c ****       (#) Program the Mode, duty cycle , Own address, Ack, Speed and Acknowledged
  38:STM32F4xx_LIB/periph/src/stm32f4xx_i2c.c ****           Address using the I2C_Init() function.
  39:STM32F4xx_LIB/periph/src/stm32f4xx_i2c.c ****   
  40:STM32F4xx_LIB/periph/src/stm32f4xx_i2c.c ****       (#) Optionally you can enable/configure the following parameters without
  41:STM32F4xx_LIB/periph/src/stm32f4xx_i2c.c ****           re-initialization (i.e there is no need to call again I2C_Init() function):
  42:STM32F4xx_LIB/periph/src/stm32f4xx_i2c.c ****         (++) Enable the acknowledge feature using I2C_AcknowledgeConfig() function
  43:STM32F4xx_LIB/periph/src/stm32f4xx_i2c.c ****         (++) Enable the dual addressing mode using I2C_DualAddressCmd() function
  44:STM32F4xx_LIB/periph/src/stm32f4xx_i2c.c ****         (++) Enable the general call using the I2C_GeneralCallCmd() function
  45:STM32F4xx_LIB/periph/src/stm32f4xx_i2c.c ****         (++) Enable the clock stretching using I2C_StretchClockCmd() function
  46:STM32F4xx_LIB/periph/src/stm32f4xx_i2c.c ****         (++) Enable the fast mode duty cycle using the I2C_FastModeDutyCycleConfig()
  47:STM32F4xx_LIB/periph/src/stm32f4xx_i2c.c ****              function.
  48:STM32F4xx_LIB/periph/src/stm32f4xx_i2c.c ****         (++) Configure the NACK position for Master Receiver mode in case of 
  49:STM32F4xx_LIB/periph/src/stm32f4xx_i2c.c ****              2 bytes reception using the function I2C_NACKPositionConfig().  
  50:STM32F4xx_LIB/periph/src/stm32f4xx_i2c.c ****         (++) Enable the PEC Calculation using I2C_CalculatePEC() function
  51:STM32F4xx_LIB/periph/src/stm32f4xx_i2c.c ****         (++) For SMBus Mode: 
  52:STM32F4xx_LIB/periph/src/stm32f4xx_i2c.c ****           (+++) Enable the Address Resolution Protocol (ARP) using I2C_ARPCmd() function
  53:STM32F4xx_LIB/periph/src/stm32f4xx_i2c.c ****           (+++) Configure the SMBusAlert pin using I2C_SMBusAlertConfig() function
  54:STM32F4xx_LIB/periph/src/stm32f4xx_i2c.c ****   
  55:STM32F4xx_LIB/periph/src/stm32f4xx_i2c.c ****       (#) Enable the NVIC and the corresponding interrupt using the function 
  56:STM32F4xx_LIB/periph/src/stm32f4xx_i2c.c ****           I2C_ITConfig() if you need to use interrupt mode. 
  57:STM32F4xx_LIB/periph/src/stm32f4xx_i2c.c ****   
  58:STM32F4xx_LIB/periph/src/stm32f4xx_i2c.c ****       (#) When using the DMA mode 
  59:STM32F4xx_LIB/periph/src/stm32f4xx_i2c.c ****         (++) Configure the DMA using DMA_Init() function
  60:STM32F4xx_LIB/periph/src/stm32f4xx_i2c.c ****         (++) Active the needed channel Request using I2C_DMACmd() or
  61:STM32F4xx_LIB/periph/src/stm32f4xx_i2c.c ****              I2C_DMALastTransferCmd() function.
  62:STM32F4xx_LIB/periph/src/stm32f4xx_i2c.c ****         -@@- When using DMA mode, I2C interrupts may be used at the same time to
  63:STM32F4xx_LIB/periph/src/stm32f4xx_i2c.c ****              control the communication flow (Start/Stop/Ack... events and errors).
  64:STM32F4xx_LIB/periph/src/stm32f4xx_i2c.c ****    
  65:STM32F4xx_LIB/periph/src/stm32f4xx_i2c.c ****       (#) Enable the I2C using the I2C_Cmd() function.
  66:STM32F4xx_LIB/periph/src/stm32f4xx_i2c.c ****    
  67:STM32F4xx_LIB/periph/src/stm32f4xx_i2c.c ****       (#) Enable the DMA using the DMA_Cmd() function when using DMA mode in the 
  68:STM32F4xx_LIB/periph/src/stm32f4xx_i2c.c ****           transfers. 
  69:STM32F4xx_LIB/periph/src/stm32f4xx_i2c.c ****   
  70:STM32F4xx_LIB/periph/src/stm32f4xx_i2c.c ****     @endverbatim  
  71:STM32F4xx_LIB/periph/src/stm32f4xx_i2c.c ****   ******************************************************************************
  72:STM32F4xx_LIB/periph/src/stm32f4xx_i2c.c ****   * @attention
  73:STM32F4xx_LIB/periph/src/stm32f4xx_i2c.c ****   *
  74:STM32F4xx_LIB/periph/src/stm32f4xx_i2c.c ****   * Copyright (c) 2016 STMicroelectronics.
  75:STM32F4xx_LIB/periph/src/stm32f4xx_i2c.c ****   * All rights reserved.
  76:STM32F4xx_LIB/periph/src/stm32f4xx_i2c.c ****   *
  77:STM32F4xx_LIB/periph/src/stm32f4xx_i2c.c ****   * This software is licensed under terms that can be found in the LICENSE file
  78:STM32F4xx_LIB/periph/src/stm32f4xx_i2c.c ****   * in the root directory of this software component.
  79:STM32F4xx_LIB/periph/src/stm32f4xx_i2c.c ****   * If no LICENSE file comes with this software, it is provided AS-IS.
  80:STM32F4xx_LIB/periph/src/stm32f4xx_i2c.c ****   *
  81:STM32F4xx_LIB/periph/src/stm32f4xx_i2c.c ****   ******************************************************************************
  82:STM32F4xx_LIB/periph/src/stm32f4xx_i2c.c ****   */
  83:STM32F4xx_LIB/periph/src/stm32f4xx_i2c.c **** 
  84:STM32F4xx_LIB/periph/src/stm32f4xx_i2c.c **** /* Includes ------------------------------------------------------------------*/
  85:STM32F4xx_LIB/periph/src/stm32f4xx_i2c.c **** #include "stm32f4xx_i2c.h"
  86:STM32F4xx_LIB/periph/src/stm32f4xx_i2c.c **** #include "stm32f4xx_rcc.h"
ARM GAS  C:\Users\京垓\AppData\Local\Temp\ccBmAlt6.s 			page 3


  87:STM32F4xx_LIB/periph/src/stm32f4xx_i2c.c **** 
  88:STM32F4xx_LIB/periph/src/stm32f4xx_i2c.c **** /** @addtogroup STM32F4xx_StdPeriph_Driver
  89:STM32F4xx_LIB/periph/src/stm32f4xx_i2c.c ****   * @{
  90:STM32F4xx_LIB/periph/src/stm32f4xx_i2c.c ****   */
  91:STM32F4xx_LIB/periph/src/stm32f4xx_i2c.c **** 
  92:STM32F4xx_LIB/periph/src/stm32f4xx_i2c.c **** /** @defgroup I2C 
  93:STM32F4xx_LIB/periph/src/stm32f4xx_i2c.c ****   * @brief I2C driver modules
  94:STM32F4xx_LIB/periph/src/stm32f4xx_i2c.c ****   * @{
  95:STM32F4xx_LIB/periph/src/stm32f4xx_i2c.c ****   */ 
  96:STM32F4xx_LIB/periph/src/stm32f4xx_i2c.c **** 
  97:STM32F4xx_LIB/periph/src/stm32f4xx_i2c.c **** /* Private typedef -----------------------------------------------------------*/
  98:STM32F4xx_LIB/periph/src/stm32f4xx_i2c.c **** /* Private define ------------------------------------------------------------*/
  99:STM32F4xx_LIB/periph/src/stm32f4xx_i2c.c **** 
 100:STM32F4xx_LIB/periph/src/stm32f4xx_i2c.c **** #define CR1_CLEAR_MASK    ((uint16_t)0xFBF5)      /*<! I2C registers Masks */
 101:STM32F4xx_LIB/periph/src/stm32f4xx_i2c.c **** #define FLAG_MASK         ((uint32_t)0x00FFFFFF)  /*<! I2C FLAG mask */
 102:STM32F4xx_LIB/periph/src/stm32f4xx_i2c.c **** #define ITEN_MASK         ((uint32_t)0x07000000)  /*<! I2C Interrupt Enable mask */
 103:STM32F4xx_LIB/periph/src/stm32f4xx_i2c.c **** 
 104:STM32F4xx_LIB/periph/src/stm32f4xx_i2c.c **** /* Private macro -------------------------------------------------------------*/
 105:STM32F4xx_LIB/periph/src/stm32f4xx_i2c.c **** /* Private variables ---------------------------------------------------------*/
 106:STM32F4xx_LIB/periph/src/stm32f4xx_i2c.c **** /* Private function prototypes -----------------------------------------------*/
 107:STM32F4xx_LIB/periph/src/stm32f4xx_i2c.c **** /* Private functions ---------------------------------------------------------*/
 108:STM32F4xx_LIB/periph/src/stm32f4xx_i2c.c **** 
 109:STM32F4xx_LIB/periph/src/stm32f4xx_i2c.c **** /** @defgroup I2C_Private_Functions
 110:STM32F4xx_LIB/periph/src/stm32f4xx_i2c.c ****   * @{
 111:STM32F4xx_LIB/periph/src/stm32f4xx_i2c.c ****   */
 112:STM32F4xx_LIB/periph/src/stm32f4xx_i2c.c **** 
 113:STM32F4xx_LIB/periph/src/stm32f4xx_i2c.c **** /** @defgroup I2C_Group1 Initialization and Configuration functions
 114:STM32F4xx_LIB/periph/src/stm32f4xx_i2c.c ****  *  @brief   Initialization and Configuration functions 
 115:STM32F4xx_LIB/periph/src/stm32f4xx_i2c.c ****  *
 116:STM32F4xx_LIB/periph/src/stm32f4xx_i2c.c **** @verbatim   
 117:STM32F4xx_LIB/periph/src/stm32f4xx_i2c.c ****  ===============================================================================
 118:STM32F4xx_LIB/periph/src/stm32f4xx_i2c.c ****             ##### Initialization and Configuration functions #####
 119:STM32F4xx_LIB/periph/src/stm32f4xx_i2c.c ****  ===============================================================================  
 120:STM32F4xx_LIB/periph/src/stm32f4xx_i2c.c **** 
 121:STM32F4xx_LIB/periph/src/stm32f4xx_i2c.c **** @endverbatim
 122:STM32F4xx_LIB/periph/src/stm32f4xx_i2c.c ****   * @{
 123:STM32F4xx_LIB/periph/src/stm32f4xx_i2c.c ****   */
 124:STM32F4xx_LIB/periph/src/stm32f4xx_i2c.c **** 
 125:STM32F4xx_LIB/periph/src/stm32f4xx_i2c.c **** /**
 126:STM32F4xx_LIB/periph/src/stm32f4xx_i2c.c ****   * @brief  Deinitialize the I2Cx peripheral registers to their default reset values.
 127:STM32F4xx_LIB/periph/src/stm32f4xx_i2c.c ****   * @param  I2Cx: where x can be 1, 2 or 3 to select the I2C peripheral.
 128:STM32F4xx_LIB/periph/src/stm32f4xx_i2c.c ****   * @retval None
 129:STM32F4xx_LIB/periph/src/stm32f4xx_i2c.c ****   */
 130:STM32F4xx_LIB/periph/src/stm32f4xx_i2c.c **** void I2C_DeInit(I2C_TypeDef* I2Cx)
 131:STM32F4xx_LIB/periph/src/stm32f4xx_i2c.c **** {
  30              		.loc 1 131 1 view -0
  31              		.cfi_startproc
  32              		@ args = 0, pretend = 0, frame = 0
  33              		@ frame_needed = 0, uses_anonymous_args = 0
  34              		.loc 1 131 1 is_stmt 0 view .LVU1
  35 0000 08B5     		push	{r3, lr}
  36              	.LCFI0:
  37              		.cfi_def_cfa_offset 8
  38              		.cfi_offset 3, -8
  39              		.cfi_offset 14, -4
 132:STM32F4xx_LIB/periph/src/stm32f4xx_i2c.c ****   /* Check the parameters */
 133:STM32F4xx_LIB/periph/src/stm32f4xx_i2c.c ****   assert_param(IS_I2C_ALL_PERIPH(I2Cx));
ARM GAS  C:\Users\京垓\AppData\Local\Temp\ccBmAlt6.s 			page 4


  40              		.loc 1 133 3 is_stmt 1 view .LVU2
 134:STM32F4xx_LIB/periph/src/stm32f4xx_i2c.c **** 
 135:STM32F4xx_LIB/periph/src/stm32f4xx_i2c.c ****   if (I2Cx == I2C1)
  41              		.loc 1 135 3 view .LVU3
  42              		.loc 1 135 6 is_stmt 0 view .LVU4
  43 0002 154B     		ldr	r3, .L9
  44 0004 9842     		cmp	r0, r3
  45 0006 06D0     		beq	.L6
 136:STM32F4xx_LIB/periph/src/stm32f4xx_i2c.c ****   {
 137:STM32F4xx_LIB/periph/src/stm32f4xx_i2c.c ****     /* Enable I2C1 reset state */
 138:STM32F4xx_LIB/periph/src/stm32f4xx_i2c.c ****     RCC_APB1PeriphResetCmd(RCC_APB1Periph_I2C1, ENABLE);
 139:STM32F4xx_LIB/periph/src/stm32f4xx_i2c.c ****     /* Release I2C1 from reset state */
 140:STM32F4xx_LIB/periph/src/stm32f4xx_i2c.c ****     RCC_APB1PeriphResetCmd(RCC_APB1Periph_I2C1, DISABLE);    
 141:STM32F4xx_LIB/periph/src/stm32f4xx_i2c.c ****   }
 142:STM32F4xx_LIB/periph/src/stm32f4xx_i2c.c ****   else if (I2Cx == I2C2)
  46              		.loc 1 142 8 is_stmt 1 view .LVU5
  47              		.loc 1 142 11 is_stmt 0 view .LVU6
  48 0008 144B     		ldr	r3, .L9+4
  49 000a 9842     		cmp	r0, r3
  50 000c 0ED0     		beq	.L7
 143:STM32F4xx_LIB/periph/src/stm32f4xx_i2c.c ****   {
 144:STM32F4xx_LIB/periph/src/stm32f4xx_i2c.c ****     /* Enable I2C2 reset state */
 145:STM32F4xx_LIB/periph/src/stm32f4xx_i2c.c ****     RCC_APB1PeriphResetCmd(RCC_APB1Periph_I2C2, ENABLE);
 146:STM32F4xx_LIB/periph/src/stm32f4xx_i2c.c ****     /* Release I2C2 from reset state */
 147:STM32F4xx_LIB/periph/src/stm32f4xx_i2c.c ****     RCC_APB1PeriphResetCmd(RCC_APB1Periph_I2C2, DISABLE);      
 148:STM32F4xx_LIB/periph/src/stm32f4xx_i2c.c ****   }
 149:STM32F4xx_LIB/periph/src/stm32f4xx_i2c.c ****   else 
 150:STM32F4xx_LIB/periph/src/stm32f4xx_i2c.c ****   {
 151:STM32F4xx_LIB/periph/src/stm32f4xx_i2c.c ****     if (I2Cx == I2C3)
  51              		.loc 1 151 5 is_stmt 1 view .LVU7
  52              		.loc 1 151 8 is_stmt 0 view .LVU8
  53 000e 144B     		ldr	r3, .L9+8
  54 0010 9842     		cmp	r0, r3
  55 0012 16D0     		beq	.L8
  56              	.LVL1:
  57              	.L1:
 152:STM32F4xx_LIB/periph/src/stm32f4xx_i2c.c ****     {
 153:STM32F4xx_LIB/periph/src/stm32f4xx_i2c.c ****       /* Enable I2C3 reset state */
 154:STM32F4xx_LIB/periph/src/stm32f4xx_i2c.c ****       RCC_APB1PeriphResetCmd(RCC_APB1Periph_I2C3, ENABLE);
 155:STM32F4xx_LIB/periph/src/stm32f4xx_i2c.c ****       /* Release I2C3 from reset state */
 156:STM32F4xx_LIB/periph/src/stm32f4xx_i2c.c ****       RCC_APB1PeriphResetCmd(RCC_APB1Periph_I2C3, DISABLE);     
 157:STM32F4xx_LIB/periph/src/stm32f4xx_i2c.c ****     }
 158:STM32F4xx_LIB/periph/src/stm32f4xx_i2c.c ****   }
 159:STM32F4xx_LIB/periph/src/stm32f4xx_i2c.c **** }
  58              		.loc 1 159 1 view .LVU9
  59 0014 08BD     		pop	{r3, pc}
  60              	.LVL2:
  61              	.L6:
 138:STM32F4xx_LIB/periph/src/stm32f4xx_i2c.c ****     /* Release I2C1 from reset state */
  62              		.loc 1 138 5 is_stmt 1 view .LVU10
  63 0016 0121     		movs	r1, #1
  64 0018 4FF40010 		mov	r0, #2097152
  65              	.LVL3:
 138:STM32F4xx_LIB/periph/src/stm32f4xx_i2c.c ****     /* Release I2C1 from reset state */
  66              		.loc 1 138 5 is_stmt 0 view .LVU11
  67 001c FFF7FEFF 		bl	RCC_APB1PeriphResetCmd
  68              	.LVL4:
ARM GAS  C:\Users\京垓\AppData\Local\Temp\ccBmAlt6.s 			page 5


 140:STM32F4xx_LIB/periph/src/stm32f4xx_i2c.c ****   }
  69              		.loc 1 140 5 is_stmt 1 view .LVU12
  70 0020 0021     		movs	r1, #0
  71 0022 4FF40010 		mov	r0, #2097152
  72 0026 FFF7FEFF 		bl	RCC_APB1PeriphResetCmd
  73              	.LVL5:
  74 002a F3E7     		b	.L1
  75              	.LVL6:
  76              	.L7:
 145:STM32F4xx_LIB/periph/src/stm32f4xx_i2c.c ****     /* Release I2C2 from reset state */
  77              		.loc 1 145 5 view .LVU13
  78 002c 0121     		movs	r1, #1
  79 002e 4FF48000 		mov	r0, #4194304
  80              	.LVL7:
 145:STM32F4xx_LIB/periph/src/stm32f4xx_i2c.c ****     /* Release I2C2 from reset state */
  81              		.loc 1 145 5 is_stmt 0 view .LVU14
  82 0032 FFF7FEFF 		bl	RCC_APB1PeriphResetCmd
  83              	.LVL8:
 147:STM32F4xx_LIB/periph/src/stm32f4xx_i2c.c ****   }
  84              		.loc 1 147 5 is_stmt 1 view .LVU15
  85 0036 0021     		movs	r1, #0
  86 0038 4FF48000 		mov	r0, #4194304
  87 003c FFF7FEFF 		bl	RCC_APB1PeriphResetCmd
  88              	.LVL9:
  89 0040 E8E7     		b	.L1
  90              	.LVL10:
  91              	.L8:
 154:STM32F4xx_LIB/periph/src/stm32f4xx_i2c.c ****       /* Release I2C3 from reset state */
  92              		.loc 1 154 7 view .LVU16
  93 0042 0121     		movs	r1, #1
  94 0044 4FF40000 		mov	r0, #8388608
  95              	.LVL11:
 154:STM32F4xx_LIB/periph/src/stm32f4xx_i2c.c ****       /* Release I2C3 from reset state */
  96              		.loc 1 154 7 is_stmt 0 view .LVU17
  97 0048 FFF7FEFF 		bl	RCC_APB1PeriphResetCmd
  98              	.LVL12:
 156:STM32F4xx_LIB/periph/src/stm32f4xx_i2c.c ****     }
  99              		.loc 1 156 7 is_stmt 1 view .LVU18
 100 004c 0021     		movs	r1, #0
 101 004e 4FF40000 		mov	r0, #8388608
 102 0052 FFF7FEFF 		bl	RCC_APB1PeriphResetCmd
 103              	.LVL13:
 104              		.loc 1 159 1 is_stmt 0 view .LVU19
 105 0056 DDE7     		b	.L1
 106              	.L10:
 107              		.align	2
 108              	.L9:
 109 0058 00540040 		.word	1073763328
 110 005c 00580040 		.word	1073764352
 111 0060 005C0040 		.word	1073765376
 112              		.cfi_endproc
 113              	.LFE123:
 115              		.section	.text.I2C_Init,"ax",%progbits
 116              		.align	1
 117              		.global	I2C_Init
 118              		.syntax unified
 119              		.thumb
ARM GAS  C:\Users\京垓\AppData\Local\Temp\ccBmAlt6.s 			page 6


 120              		.thumb_func
 121              		.fpu fpv4-sp-d16
 123              	I2C_Init:
 124              	.LVL14:
 125              	.LFB124:
 160:STM32F4xx_LIB/periph/src/stm32f4xx_i2c.c **** 
 161:STM32F4xx_LIB/periph/src/stm32f4xx_i2c.c **** /**
 162:STM32F4xx_LIB/periph/src/stm32f4xx_i2c.c ****   * @brief  Initializes the I2Cx peripheral according to the specified 
 163:STM32F4xx_LIB/periph/src/stm32f4xx_i2c.c ****   *         parameters in the I2C_InitStruct.
 164:STM32F4xx_LIB/periph/src/stm32f4xx_i2c.c ****   *           
 165:STM32F4xx_LIB/periph/src/stm32f4xx_i2c.c ****   * @note   To use the I2C at 400 KHz (in fast mode), the PCLK1 frequency 
 166:STM32F4xx_LIB/periph/src/stm32f4xx_i2c.c ****   *         (I2C peripheral input clock) must be a multiple of 10 MHz.  
 167:STM32F4xx_LIB/periph/src/stm32f4xx_i2c.c ****   *           
 168:STM32F4xx_LIB/periph/src/stm32f4xx_i2c.c ****   * @param  I2Cx: where x can be 1, 2 or 3 to select the I2C peripheral.
 169:STM32F4xx_LIB/periph/src/stm32f4xx_i2c.c ****   * @param  I2C_InitStruct: pointer to a I2C_InitTypeDef structure that contains 
 170:STM32F4xx_LIB/periph/src/stm32f4xx_i2c.c ****   *         the configuration information for the specified I2C peripheral.
 171:STM32F4xx_LIB/periph/src/stm32f4xx_i2c.c ****   * @retval None
 172:STM32F4xx_LIB/periph/src/stm32f4xx_i2c.c ****   */
 173:STM32F4xx_LIB/periph/src/stm32f4xx_i2c.c **** void I2C_Init(I2C_TypeDef* I2Cx, I2C_InitTypeDef* I2C_InitStruct)
 174:STM32F4xx_LIB/periph/src/stm32f4xx_i2c.c **** {
 126              		.loc 1 174 1 is_stmt 1 view -0
 127              		.cfi_startproc
 128              		@ args = 0, pretend = 0, frame = 16
 129              		@ frame_needed = 0, uses_anonymous_args = 0
 130              		.loc 1 174 1 is_stmt 0 view .LVU21
 131 0000 F0B5     		push	{r4, r5, r6, r7, lr}
 132              	.LCFI1:
 133              		.cfi_def_cfa_offset 20
 134              		.cfi_offset 4, -20
 135              		.cfi_offset 5, -16
 136              		.cfi_offset 6, -12
 137              		.cfi_offset 7, -8
 138              		.cfi_offset 14, -4
 139 0002 85B0     		sub	sp, sp, #20
 140              	.LCFI2:
 141              		.cfi_def_cfa_offset 40
 142 0004 0446     		mov	r4, r0
 143 0006 0D46     		mov	r5, r1
 175:STM32F4xx_LIB/periph/src/stm32f4xx_i2c.c ****   uint16_t tmpreg = 0, freqrange = 0;
 144              		.loc 1 175 3 is_stmt 1 view .LVU22
 145              	.LVL15:
 176:STM32F4xx_LIB/periph/src/stm32f4xx_i2c.c ****   uint16_t result = 0x04;
 146              		.loc 1 176 3 view .LVU23
 177:STM32F4xx_LIB/periph/src/stm32f4xx_i2c.c ****   uint32_t pclk1 = 8000000;
 147              		.loc 1 177 3 view .LVU24
 178:STM32F4xx_LIB/periph/src/stm32f4xx_i2c.c ****   RCC_ClocksTypeDef  rcc_clocks;
 148              		.loc 1 178 3 view .LVU25
 179:STM32F4xx_LIB/periph/src/stm32f4xx_i2c.c ****   /* Check the parameters */
 180:STM32F4xx_LIB/periph/src/stm32f4xx_i2c.c ****   assert_param(IS_I2C_ALL_PERIPH(I2Cx));
 149              		.loc 1 180 3 view .LVU26
 181:STM32F4xx_LIB/periph/src/stm32f4xx_i2c.c ****   assert_param(IS_I2C_CLOCK_SPEED(I2C_InitStruct->I2C_ClockSpeed));
 150              		.loc 1 181 3 view .LVU27
 182:STM32F4xx_LIB/periph/src/stm32f4xx_i2c.c ****   assert_param(IS_I2C_MODE(I2C_InitStruct->I2C_Mode));
 151              		.loc 1 182 3 view .LVU28
 183:STM32F4xx_LIB/periph/src/stm32f4xx_i2c.c ****   assert_param(IS_I2C_DUTY_CYCLE(I2C_InitStruct->I2C_DutyCycle));
 152              		.loc 1 183 3 view .LVU29
 184:STM32F4xx_LIB/periph/src/stm32f4xx_i2c.c ****   assert_param(IS_I2C_OWN_ADDRESS1(I2C_InitStruct->I2C_OwnAddress1));
ARM GAS  C:\Users\京垓\AppData\Local\Temp\ccBmAlt6.s 			page 7


 153              		.loc 1 184 3 view .LVU30
 185:STM32F4xx_LIB/periph/src/stm32f4xx_i2c.c ****   assert_param(IS_I2C_ACK_STATE(I2C_InitStruct->I2C_Ack));
 154              		.loc 1 185 3 view .LVU31
 186:STM32F4xx_LIB/periph/src/stm32f4xx_i2c.c ****   assert_param(IS_I2C_ACKNOWLEDGE_ADDRESS(I2C_InitStruct->I2C_AcknowledgedAddress));
 155              		.loc 1 186 3 view .LVU32
 187:STM32F4xx_LIB/periph/src/stm32f4xx_i2c.c **** 
 188:STM32F4xx_LIB/periph/src/stm32f4xx_i2c.c **** /*---------------------------- I2Cx CR2 Configuration ------------------------*/
 189:STM32F4xx_LIB/periph/src/stm32f4xx_i2c.c ****   /* Get the I2Cx CR2 value */
 190:STM32F4xx_LIB/periph/src/stm32f4xx_i2c.c ****   tmpreg = I2Cx->CR2;
 156              		.loc 1 190 3 view .LVU33
 157              		.loc 1 190 10 is_stmt 0 view .LVU34
 158 0008 8688     		ldrh	r6, [r0, #4]
 159 000a B6B2     		uxth	r6, r6
 160              	.LVL16:
 191:STM32F4xx_LIB/periph/src/stm32f4xx_i2c.c ****   /* Clear frequency FREQ[5:0] bits */
 192:STM32F4xx_LIB/periph/src/stm32f4xx_i2c.c ****   tmpreg &= (uint16_t)~((uint16_t)I2C_CR2_FREQ);
 161              		.loc 1 192 3 is_stmt 1 view .LVU35
 162              		.loc 1 192 10 is_stmt 0 view .LVU36
 163 000c 26F03F06 		bic	r6, r6, #63
 164              	.LVL17:
 165              		.loc 1 192 10 view .LVU37
 166 0010 B6B2     		uxth	r6, r6
 167              	.LVL18:
 193:STM32F4xx_LIB/periph/src/stm32f4xx_i2c.c ****   /* Get pclk1 frequency value */
 194:STM32F4xx_LIB/periph/src/stm32f4xx_i2c.c ****   RCC_GetClocksFreq(&rcc_clocks);
 168              		.loc 1 194 3 is_stmt 1 view .LVU38
 169 0012 6846     		mov	r0, sp
 170              	.LVL19:
 171              		.loc 1 194 3 is_stmt 0 view .LVU39
 172 0014 FFF7FEFF 		bl	RCC_GetClocksFreq
 173              	.LVL20:
 195:STM32F4xx_LIB/periph/src/stm32f4xx_i2c.c ****   pclk1 = rcc_clocks.PCLK1_Frequency;
 174              		.loc 1 195 3 is_stmt 1 view .LVU40
 175              		.loc 1 195 9 is_stmt 0 view .LVU41
 176 0018 0298     		ldr	r0, [sp, #8]
 177              	.LVL21:
 196:STM32F4xx_LIB/periph/src/stm32f4xx_i2c.c ****   /* Set frequency bits depending on pclk1 value */
 197:STM32F4xx_LIB/periph/src/stm32f4xx_i2c.c ****   freqrange = (uint16_t)(pclk1 / 1000000);
 178              		.loc 1 197 3 is_stmt 1 view .LVU42
 179              		.loc 1 197 32 is_stmt 0 view .LVU43
 180 001a 2C4B     		ldr	r3, .L21
 181 001c A3FB0023 		umull	r2, r3, r3, r0
 182 0020 990C     		lsrs	r1, r3, #18
 183              	.LVL22:
 198:STM32F4xx_LIB/periph/src/stm32f4xx_i2c.c ****   tmpreg |= freqrange;
 184              		.loc 1 198 3 is_stmt 1 view .LVU44
 185              		.loc 1 198 10 is_stmt 0 view .LVU45
 186 0022 46EA9346 		orr	r6, r6, r3, lsr #18
 187              	.LVL23:
 199:STM32F4xx_LIB/periph/src/stm32f4xx_i2c.c ****   /* Write to I2Cx CR2 */
 200:STM32F4xx_LIB/periph/src/stm32f4xx_i2c.c ****   I2Cx->CR2 = tmpreg;
 188              		.loc 1 200 3 is_stmt 1 view .LVU46
 189              		.loc 1 200 13 is_stmt 0 view .LVU47
 190 0026 A680     		strh	r6, [r4, #4]	@ movhi
 201:STM32F4xx_LIB/periph/src/stm32f4xx_i2c.c **** 
 202:STM32F4xx_LIB/periph/src/stm32f4xx_i2c.c **** /*---------------------------- I2Cx CCR Configuration ------------------------*/
 203:STM32F4xx_LIB/periph/src/stm32f4xx_i2c.c ****   /* Disable the selected I2C peripheral to configure TRISE */
ARM GAS  C:\Users\京垓\AppData\Local\Temp\ccBmAlt6.s 			page 8


 204:STM32F4xx_LIB/periph/src/stm32f4xx_i2c.c ****   I2Cx->CR1 &= (uint16_t)~((uint16_t)I2C_CR1_PE);
 191              		.loc 1 204 3 is_stmt 1 view .LVU48
 192              		.loc 1 204 13 is_stmt 0 view .LVU49
 193 0028 2288     		ldrh	r2, [r4]
 194 002a 92B2     		uxth	r2, r2
 195 002c 22F00102 		bic	r2, r2, #1
 196 0030 92B2     		uxth	r2, r2
 197 0032 2280     		strh	r2, [r4]	@ movhi
 205:STM32F4xx_LIB/periph/src/stm32f4xx_i2c.c ****   /* Reset tmpreg value */
 206:STM32F4xx_LIB/periph/src/stm32f4xx_i2c.c ****   /* Clear F/S, DUTY and CCR[11:0] bits */
 207:STM32F4xx_LIB/periph/src/stm32f4xx_i2c.c ****   tmpreg = 0;
 198              		.loc 1 207 3 is_stmt 1 view .LVU50
 199              	.LVL24:
 208:STM32F4xx_LIB/periph/src/stm32f4xx_i2c.c **** 
 209:STM32F4xx_LIB/periph/src/stm32f4xx_i2c.c ****   /* Configure speed in standard mode */
 210:STM32F4xx_LIB/periph/src/stm32f4xx_i2c.c ****   if (I2C_InitStruct->I2C_ClockSpeed <= 100000)
 200              		.loc 1 210 3 view .LVU51
 201              		.loc 1 210 21 is_stmt 0 view .LVU52
 202 0034 2B68     		ldr	r3, [r5]
 203              		.loc 1 210 6 view .LVU53
 204 0036 264A     		ldr	r2, .L21+4
 205 0038 9342     		cmp	r3, r2
 206 003a 20D8     		bhi	.L12
 207 003c 0F46     		mov	r7, r1
 211:STM32F4xx_LIB/periph/src/stm32f4xx_i2c.c ****   {
 212:STM32F4xx_LIB/periph/src/stm32f4xx_i2c.c ****     /* Standard mode speed calculate */
 213:STM32F4xx_LIB/periph/src/stm32f4xx_i2c.c ****     result = (uint16_t)(pclk1 / (I2C_InitStruct->I2C_ClockSpeed << 1));
 208              		.loc 1 213 5 is_stmt 1 view .LVU54
 209              		.loc 1 213 65 is_stmt 0 view .LVU55
 210 003e 5B00     		lsls	r3, r3, #1
 211              		.loc 1 213 31 view .LVU56
 212 0040 B0FBF3F3 		udiv	r3, r0, r3
 213              		.loc 1 213 12 view .LVU57
 214 0044 9BB2     		uxth	r3, r3
 215              	.LVL25:
 214:STM32F4xx_LIB/periph/src/stm32f4xx_i2c.c ****     /* Test if CCR value is under 0x4*/
 215:STM32F4xx_LIB/periph/src/stm32f4xx_i2c.c ****     if (result < 0x04)
 216              		.loc 1 215 5 is_stmt 1 view .LVU58
 217              		.loc 1 215 8 is_stmt 0 view .LVU59
 218 0046 032B     		cmp	r3, #3
 219 0048 00D8     		bhi	.L13
 216:STM32F4xx_LIB/periph/src/stm32f4xx_i2c.c ****     {
 217:STM32F4xx_LIB/periph/src/stm32f4xx_i2c.c ****       /* Set minimum allowed value */
 218:STM32F4xx_LIB/periph/src/stm32f4xx_i2c.c ****       result = 0x04;  
 220              		.loc 1 218 14 view .LVU60
 221 004a 0423     		movs	r3, #4
 222              	.LVL26:
 223              	.L13:
 219:STM32F4xx_LIB/periph/src/stm32f4xx_i2c.c ****     }
 220:STM32F4xx_LIB/periph/src/stm32f4xx_i2c.c ****     /* Set speed value for standard mode */
 221:STM32F4xx_LIB/periph/src/stm32f4xx_i2c.c ****     tmpreg |= result;	  
 224              		.loc 1 221 5 is_stmt 1 view .LVU61
 222:STM32F4xx_LIB/periph/src/stm32f4xx_i2c.c ****     /* Set Maximum Rise Time for standard mode */
 223:STM32F4xx_LIB/periph/src/stm32f4xx_i2c.c ****     I2Cx->TRISE = freqrange + 1; 
 225              		.loc 1 223 5 view .LVU62
 226              		.loc 1 223 29 is_stmt 0 view .LVU63
 227 004c 0137     		adds	r7, r7, #1
ARM GAS  C:\Users\京垓\AppData\Local\Temp\ccBmAlt6.s 			page 9


 228              		.loc 1 223 17 view .LVU64
 229 004e 2784     		strh	r7, [r4, #32]	@ movhi
 230              	.LVL27:
 231              	.L14:
 224:STM32F4xx_LIB/periph/src/stm32f4xx_i2c.c ****   }
 225:STM32F4xx_LIB/periph/src/stm32f4xx_i2c.c ****   /* Configure speed in fast mode */
 226:STM32F4xx_LIB/periph/src/stm32f4xx_i2c.c ****   /* To use the I2C at 400 KHz (in fast mode), the PCLK1 frequency (I2C peripheral
 227:STM32F4xx_LIB/periph/src/stm32f4xx_i2c.c ****      input clock) must be a multiple of 10 MHz */
 228:STM32F4xx_LIB/periph/src/stm32f4xx_i2c.c ****   else /*(I2C_InitStruct->I2C_ClockSpeed <= 400000)*/
 229:STM32F4xx_LIB/periph/src/stm32f4xx_i2c.c ****   {
 230:STM32F4xx_LIB/periph/src/stm32f4xx_i2c.c ****     if (I2C_InitStruct->I2C_DutyCycle == I2C_DutyCycle_2)
 231:STM32F4xx_LIB/periph/src/stm32f4xx_i2c.c ****     {
 232:STM32F4xx_LIB/periph/src/stm32f4xx_i2c.c ****       /* Fast mode speed calculate: Tlow/Thigh = 2 */
 233:STM32F4xx_LIB/periph/src/stm32f4xx_i2c.c ****       result = (uint16_t)(pclk1 / (I2C_InitStruct->I2C_ClockSpeed * 3));
 234:STM32F4xx_LIB/periph/src/stm32f4xx_i2c.c ****     }
 235:STM32F4xx_LIB/periph/src/stm32f4xx_i2c.c ****     else /*I2C_InitStruct->I2C_DutyCycle == I2C_DutyCycle_16_9*/
 236:STM32F4xx_LIB/periph/src/stm32f4xx_i2c.c ****     {
 237:STM32F4xx_LIB/periph/src/stm32f4xx_i2c.c ****       /* Fast mode speed calculate: Tlow/Thigh = 16/9 */
 238:STM32F4xx_LIB/periph/src/stm32f4xx_i2c.c ****       result = (uint16_t)(pclk1 / (I2C_InitStruct->I2C_ClockSpeed * 25));
 239:STM32F4xx_LIB/periph/src/stm32f4xx_i2c.c ****       /* Set DUTY bit */
 240:STM32F4xx_LIB/periph/src/stm32f4xx_i2c.c ****       result |= I2C_DutyCycle_16_9;
 241:STM32F4xx_LIB/periph/src/stm32f4xx_i2c.c ****     }
 242:STM32F4xx_LIB/periph/src/stm32f4xx_i2c.c **** 
 243:STM32F4xx_LIB/periph/src/stm32f4xx_i2c.c ****     /* Test if CCR value is under 0x1*/
 244:STM32F4xx_LIB/periph/src/stm32f4xx_i2c.c ****     if ((result & I2C_CCR_CCR) == 0)
 245:STM32F4xx_LIB/periph/src/stm32f4xx_i2c.c ****     {
 246:STM32F4xx_LIB/periph/src/stm32f4xx_i2c.c ****       /* Set minimum allowed value */
 247:STM32F4xx_LIB/periph/src/stm32f4xx_i2c.c ****       result |= (uint16_t)0x0001;  
 248:STM32F4xx_LIB/periph/src/stm32f4xx_i2c.c ****     }
 249:STM32F4xx_LIB/periph/src/stm32f4xx_i2c.c ****     /* Set speed value and set F/S bit for fast mode */
 250:STM32F4xx_LIB/periph/src/stm32f4xx_i2c.c ****     tmpreg |= (uint16_t)(result | I2C_CCR_FS);
 251:STM32F4xx_LIB/periph/src/stm32f4xx_i2c.c ****     /* Set Maximum Rise Time for fast mode */
 252:STM32F4xx_LIB/periph/src/stm32f4xx_i2c.c ****     I2Cx->TRISE = (uint16_t)(((freqrange * (uint16_t)300) / (uint16_t)1000) + (uint16_t)1);  
 253:STM32F4xx_LIB/periph/src/stm32f4xx_i2c.c ****   }
 254:STM32F4xx_LIB/periph/src/stm32f4xx_i2c.c **** 
 255:STM32F4xx_LIB/periph/src/stm32f4xx_i2c.c ****   /* Write to I2Cx CCR */
 256:STM32F4xx_LIB/periph/src/stm32f4xx_i2c.c ****   I2Cx->CCR = tmpreg;
 232              		.loc 1 256 3 is_stmt 1 view .LVU65
 233              		.loc 1 256 13 is_stmt 0 view .LVU66
 234 0050 A383     		strh	r3, [r4, #28]	@ movhi
 257:STM32F4xx_LIB/periph/src/stm32f4xx_i2c.c ****   /* Enable the selected I2C peripheral */
 258:STM32F4xx_LIB/periph/src/stm32f4xx_i2c.c ****   I2Cx->CR1 |= I2C_CR1_PE;
 235              		.loc 1 258 3 is_stmt 1 view .LVU67
 236              		.loc 1 258 13 is_stmt 0 view .LVU68
 237 0052 2388     		ldrh	r3, [r4]
 238              	.LVL28:
 239              		.loc 1 258 13 view .LVU69
 240 0054 9BB2     		uxth	r3, r3
 241 0056 43F00103 		orr	r3, r3, #1
 242 005a 2380     		strh	r3, [r4]	@ movhi
 243              	.LVL29:
 259:STM32F4xx_LIB/periph/src/stm32f4xx_i2c.c **** 
 260:STM32F4xx_LIB/periph/src/stm32f4xx_i2c.c **** /*---------------------------- I2Cx CR1 Configuration ------------------------*/
 261:STM32F4xx_LIB/periph/src/stm32f4xx_i2c.c ****   /* Get the I2Cx CR1 value */
 262:STM32F4xx_LIB/periph/src/stm32f4xx_i2c.c ****   tmpreg = I2Cx->CR1;
 244              		.loc 1 262 3 is_stmt 1 view .LVU70
 245              		.loc 1 262 10 is_stmt 0 view .LVU71
ARM GAS  C:\Users\京垓\AppData\Local\Temp\ccBmAlt6.s 			page 10


 246 005c 2388     		ldrh	r3, [r4]
 247 005e 9BB2     		uxth	r3, r3
 248              	.LVL30:
 263:STM32F4xx_LIB/periph/src/stm32f4xx_i2c.c ****   /* Clear ACK, SMBTYPE and  SMBUS bits */
 264:STM32F4xx_LIB/periph/src/stm32f4xx_i2c.c ****   tmpreg &= CR1_CLEAR_MASK;
 249              		.loc 1 264 3 is_stmt 1 view .LVU72
 250              		.loc 1 264 10 is_stmt 0 view .LVU73
 251 0060 23F48163 		bic	r3, r3, #1032
 252              	.LVL31:
 253              		.loc 1 264 10 view .LVU74
 254 0064 23F00203 		bic	r3, r3, #2
 255              	.LVL32:
 265:STM32F4xx_LIB/periph/src/stm32f4xx_i2c.c ****   /* Configure I2Cx: mode and acknowledgement */
 266:STM32F4xx_LIB/periph/src/stm32f4xx_i2c.c ****   /* Set SMBTYPE and SMBUS bits according to I2C_Mode value */
 267:STM32F4xx_LIB/periph/src/stm32f4xx_i2c.c ****   /* Set ACK bit according to I2C_Ack value */
 268:STM32F4xx_LIB/periph/src/stm32f4xx_i2c.c ****   tmpreg |= (uint16_t)((uint32_t)I2C_InitStruct->I2C_Mode | I2C_InitStruct->I2C_Ack);
 256              		.loc 1 268 3 is_stmt 1 view .LVU75
 257              		.loc 1 268 48 is_stmt 0 view .LVU76
 258 0068 AA88     		ldrh	r2, [r5, #4]
 259              		.loc 1 268 75 view .LVU77
 260 006a 6989     		ldrh	r1, [r5, #10]
 261              		.loc 1 268 13 view .LVU78
 262 006c 0A43     		orrs	r2, r2, r1
 263              		.loc 1 268 10 view .LVU79
 264 006e 1343     		orrs	r3, r3, r2
 265              	.LVL33:
 269:STM32F4xx_LIB/periph/src/stm32f4xx_i2c.c ****   /* Write to I2Cx CR1 */
 270:STM32F4xx_LIB/periph/src/stm32f4xx_i2c.c ****   I2Cx->CR1 = tmpreg;
 266              		.loc 1 270 3 is_stmt 1 view .LVU80
 267              		.loc 1 270 13 is_stmt 0 view .LVU81
 268 0070 2380     		strh	r3, [r4]	@ movhi
 271:STM32F4xx_LIB/periph/src/stm32f4xx_i2c.c **** 
 272:STM32F4xx_LIB/periph/src/stm32f4xx_i2c.c **** /*---------------------------- I2Cx OAR1 Configuration -----------------------*/
 273:STM32F4xx_LIB/periph/src/stm32f4xx_i2c.c ****   /* Set I2Cx Own Address1 and acknowledged address */
 274:STM32F4xx_LIB/periph/src/stm32f4xx_i2c.c ****   I2Cx->OAR1 = (I2C_InitStruct->I2C_AcknowledgedAddress | I2C_InitStruct->I2C_OwnAddress1);
 269              		.loc 1 274 3 is_stmt 1 view .LVU82
 270              		.loc 1 274 31 is_stmt 0 view .LVU83
 271 0072 AB89     		ldrh	r3, [r5, #12]
 272              	.LVL34:
 273              		.loc 1 274 73 view .LVU84
 274 0074 2A89     		ldrh	r2, [r5, #8]
 275              		.loc 1 274 14 view .LVU85
 276 0076 1343     		orrs	r3, r3, r2
 277 0078 2381     		strh	r3, [r4, #8]	@ movhi
 278              	.LVL35:
 275:STM32F4xx_LIB/periph/src/stm32f4xx_i2c.c **** }
 279              		.loc 1 275 1 view .LVU86
 280 007a 05B0     		add	sp, sp, #20
 281              	.LCFI3:
 282              		.cfi_remember_state
 283              		.cfi_def_cfa_offset 20
 284              		@ sp needed
 285 007c F0BD     		pop	{r4, r5, r6, r7, pc}
 286              	.LVL36:
 287              	.L12:
 288              	.LCFI4:
 289              		.cfi_restore_state
ARM GAS  C:\Users\京垓\AppData\Local\Temp\ccBmAlt6.s 			page 11


 230:STM32F4xx_LIB/periph/src/stm32f4xx_i2c.c ****     {
 290              		.loc 1 230 5 is_stmt 1 view .LVU87
 230:STM32F4xx_LIB/periph/src/stm32f4xx_i2c.c ****     {
 291              		.loc 1 230 23 is_stmt 0 view .LVU88
 292 007e EE88     		ldrh	r6, [r5, #6]
 230:STM32F4xx_LIB/periph/src/stm32f4xx_i2c.c ****     {
 293              		.loc 1 230 8 view .LVU89
 294 0080 4BF6FF72 		movw	r2, #49151
 295 0084 9642     		cmp	r6, r2
 296 0086 1BD0     		beq	.L20
 238:STM32F4xx_LIB/periph/src/stm32f4xx_i2c.c ****       /* Set DUTY bit */
 297              		.loc 1 238 7 is_stmt 1 view .LVU90
 238:STM32F4xx_LIB/periph/src/stm32f4xx_i2c.c ****       /* Set DUTY bit */
 298              		.loc 1 238 67 is_stmt 0 view .LVU91
 299 0088 03EB8303 		add	r3, r3, r3, lsl #2
 300 008c 03EB8303 		add	r3, r3, r3, lsl #2
 238:STM32F4xx_LIB/periph/src/stm32f4xx_i2c.c ****       /* Set DUTY bit */
 301              		.loc 1 238 33 view .LVU92
 302 0090 B0FBF3F3 		udiv	r3, r0, r3
 238:STM32F4xx_LIB/periph/src/stm32f4xx_i2c.c ****       /* Set DUTY bit */
 303              		.loc 1 238 14 view .LVU93
 304 0094 9BB2     		uxth	r3, r3
 305              	.LVL37:
 240:STM32F4xx_LIB/periph/src/stm32f4xx_i2c.c ****     }
 306              		.loc 1 240 7 is_stmt 1 view .LVU94
 240:STM32F4xx_LIB/periph/src/stm32f4xx_i2c.c ****     }
 307              		.loc 1 240 14 is_stmt 0 view .LVU95
 308 0096 43F48043 		orr	r3, r3, #16384
 309              	.LVL38:
 310              	.L16:
 244:STM32F4xx_LIB/periph/src/stm32f4xx_i2c.c ****     {
 311              		.loc 1 244 5 is_stmt 1 view .LVU96
 244:STM32F4xx_LIB/periph/src/stm32f4xx_i2c.c ****     {
 312              		.loc 1 244 8 is_stmt 0 view .LVU97
 313 009a C3F30B02 		ubfx	r2, r3, #0, #12
 314 009e 0AB9     		cbnz	r2, .L17
 247:STM32F4xx_LIB/periph/src/stm32f4xx_i2c.c ****     }
 315              		.loc 1 247 7 is_stmt 1 view .LVU98
 247:STM32F4xx_LIB/periph/src/stm32f4xx_i2c.c ****     }
 316              		.loc 1 247 14 is_stmt 0 view .LVU99
 317 00a0 43F00103 		orr	r3, r3, #1
 318              	.LVL39:
 319              	.L17:
 250:STM32F4xx_LIB/periph/src/stm32f4xx_i2c.c ****     /* Set Maximum Rise Time for fast mode */
 320              		.loc 1 250 5 is_stmt 1 view .LVU100
 250:STM32F4xx_LIB/periph/src/stm32f4xx_i2c.c ****     /* Set Maximum Rise Time for fast mode */
 321              		.loc 1 250 12 is_stmt 0 view .LVU101
 322 00a4 43F40043 		orr	r3, r3, #32768
 323              	.LVL40:
 252:STM32F4xx_LIB/periph/src/stm32f4xx_i2c.c ****   }
 324              		.loc 1 252 5 is_stmt 1 view .LVU102
 252:STM32F4xx_LIB/periph/src/stm32f4xx_i2c.c ****   }
 325              		.loc 1 252 42 is_stmt 0 view .LVU103
 326 00a8 4FF49672 		mov	r2, #300
 327 00ac 01FB02F2 		mul	r2, r1, r2
 252:STM32F4xx_LIB/periph/src/stm32f4xx_i2c.c ****   }
 328              		.loc 1 252 59 view .LVU104
ARM GAS  C:\Users\京垓\AppData\Local\Temp\ccBmAlt6.s 			page 12


 329 00b0 0849     		ldr	r1, .L21+8
 330              	.LVL41:
 252:STM32F4xx_LIB/periph/src/stm32f4xx_i2c.c ****   }
 331              		.loc 1 252 59 view .LVU105
 332 00b2 81FB0212 		smull	r1, r2, r1, r2
 333 00b6 9211     		asrs	r2, r2, #6
 252:STM32F4xx_LIB/periph/src/stm32f4xx_i2c.c ****   }
 334              		.loc 1 252 19 view .LVU106
 335 00b8 0132     		adds	r2, r2, #1
 336 00ba 92B2     		uxth	r2, r2
 252:STM32F4xx_LIB/periph/src/stm32f4xx_i2c.c ****   }
 337              		.loc 1 252 17 view .LVU107
 338 00bc 2284     		strh	r2, [r4, #32]	@ movhi
 339 00be C7E7     		b	.L14
 340              	.LVL42:
 341              	.L20:
 233:STM32F4xx_LIB/periph/src/stm32f4xx_i2c.c ****     }
 342              		.loc 1 233 7 is_stmt 1 view .LVU108
 233:STM32F4xx_LIB/periph/src/stm32f4xx_i2c.c ****     }
 343              		.loc 1 233 67 is_stmt 0 view .LVU109
 344 00c0 03EB4303 		add	r3, r3, r3, lsl #1
 233:STM32F4xx_LIB/periph/src/stm32f4xx_i2c.c ****     }
 345              		.loc 1 233 33 view .LVU110
 346 00c4 B0FBF3F3 		udiv	r3, r0, r3
 233:STM32F4xx_LIB/periph/src/stm32f4xx_i2c.c ****     }
 347              		.loc 1 233 14 view .LVU111
 348 00c8 9BB2     		uxth	r3, r3
 349              	.LVL43:
 233:STM32F4xx_LIB/periph/src/stm32f4xx_i2c.c ****     }
 350              		.loc 1 233 14 view .LVU112
 351 00ca E6E7     		b	.L16
 352              	.L22:
 353              		.align	2
 354              	.L21:
 355 00cc 83DE1B43 		.word	1125899907
 356 00d0 A0860100 		.word	100000
 357 00d4 D34D6210 		.word	274877907
 358              		.cfi_endproc
 359              	.LFE124:
 361              		.section	.text.I2C_StructInit,"ax",%progbits
 362              		.align	1
 363              		.global	I2C_StructInit
 364              		.syntax unified
 365              		.thumb
 366              		.thumb_func
 367              		.fpu fpv4-sp-d16
 369              	I2C_StructInit:
 370              	.LVL44:
 371              	.LFB125:
 276:STM32F4xx_LIB/periph/src/stm32f4xx_i2c.c **** 
 277:STM32F4xx_LIB/periph/src/stm32f4xx_i2c.c **** /**
 278:STM32F4xx_LIB/periph/src/stm32f4xx_i2c.c ****   * @brief  Fills each I2C_InitStruct member with its default value.
 279:STM32F4xx_LIB/periph/src/stm32f4xx_i2c.c ****   * @param  I2C_InitStruct: pointer to an I2C_InitTypeDef structure which will be initialized.
 280:STM32F4xx_LIB/periph/src/stm32f4xx_i2c.c ****   * @retval None
 281:STM32F4xx_LIB/periph/src/stm32f4xx_i2c.c ****   */
 282:STM32F4xx_LIB/periph/src/stm32f4xx_i2c.c **** void I2C_StructInit(I2C_InitTypeDef* I2C_InitStruct)
 283:STM32F4xx_LIB/periph/src/stm32f4xx_i2c.c **** {
ARM GAS  C:\Users\京垓\AppData\Local\Temp\ccBmAlt6.s 			page 13


 372              		.loc 1 283 1 is_stmt 1 view -0
 373              		.cfi_startproc
 374              		@ args = 0, pretend = 0, frame = 0
 375              		@ frame_needed = 0, uses_anonymous_args = 0
 376              		@ link register save eliminated.
 284:STM32F4xx_LIB/periph/src/stm32f4xx_i2c.c **** /*---------------- Reset I2C init structure parameters values ----------------*/
 285:STM32F4xx_LIB/periph/src/stm32f4xx_i2c.c ****   /* initialize the I2C_ClockSpeed member */
 286:STM32F4xx_LIB/periph/src/stm32f4xx_i2c.c ****   I2C_InitStruct->I2C_ClockSpeed = 5000;
 377              		.loc 1 286 3 view .LVU114
 378              		.loc 1 286 34 is_stmt 0 view .LVU115
 379 0000 41F28833 		movw	r3, #5000
 380 0004 0360     		str	r3, [r0]
 287:STM32F4xx_LIB/periph/src/stm32f4xx_i2c.c ****   /* Initialize the I2C_Mode member */
 288:STM32F4xx_LIB/periph/src/stm32f4xx_i2c.c ****   I2C_InitStruct->I2C_Mode = I2C_Mode_I2C;
 381              		.loc 1 288 3 is_stmt 1 view .LVU116
 382              		.loc 1 288 28 is_stmt 0 view .LVU117
 383 0006 0023     		movs	r3, #0
 384 0008 8380     		strh	r3, [r0, #4]	@ movhi
 289:STM32F4xx_LIB/periph/src/stm32f4xx_i2c.c ****   /* Initialize the I2C_DutyCycle member */
 290:STM32F4xx_LIB/periph/src/stm32f4xx_i2c.c ****   I2C_InitStruct->I2C_DutyCycle = I2C_DutyCycle_2;
 385              		.loc 1 290 3 is_stmt 1 view .LVU118
 386              		.loc 1 290 33 is_stmt 0 view .LVU119
 387 000a 4BF6FF72 		movw	r2, #49151
 388 000e C280     		strh	r2, [r0, #6]	@ movhi
 291:STM32F4xx_LIB/periph/src/stm32f4xx_i2c.c ****   /* Initialize the I2C_OwnAddress1 member */
 292:STM32F4xx_LIB/periph/src/stm32f4xx_i2c.c ****   I2C_InitStruct->I2C_OwnAddress1 = 0;
 389              		.loc 1 292 3 is_stmt 1 view .LVU120
 390              		.loc 1 292 35 is_stmt 0 view .LVU121
 391 0010 0381     		strh	r3, [r0, #8]	@ movhi
 293:STM32F4xx_LIB/periph/src/stm32f4xx_i2c.c ****   /* Initialize the I2C_Ack member */
 294:STM32F4xx_LIB/periph/src/stm32f4xx_i2c.c ****   I2C_InitStruct->I2C_Ack = I2C_Ack_Disable;
 392              		.loc 1 294 3 is_stmt 1 view .LVU122
 393              		.loc 1 294 27 is_stmt 0 view .LVU123
 394 0012 4381     		strh	r3, [r0, #10]	@ movhi
 295:STM32F4xx_LIB/periph/src/stm32f4xx_i2c.c ****   /* Initialize the I2C_AcknowledgedAddress member */
 296:STM32F4xx_LIB/periph/src/stm32f4xx_i2c.c ****   I2C_InitStruct->I2C_AcknowledgedAddress = I2C_AcknowledgedAddress_7bit;
 395              		.loc 1 296 3 is_stmt 1 view .LVU124
 396              		.loc 1 296 43 is_stmt 0 view .LVU125
 397 0014 4FF48043 		mov	r3, #16384
 398 0018 8381     		strh	r3, [r0, #12]	@ movhi
 297:STM32F4xx_LIB/periph/src/stm32f4xx_i2c.c **** }
 399              		.loc 1 297 1 view .LVU126
 400 001a 7047     		bx	lr
 401              		.cfi_endproc
 402              	.LFE125:
 404              		.section	.text.I2C_Cmd,"ax",%progbits
 405              		.align	1
 406              		.global	I2C_Cmd
 407              		.syntax unified
 408              		.thumb
 409              		.thumb_func
 410              		.fpu fpv4-sp-d16
 412              	I2C_Cmd:
 413              	.LVL45:
 414              	.LFB126:
 298:STM32F4xx_LIB/periph/src/stm32f4xx_i2c.c **** 
 299:STM32F4xx_LIB/periph/src/stm32f4xx_i2c.c **** /**
ARM GAS  C:\Users\京垓\AppData\Local\Temp\ccBmAlt6.s 			page 14


 300:STM32F4xx_LIB/periph/src/stm32f4xx_i2c.c ****   * @brief  Enables or disables the specified I2C peripheral.
 301:STM32F4xx_LIB/periph/src/stm32f4xx_i2c.c ****   * @param  I2Cx: where x can be 1, 2 or 3 to select the I2C peripheral.
 302:STM32F4xx_LIB/periph/src/stm32f4xx_i2c.c ****   * @param  NewState: new state of the I2Cx peripheral. 
 303:STM32F4xx_LIB/periph/src/stm32f4xx_i2c.c ****   *          This parameter can be: ENABLE or DISABLE.
 304:STM32F4xx_LIB/periph/src/stm32f4xx_i2c.c ****   * @retval None
 305:STM32F4xx_LIB/periph/src/stm32f4xx_i2c.c ****   */
 306:STM32F4xx_LIB/periph/src/stm32f4xx_i2c.c **** void I2C_Cmd(I2C_TypeDef* I2Cx, FunctionalState NewState)
 307:STM32F4xx_LIB/periph/src/stm32f4xx_i2c.c **** {
 415              		.loc 1 307 1 is_stmt 1 view -0
 416              		.cfi_startproc
 417              		@ args = 0, pretend = 0, frame = 0
 418              		@ frame_needed = 0, uses_anonymous_args = 0
 419              		@ link register save eliminated.
 308:STM32F4xx_LIB/periph/src/stm32f4xx_i2c.c ****   /* Check the parameters */
 309:STM32F4xx_LIB/periph/src/stm32f4xx_i2c.c ****   assert_param(IS_I2C_ALL_PERIPH(I2Cx));
 420              		.loc 1 309 3 view .LVU128
 310:STM32F4xx_LIB/periph/src/stm32f4xx_i2c.c ****   assert_param(IS_FUNCTIONAL_STATE(NewState));
 421              		.loc 1 310 3 view .LVU129
 311:STM32F4xx_LIB/periph/src/stm32f4xx_i2c.c ****   if (NewState != DISABLE)
 422              		.loc 1 311 3 view .LVU130
 423              		.loc 1 311 6 is_stmt 0 view .LVU131
 424 0000 29B1     		cbz	r1, .L25
 312:STM32F4xx_LIB/periph/src/stm32f4xx_i2c.c ****   {
 313:STM32F4xx_LIB/periph/src/stm32f4xx_i2c.c ****     /* Enable the selected I2C peripheral */
 314:STM32F4xx_LIB/periph/src/stm32f4xx_i2c.c ****     I2Cx->CR1 |= I2C_CR1_PE;
 425              		.loc 1 314 5 is_stmt 1 view .LVU132
 426              		.loc 1 314 15 is_stmt 0 view .LVU133
 427 0002 0388     		ldrh	r3, [r0]
 428 0004 9BB2     		uxth	r3, r3
 429 0006 43F00103 		orr	r3, r3, #1
 430 000a 0380     		strh	r3, [r0]	@ movhi
 431 000c 7047     		bx	lr
 432              	.L25:
 315:STM32F4xx_LIB/periph/src/stm32f4xx_i2c.c ****   }
 316:STM32F4xx_LIB/periph/src/stm32f4xx_i2c.c ****   else
 317:STM32F4xx_LIB/periph/src/stm32f4xx_i2c.c ****   {
 318:STM32F4xx_LIB/periph/src/stm32f4xx_i2c.c ****     /* Disable the selected I2C peripheral */
 319:STM32F4xx_LIB/periph/src/stm32f4xx_i2c.c ****     I2Cx->CR1 &= (uint16_t)~((uint16_t)I2C_CR1_PE);
 433              		.loc 1 319 5 is_stmt 1 view .LVU134
 434              		.loc 1 319 15 is_stmt 0 view .LVU135
 435 000e 0388     		ldrh	r3, [r0]
 436 0010 9BB2     		uxth	r3, r3
 437 0012 23F00103 		bic	r3, r3, #1
 438 0016 9BB2     		uxth	r3, r3
 439 0018 0380     		strh	r3, [r0]	@ movhi
 320:STM32F4xx_LIB/periph/src/stm32f4xx_i2c.c ****   }
 321:STM32F4xx_LIB/periph/src/stm32f4xx_i2c.c **** }
 440              		.loc 1 321 1 view .LVU136
 441 001a 7047     		bx	lr
 442              		.cfi_endproc
 443              	.LFE126:
 445              		.section	.text.I2C_AnalogFilterCmd,"ax",%progbits
 446              		.align	1
 447              		.global	I2C_AnalogFilterCmd
 448              		.syntax unified
 449              		.thumb
 450              		.thumb_func
ARM GAS  C:\Users\京垓\AppData\Local\Temp\ccBmAlt6.s 			page 15


 451              		.fpu fpv4-sp-d16
 453              	I2C_AnalogFilterCmd:
 454              	.LVL46:
 455              	.LFB127:
 322:STM32F4xx_LIB/periph/src/stm32f4xx_i2c.c **** 
 323:STM32F4xx_LIB/periph/src/stm32f4xx_i2c.c **** /**
 324:STM32F4xx_LIB/periph/src/stm32f4xx_i2c.c ****   * @brief  Enables or disables the Analog filter of I2C peripheral.
 325:STM32F4xx_LIB/periph/src/stm32f4xx_i2c.c ****   * 
 326:STM32F4xx_LIB/periph/src/stm32f4xx_i2c.c ****   * @note   This function can be used only for STM32F42xxx/STM3243xxx, STM32F401xx, STM32F410xx and
 327:STM32F4xx_LIB/periph/src/stm32f4xx_i2c.c ****   *        
 328:STM32F4xx_LIB/periph/src/stm32f4xx_i2c.c ****   * @param  I2Cx: where x can be 1, 2 or 3 to select the I2C peripheral.
 329:STM32F4xx_LIB/periph/src/stm32f4xx_i2c.c ****   * @param  NewState: new state of the Analog filter. 
 330:STM32F4xx_LIB/periph/src/stm32f4xx_i2c.c ****   *          This parameter can be: ENABLE or DISABLE.
 331:STM32F4xx_LIB/periph/src/stm32f4xx_i2c.c ****   * @note   This function should be called before initializing and enabling
 332:STM32F4xx_LIB/periph/src/stm32f4xx_i2c.c ****             the I2C Peripheral.
 333:STM32F4xx_LIB/periph/src/stm32f4xx_i2c.c ****   * @retval None
 334:STM32F4xx_LIB/periph/src/stm32f4xx_i2c.c ****   */
 335:STM32F4xx_LIB/periph/src/stm32f4xx_i2c.c **** void I2C_AnalogFilterCmd(I2C_TypeDef* I2Cx, FunctionalState NewState)
 336:STM32F4xx_LIB/periph/src/stm32f4xx_i2c.c **** {
 456              		.loc 1 336 1 is_stmt 1 view -0
 457              		.cfi_startproc
 458              		@ args = 0, pretend = 0, frame = 0
 459              		@ frame_needed = 0, uses_anonymous_args = 0
 460              		@ link register save eliminated.
 337:STM32F4xx_LIB/periph/src/stm32f4xx_i2c.c ****   /* Check the parameters */
 338:STM32F4xx_LIB/periph/src/stm32f4xx_i2c.c ****   assert_param(IS_I2C_ALL_PERIPH(I2Cx));
 461              		.loc 1 338 3 view .LVU138
 339:STM32F4xx_LIB/periph/src/stm32f4xx_i2c.c ****   assert_param(IS_FUNCTIONAL_STATE(NewState));
 462              		.loc 1 339 3 view .LVU139
 340:STM32F4xx_LIB/periph/src/stm32f4xx_i2c.c ****   if (NewState != DISABLE)
 463              		.loc 1 340 3 view .LVU140
 464              		.loc 1 340 6 is_stmt 0 view .LVU141
 465 0000 31B1     		cbz	r1, .L28
 341:STM32F4xx_LIB/periph/src/stm32f4xx_i2c.c ****   {
 342:STM32F4xx_LIB/periph/src/stm32f4xx_i2c.c ****     /* Enable the analog filter */
 343:STM32F4xx_LIB/periph/src/stm32f4xx_i2c.c ****     I2Cx->FLTR &= (uint16_t)~((uint16_t)I2C_FLTR_ANOFF);    
 466              		.loc 1 343 5 is_stmt 1 view .LVU142
 467              		.loc 1 343 16 is_stmt 0 view .LVU143
 468 0002 838C     		ldrh	r3, [r0, #36]
 469 0004 9BB2     		uxth	r3, r3
 470 0006 23F01003 		bic	r3, r3, #16
 471 000a 9BB2     		uxth	r3, r3
 472 000c 8384     		strh	r3, [r0, #36]	@ movhi
 473 000e 7047     		bx	lr
 474              	.L28:
 344:STM32F4xx_LIB/periph/src/stm32f4xx_i2c.c ****   }
 345:STM32F4xx_LIB/periph/src/stm32f4xx_i2c.c ****   else
 346:STM32F4xx_LIB/periph/src/stm32f4xx_i2c.c ****   {
 347:STM32F4xx_LIB/periph/src/stm32f4xx_i2c.c ****     /* Disable the analog filter */
 348:STM32F4xx_LIB/periph/src/stm32f4xx_i2c.c ****     I2Cx->FLTR |= I2C_FLTR_ANOFF;
 475              		.loc 1 348 5 is_stmt 1 view .LVU144
 476              		.loc 1 348 16 is_stmt 0 view .LVU145
 477 0010 838C     		ldrh	r3, [r0, #36]
 478 0012 9BB2     		uxth	r3, r3
 479 0014 43F01003 		orr	r3, r3, #16
 480 0018 8384     		strh	r3, [r0, #36]	@ movhi
 349:STM32F4xx_LIB/periph/src/stm32f4xx_i2c.c ****   }
ARM GAS  C:\Users\京垓\AppData\Local\Temp\ccBmAlt6.s 			page 16


 350:STM32F4xx_LIB/periph/src/stm32f4xx_i2c.c **** }
 481              		.loc 1 350 1 view .LVU146
 482 001a 7047     		bx	lr
 483              		.cfi_endproc
 484              	.LFE127:
 486              		.section	.text.I2C_DigitalFilterConfig,"ax",%progbits
 487              		.align	1
 488              		.global	I2C_DigitalFilterConfig
 489              		.syntax unified
 490              		.thumb
 491              		.thumb_func
 492              		.fpu fpv4-sp-d16
 494              	I2C_DigitalFilterConfig:
 495              	.LVL47:
 496              	.LFB128:
 351:STM32F4xx_LIB/periph/src/stm32f4xx_i2c.c **** 
 352:STM32F4xx_LIB/periph/src/stm32f4xx_i2c.c **** /**
 353:STM32F4xx_LIB/periph/src/stm32f4xx_i2c.c ****   * @brief  Configures the Digital noise filter of I2C peripheral.
 354:STM32F4xx_LIB/periph/src/stm32f4xx_i2c.c ****   * 
 355:STM32F4xx_LIB/periph/src/stm32f4xx_i2c.c ****   * @note   This function can be used only for STM32F42xxx/STM3243xxx, STM32F401xx, STM32F410xx and
 356:STM32F4xx_LIB/periph/src/stm32f4xx_i2c.c ****   *       
 357:STM32F4xx_LIB/periph/src/stm32f4xx_i2c.c ****   * @param  I2Cx: where x can be 1, 2 or 3 to select the I2C peripheral.
 358:STM32F4xx_LIB/periph/src/stm32f4xx_i2c.c ****   * @param  I2C_DigitalFilter: Coefficient of digital noise filter. 
 359:STM32F4xx_LIB/periph/src/stm32f4xx_i2c.c ****   *          This parameter can be a number between 0x00 and 0x0F.
 360:STM32F4xx_LIB/periph/src/stm32f4xx_i2c.c ****   * @note   This function should be called before initializing and enabling
 361:STM32F4xx_LIB/periph/src/stm32f4xx_i2c.c ****             the I2C Peripheral.
 362:STM32F4xx_LIB/periph/src/stm32f4xx_i2c.c ****   * @retval None
 363:STM32F4xx_LIB/periph/src/stm32f4xx_i2c.c ****   */
 364:STM32F4xx_LIB/periph/src/stm32f4xx_i2c.c **** void I2C_DigitalFilterConfig(I2C_TypeDef* I2Cx, uint16_t I2C_DigitalFilter)
 365:STM32F4xx_LIB/periph/src/stm32f4xx_i2c.c **** {
 497              		.loc 1 365 1 is_stmt 1 view -0
 498              		.cfi_startproc
 499              		@ args = 0, pretend = 0, frame = 0
 500              		@ frame_needed = 0, uses_anonymous_args = 0
 501              		@ link register save eliminated.
 366:STM32F4xx_LIB/periph/src/stm32f4xx_i2c.c ****   uint16_t tmpreg = 0;
 502              		.loc 1 366 3 view .LVU148
 367:STM32F4xx_LIB/periph/src/stm32f4xx_i2c.c ****   
 368:STM32F4xx_LIB/periph/src/stm32f4xx_i2c.c ****   /* Check the parameters */
 369:STM32F4xx_LIB/periph/src/stm32f4xx_i2c.c ****   assert_param(IS_I2C_ALL_PERIPH(I2Cx));
 503              		.loc 1 369 3 view .LVU149
 370:STM32F4xx_LIB/periph/src/stm32f4xx_i2c.c ****   assert_param(IS_I2C_DIGITAL_FILTER(I2C_DigitalFilter));
 504              		.loc 1 370 3 view .LVU150
 371:STM32F4xx_LIB/periph/src/stm32f4xx_i2c.c ****   
 372:STM32F4xx_LIB/periph/src/stm32f4xx_i2c.c ****   /* Get the old register value */
 373:STM32F4xx_LIB/periph/src/stm32f4xx_i2c.c ****   tmpreg = I2Cx->FLTR;
 505              		.loc 1 373 3 view .LVU151
 506              		.loc 1 373 10 is_stmt 0 view .LVU152
 507 0000 838C     		ldrh	r3, [r0, #36]
 508 0002 9BB2     		uxth	r3, r3
 509              	.LVL48:
 374:STM32F4xx_LIB/periph/src/stm32f4xx_i2c.c ****   
 375:STM32F4xx_LIB/periph/src/stm32f4xx_i2c.c ****   /* Reset I2Cx DNF bit [3:0] */
 376:STM32F4xx_LIB/periph/src/stm32f4xx_i2c.c ****   tmpreg &= (uint16_t)~((uint16_t)I2C_FLTR_DNF);
 510              		.loc 1 376 3 is_stmt 1 view .LVU153
 511              		.loc 1 376 10 is_stmt 0 view .LVU154
 512 0004 23F00F03 		bic	r3, r3, #15
ARM GAS  C:\Users\京垓\AppData\Local\Temp\ccBmAlt6.s 			page 17


 513              	.LVL49:
 377:STM32F4xx_LIB/periph/src/stm32f4xx_i2c.c ****   
 378:STM32F4xx_LIB/periph/src/stm32f4xx_i2c.c ****   /* Set I2Cx DNF coefficient */
 379:STM32F4xx_LIB/periph/src/stm32f4xx_i2c.c ****   tmpreg |= (uint16_t)((uint16_t)I2C_DigitalFilter & I2C_FLTR_DNF);
 514              		.loc 1 379 3 is_stmt 1 view .LVU155
 515              		.loc 1 379 13 is_stmt 0 view .LVU156
 516 0008 01F00F01 		and	r1, r1, #15
 517              	.LVL50:
 518              		.loc 1 379 10 view .LVU157
 519 000c 0B43     		orrs	r3, r3, r1
 520              	.LVL51:
 380:STM32F4xx_LIB/periph/src/stm32f4xx_i2c.c ****   
 381:STM32F4xx_LIB/periph/src/stm32f4xx_i2c.c ****   /* Store the new register value */
 382:STM32F4xx_LIB/periph/src/stm32f4xx_i2c.c ****   I2Cx->FLTR = tmpreg;
 521              		.loc 1 382 3 is_stmt 1 view .LVU158
 522              		.loc 1 382 14 is_stmt 0 view .LVU159
 523 000e 8384     		strh	r3, [r0, #36]	@ movhi
 383:STM32F4xx_LIB/periph/src/stm32f4xx_i2c.c **** }
 524              		.loc 1 383 1 view .LVU160
 525 0010 7047     		bx	lr
 526              		.cfi_endproc
 527              	.LFE128:
 529              		.section	.text.I2C_GenerateSTART,"ax",%progbits
 530              		.align	1
 531              		.global	I2C_GenerateSTART
 532              		.syntax unified
 533              		.thumb
 534              		.thumb_func
 535              		.fpu fpv4-sp-d16
 537              	I2C_GenerateSTART:
 538              	.LVL52:
 539              	.LFB129:
 384:STM32F4xx_LIB/periph/src/stm32f4xx_i2c.c **** 
 385:STM32F4xx_LIB/periph/src/stm32f4xx_i2c.c **** /**
 386:STM32F4xx_LIB/periph/src/stm32f4xx_i2c.c ****   * @brief  Generates I2Cx communication START condition.
 387:STM32F4xx_LIB/periph/src/stm32f4xx_i2c.c ****   * @param  I2Cx: where x can be 1, 2 or 3 to select the I2C peripheral.
 388:STM32F4xx_LIB/periph/src/stm32f4xx_i2c.c ****   * @param  NewState: new state of the I2C START condition generation.
 389:STM32F4xx_LIB/periph/src/stm32f4xx_i2c.c ****   *          This parameter can be: ENABLE or DISABLE.
 390:STM32F4xx_LIB/periph/src/stm32f4xx_i2c.c ****   * @retval None.
 391:STM32F4xx_LIB/periph/src/stm32f4xx_i2c.c ****   */
 392:STM32F4xx_LIB/periph/src/stm32f4xx_i2c.c **** void I2C_GenerateSTART(I2C_TypeDef* I2Cx, FunctionalState NewState)
 393:STM32F4xx_LIB/periph/src/stm32f4xx_i2c.c **** {
 540              		.loc 1 393 1 is_stmt 1 view -0
 541              		.cfi_startproc
 542              		@ args = 0, pretend = 0, frame = 0
 543              		@ frame_needed = 0, uses_anonymous_args = 0
 544              		@ link register save eliminated.
 394:STM32F4xx_LIB/periph/src/stm32f4xx_i2c.c ****   /* Check the parameters */
 395:STM32F4xx_LIB/periph/src/stm32f4xx_i2c.c ****   assert_param(IS_I2C_ALL_PERIPH(I2Cx));
 545              		.loc 1 395 3 view .LVU162
 396:STM32F4xx_LIB/periph/src/stm32f4xx_i2c.c ****   assert_param(IS_FUNCTIONAL_STATE(NewState));
 546              		.loc 1 396 3 view .LVU163
 397:STM32F4xx_LIB/periph/src/stm32f4xx_i2c.c ****   if (NewState != DISABLE)
 547              		.loc 1 397 3 view .LVU164
 548              		.loc 1 397 6 is_stmt 0 view .LVU165
 549 0000 29B1     		cbz	r1, .L32
 398:STM32F4xx_LIB/periph/src/stm32f4xx_i2c.c ****   {
ARM GAS  C:\Users\京垓\AppData\Local\Temp\ccBmAlt6.s 			page 18


 399:STM32F4xx_LIB/periph/src/stm32f4xx_i2c.c ****     /* Generate a START condition */
 400:STM32F4xx_LIB/periph/src/stm32f4xx_i2c.c ****     I2Cx->CR1 |= I2C_CR1_START;
 550              		.loc 1 400 5 is_stmt 1 view .LVU166
 551              		.loc 1 400 15 is_stmt 0 view .LVU167
 552 0002 0388     		ldrh	r3, [r0]
 553 0004 9BB2     		uxth	r3, r3
 554 0006 43F48073 		orr	r3, r3, #256
 555 000a 0380     		strh	r3, [r0]	@ movhi
 556 000c 7047     		bx	lr
 557              	.L32:
 401:STM32F4xx_LIB/periph/src/stm32f4xx_i2c.c ****   }
 402:STM32F4xx_LIB/periph/src/stm32f4xx_i2c.c ****   else
 403:STM32F4xx_LIB/periph/src/stm32f4xx_i2c.c ****   {
 404:STM32F4xx_LIB/periph/src/stm32f4xx_i2c.c ****     /* Disable the START condition generation */
 405:STM32F4xx_LIB/periph/src/stm32f4xx_i2c.c ****     I2Cx->CR1 &= (uint16_t)~((uint16_t)I2C_CR1_START);
 558              		.loc 1 405 5 is_stmt 1 view .LVU168
 559              		.loc 1 405 15 is_stmt 0 view .LVU169
 560 000e 0388     		ldrh	r3, [r0]
 561 0010 9BB2     		uxth	r3, r3
 562 0012 23F48073 		bic	r3, r3, #256
 563 0016 9BB2     		uxth	r3, r3
 564 0018 0380     		strh	r3, [r0]	@ movhi
 406:STM32F4xx_LIB/periph/src/stm32f4xx_i2c.c ****   }
 407:STM32F4xx_LIB/periph/src/stm32f4xx_i2c.c **** }
 565              		.loc 1 407 1 view .LVU170
 566 001a 7047     		bx	lr
 567              		.cfi_endproc
 568              	.LFE129:
 570              		.section	.text.I2C_GenerateSTOP,"ax",%progbits
 571              		.align	1
 572              		.global	I2C_GenerateSTOP
 573              		.syntax unified
 574              		.thumb
 575              		.thumb_func
 576              		.fpu fpv4-sp-d16
 578              	I2C_GenerateSTOP:
 579              	.LVL53:
 580              	.LFB130:
 408:STM32F4xx_LIB/periph/src/stm32f4xx_i2c.c **** 
 409:STM32F4xx_LIB/periph/src/stm32f4xx_i2c.c **** /**
 410:STM32F4xx_LIB/periph/src/stm32f4xx_i2c.c ****   * @brief  Generates I2Cx communication STOP condition.
 411:STM32F4xx_LIB/periph/src/stm32f4xx_i2c.c ****   * @param  I2Cx: where x can be 1, 2 or 3 to select the I2C peripheral.
 412:STM32F4xx_LIB/periph/src/stm32f4xx_i2c.c ****   * @param  NewState: new state of the I2C STOP condition generation.
 413:STM32F4xx_LIB/periph/src/stm32f4xx_i2c.c ****   *          This parameter can be: ENABLE or DISABLE.
 414:STM32F4xx_LIB/periph/src/stm32f4xx_i2c.c ****   * @retval None.
 415:STM32F4xx_LIB/periph/src/stm32f4xx_i2c.c ****   */
 416:STM32F4xx_LIB/periph/src/stm32f4xx_i2c.c **** void I2C_GenerateSTOP(I2C_TypeDef* I2Cx, FunctionalState NewState)
 417:STM32F4xx_LIB/periph/src/stm32f4xx_i2c.c **** {
 581              		.loc 1 417 1 is_stmt 1 view -0
 582              		.cfi_startproc
 583              		@ args = 0, pretend = 0, frame = 0
 584              		@ frame_needed = 0, uses_anonymous_args = 0
 585              		@ link register save eliminated.
 418:STM32F4xx_LIB/periph/src/stm32f4xx_i2c.c ****   /* Check the parameters */
 419:STM32F4xx_LIB/periph/src/stm32f4xx_i2c.c ****   assert_param(IS_I2C_ALL_PERIPH(I2Cx));
 586              		.loc 1 419 3 view .LVU172
 420:STM32F4xx_LIB/periph/src/stm32f4xx_i2c.c ****   assert_param(IS_FUNCTIONAL_STATE(NewState));
ARM GAS  C:\Users\京垓\AppData\Local\Temp\ccBmAlt6.s 			page 19


 587              		.loc 1 420 3 view .LVU173
 421:STM32F4xx_LIB/periph/src/stm32f4xx_i2c.c ****   if (NewState != DISABLE)
 588              		.loc 1 421 3 view .LVU174
 589              		.loc 1 421 6 is_stmt 0 view .LVU175
 590 0000 29B1     		cbz	r1, .L35
 422:STM32F4xx_LIB/periph/src/stm32f4xx_i2c.c ****   {
 423:STM32F4xx_LIB/periph/src/stm32f4xx_i2c.c ****     /* Generate a STOP condition */
 424:STM32F4xx_LIB/periph/src/stm32f4xx_i2c.c ****     I2Cx->CR1 |= I2C_CR1_STOP;
 591              		.loc 1 424 5 is_stmt 1 view .LVU176
 592              		.loc 1 424 15 is_stmt 0 view .LVU177
 593 0002 0388     		ldrh	r3, [r0]
 594 0004 9BB2     		uxth	r3, r3
 595 0006 43F40073 		orr	r3, r3, #512
 596 000a 0380     		strh	r3, [r0]	@ movhi
 597 000c 7047     		bx	lr
 598              	.L35:
 425:STM32F4xx_LIB/periph/src/stm32f4xx_i2c.c ****   }
 426:STM32F4xx_LIB/periph/src/stm32f4xx_i2c.c ****   else
 427:STM32F4xx_LIB/periph/src/stm32f4xx_i2c.c ****   {
 428:STM32F4xx_LIB/periph/src/stm32f4xx_i2c.c ****     /* Disable the STOP condition generation */
 429:STM32F4xx_LIB/periph/src/stm32f4xx_i2c.c ****     I2Cx->CR1 &= (uint16_t)~((uint16_t)I2C_CR1_STOP);
 599              		.loc 1 429 5 is_stmt 1 view .LVU178
 600              		.loc 1 429 15 is_stmt 0 view .LVU179
 601 000e 0388     		ldrh	r3, [r0]
 602 0010 9BB2     		uxth	r3, r3
 603 0012 23F40073 		bic	r3, r3, #512
 604 0016 9BB2     		uxth	r3, r3
 605 0018 0380     		strh	r3, [r0]	@ movhi
 430:STM32F4xx_LIB/periph/src/stm32f4xx_i2c.c ****   }
 431:STM32F4xx_LIB/periph/src/stm32f4xx_i2c.c **** }
 606              		.loc 1 431 1 view .LVU180
 607 001a 7047     		bx	lr
 608              		.cfi_endproc
 609              	.LFE130:
 611              		.section	.text.I2C_Send7bitAddress,"ax",%progbits
 612              		.align	1
 613              		.global	I2C_Send7bitAddress
 614              		.syntax unified
 615              		.thumb
 616              		.thumb_func
 617              		.fpu fpv4-sp-d16
 619              	I2C_Send7bitAddress:
 620              	.LVL54:
 621              	.LFB131:
 432:STM32F4xx_LIB/periph/src/stm32f4xx_i2c.c **** 
 433:STM32F4xx_LIB/periph/src/stm32f4xx_i2c.c **** /**
 434:STM32F4xx_LIB/periph/src/stm32f4xx_i2c.c ****   * @brief  Transmits the address byte to select the slave device.
 435:STM32F4xx_LIB/periph/src/stm32f4xx_i2c.c ****   * @param  I2Cx: where x can be 1, 2 or 3 to select the I2C peripheral.
 436:STM32F4xx_LIB/periph/src/stm32f4xx_i2c.c ****   * @param  Address: specifies the slave address which will be transmitted
 437:STM32F4xx_LIB/periph/src/stm32f4xx_i2c.c ****   * @param  I2C_Direction: specifies whether the I2C device will be a Transmitter
 438:STM32F4xx_LIB/periph/src/stm32f4xx_i2c.c ****   *         or a Receiver. 
 439:STM32F4xx_LIB/periph/src/stm32f4xx_i2c.c ****   *          This parameter can be one of the following values
 440:STM32F4xx_LIB/periph/src/stm32f4xx_i2c.c ****   *            @arg I2C_Direction_Transmitter: Transmitter mode
 441:STM32F4xx_LIB/periph/src/stm32f4xx_i2c.c ****   *            @arg I2C_Direction_Receiver: Receiver mode
 442:STM32F4xx_LIB/periph/src/stm32f4xx_i2c.c ****   * @retval None.
 443:STM32F4xx_LIB/periph/src/stm32f4xx_i2c.c ****   */
 444:STM32F4xx_LIB/periph/src/stm32f4xx_i2c.c **** void I2C_Send7bitAddress(I2C_TypeDef* I2Cx, uint8_t Address, uint8_t I2C_Direction)
ARM GAS  C:\Users\京垓\AppData\Local\Temp\ccBmAlt6.s 			page 20


 445:STM32F4xx_LIB/periph/src/stm32f4xx_i2c.c **** {
 622              		.loc 1 445 1 is_stmt 1 view -0
 623              		.cfi_startproc
 624              		@ args = 0, pretend = 0, frame = 0
 625              		@ frame_needed = 0, uses_anonymous_args = 0
 626              		@ link register save eliminated.
 446:STM32F4xx_LIB/periph/src/stm32f4xx_i2c.c ****   /* Check the parameters */
 447:STM32F4xx_LIB/periph/src/stm32f4xx_i2c.c ****   assert_param(IS_I2C_ALL_PERIPH(I2Cx));
 627              		.loc 1 447 3 view .LVU182
 448:STM32F4xx_LIB/periph/src/stm32f4xx_i2c.c ****   assert_param(IS_I2C_DIRECTION(I2C_Direction));
 628              		.loc 1 448 3 view .LVU183
 449:STM32F4xx_LIB/periph/src/stm32f4xx_i2c.c ****   /* Test on the direction to set/reset the read/write bit */
 450:STM32F4xx_LIB/periph/src/stm32f4xx_i2c.c ****   if (I2C_Direction != I2C_Direction_Transmitter)
 629              		.loc 1 450 3 view .LVU184
 630              		.loc 1 450 6 is_stmt 0 view .LVU185
 631 0000 22B1     		cbz	r2, .L38
 451:STM32F4xx_LIB/periph/src/stm32f4xx_i2c.c ****   {
 452:STM32F4xx_LIB/periph/src/stm32f4xx_i2c.c ****     /* Set the address bit0 for read */
 453:STM32F4xx_LIB/periph/src/stm32f4xx_i2c.c ****     Address |= I2C_OAR1_ADD0;
 632              		.loc 1 453 5 is_stmt 1 view .LVU186
 633              		.loc 1 453 13 is_stmt 0 view .LVU187
 634 0002 41F00101 		orr	r1, r1, #1
 635              	.LVL55:
 636              	.L39:
 454:STM32F4xx_LIB/periph/src/stm32f4xx_i2c.c ****   }
 455:STM32F4xx_LIB/periph/src/stm32f4xx_i2c.c ****   else
 456:STM32F4xx_LIB/periph/src/stm32f4xx_i2c.c ****   {
 457:STM32F4xx_LIB/periph/src/stm32f4xx_i2c.c ****     /* Reset the address bit0 for write */
 458:STM32F4xx_LIB/periph/src/stm32f4xx_i2c.c ****     Address &= (uint8_t)~((uint8_t)I2C_OAR1_ADD0);
 459:STM32F4xx_LIB/periph/src/stm32f4xx_i2c.c ****   }
 460:STM32F4xx_LIB/periph/src/stm32f4xx_i2c.c ****   /* Send the address */
 461:STM32F4xx_LIB/periph/src/stm32f4xx_i2c.c ****   I2Cx->DR = Address;
 637              		.loc 1 461 3 is_stmt 1 view .LVU188
 638              		.loc 1 461 12 is_stmt 0 view .LVU189
 639 0006 89B2     		uxth	r1, r1
 640              	.LVL56:
 641              		.loc 1 461 12 view .LVU190
 642 0008 0182     		strh	r1, [r0, #16]	@ movhi
 462:STM32F4xx_LIB/periph/src/stm32f4xx_i2c.c **** }
 643              		.loc 1 462 1 view .LVU191
 644 000a 7047     		bx	lr
 645              	.LVL57:
 646              	.L38:
 458:STM32F4xx_LIB/periph/src/stm32f4xx_i2c.c ****   }
 647              		.loc 1 458 5 is_stmt 1 view .LVU192
 458:STM32F4xx_LIB/periph/src/stm32f4xx_i2c.c ****   }
 648              		.loc 1 458 13 is_stmt 0 view .LVU193
 649 000c 01F0FE01 		and	r1, r1, #254
 650              	.LVL58:
 458:STM32F4xx_LIB/periph/src/stm32f4xx_i2c.c ****   }
 651              		.loc 1 458 13 view .LVU194
 652 0010 F9E7     		b	.L39
 653              		.cfi_endproc
 654              	.LFE131:
 656              		.section	.text.I2C_AcknowledgeConfig,"ax",%progbits
 657              		.align	1
 658              		.global	I2C_AcknowledgeConfig
ARM GAS  C:\Users\京垓\AppData\Local\Temp\ccBmAlt6.s 			page 21


 659              		.syntax unified
 660              		.thumb
 661              		.thumb_func
 662              		.fpu fpv4-sp-d16
 664              	I2C_AcknowledgeConfig:
 665              	.LVL59:
 666              	.LFB132:
 463:STM32F4xx_LIB/periph/src/stm32f4xx_i2c.c **** 
 464:STM32F4xx_LIB/periph/src/stm32f4xx_i2c.c **** /**
 465:STM32F4xx_LIB/periph/src/stm32f4xx_i2c.c ****   * @brief  Enables or disables the specified I2C acknowledge feature.
 466:STM32F4xx_LIB/periph/src/stm32f4xx_i2c.c ****   * @param  I2Cx: where x can be 1, 2 or 3 to select the I2C peripheral.
 467:STM32F4xx_LIB/periph/src/stm32f4xx_i2c.c ****   * @param  NewState: new state of the I2C Acknowledgement.
 468:STM32F4xx_LIB/periph/src/stm32f4xx_i2c.c ****   *          This parameter can be: ENABLE or DISABLE.
 469:STM32F4xx_LIB/periph/src/stm32f4xx_i2c.c ****   * @retval None.
 470:STM32F4xx_LIB/periph/src/stm32f4xx_i2c.c ****   */
 471:STM32F4xx_LIB/periph/src/stm32f4xx_i2c.c **** void I2C_AcknowledgeConfig(I2C_TypeDef* I2Cx, FunctionalState NewState)
 472:STM32F4xx_LIB/periph/src/stm32f4xx_i2c.c **** {
 667              		.loc 1 472 1 is_stmt 1 view -0
 668              		.cfi_startproc
 669              		@ args = 0, pretend = 0, frame = 0
 670              		@ frame_needed = 0, uses_anonymous_args = 0
 671              		@ link register save eliminated.
 473:STM32F4xx_LIB/periph/src/stm32f4xx_i2c.c ****   /* Check the parameters */
 474:STM32F4xx_LIB/periph/src/stm32f4xx_i2c.c ****   assert_param(IS_I2C_ALL_PERIPH(I2Cx));
 672              		.loc 1 474 3 view .LVU196
 475:STM32F4xx_LIB/periph/src/stm32f4xx_i2c.c ****   assert_param(IS_FUNCTIONAL_STATE(NewState));
 673              		.loc 1 475 3 view .LVU197
 476:STM32F4xx_LIB/periph/src/stm32f4xx_i2c.c ****   if (NewState != DISABLE)
 674              		.loc 1 476 3 view .LVU198
 675              		.loc 1 476 6 is_stmt 0 view .LVU199
 676 0000 29B1     		cbz	r1, .L41
 477:STM32F4xx_LIB/periph/src/stm32f4xx_i2c.c ****   {
 478:STM32F4xx_LIB/periph/src/stm32f4xx_i2c.c ****     /* Enable the acknowledgement */
 479:STM32F4xx_LIB/periph/src/stm32f4xx_i2c.c ****     I2Cx->CR1 |= I2C_CR1_ACK;
 677              		.loc 1 479 5 is_stmt 1 view .LVU200
 678              		.loc 1 479 15 is_stmt 0 view .LVU201
 679 0002 0388     		ldrh	r3, [r0]
 680 0004 9BB2     		uxth	r3, r3
 681 0006 43F48063 		orr	r3, r3, #1024
 682 000a 0380     		strh	r3, [r0]	@ movhi
 683 000c 7047     		bx	lr
 684              	.L41:
 480:STM32F4xx_LIB/periph/src/stm32f4xx_i2c.c ****   }
 481:STM32F4xx_LIB/periph/src/stm32f4xx_i2c.c ****   else
 482:STM32F4xx_LIB/periph/src/stm32f4xx_i2c.c ****   {
 483:STM32F4xx_LIB/periph/src/stm32f4xx_i2c.c ****     /* Disable the acknowledgement */
 484:STM32F4xx_LIB/periph/src/stm32f4xx_i2c.c ****     I2Cx->CR1 &= (uint16_t)~((uint16_t)I2C_CR1_ACK);
 685              		.loc 1 484 5 is_stmt 1 view .LVU202
 686              		.loc 1 484 15 is_stmt 0 view .LVU203
 687 000e 0388     		ldrh	r3, [r0]
 688 0010 9BB2     		uxth	r3, r3
 689 0012 23F48063 		bic	r3, r3, #1024
 690 0016 9BB2     		uxth	r3, r3
 691 0018 0380     		strh	r3, [r0]	@ movhi
 485:STM32F4xx_LIB/periph/src/stm32f4xx_i2c.c ****   }
 486:STM32F4xx_LIB/periph/src/stm32f4xx_i2c.c **** }
 692              		.loc 1 486 1 view .LVU204
ARM GAS  C:\Users\京垓\AppData\Local\Temp\ccBmAlt6.s 			page 22


 693 001a 7047     		bx	lr
 694              		.cfi_endproc
 695              	.LFE132:
 697              		.section	.text.I2C_OwnAddress2Config,"ax",%progbits
 698              		.align	1
 699              		.global	I2C_OwnAddress2Config
 700              		.syntax unified
 701              		.thumb
 702              		.thumb_func
 703              		.fpu fpv4-sp-d16
 705              	I2C_OwnAddress2Config:
 706              	.LVL60:
 707              	.LFB133:
 487:STM32F4xx_LIB/periph/src/stm32f4xx_i2c.c **** 
 488:STM32F4xx_LIB/periph/src/stm32f4xx_i2c.c **** /**
 489:STM32F4xx_LIB/periph/src/stm32f4xx_i2c.c ****   * @brief  Configures the specified I2C own address2.
 490:STM32F4xx_LIB/periph/src/stm32f4xx_i2c.c ****   * @param  I2Cx: where x can be 1, 2 or 3 to select the I2C peripheral.
 491:STM32F4xx_LIB/periph/src/stm32f4xx_i2c.c ****   * @param  Address: specifies the 7bit I2C own address2.
 492:STM32F4xx_LIB/periph/src/stm32f4xx_i2c.c ****   * @retval None.
 493:STM32F4xx_LIB/periph/src/stm32f4xx_i2c.c ****   */
 494:STM32F4xx_LIB/periph/src/stm32f4xx_i2c.c **** void I2C_OwnAddress2Config(I2C_TypeDef* I2Cx, uint8_t Address)
 495:STM32F4xx_LIB/periph/src/stm32f4xx_i2c.c **** {
 708              		.loc 1 495 1 is_stmt 1 view -0
 709              		.cfi_startproc
 710              		@ args = 0, pretend = 0, frame = 0
 711              		@ frame_needed = 0, uses_anonymous_args = 0
 712              		@ link register save eliminated.
 496:STM32F4xx_LIB/periph/src/stm32f4xx_i2c.c ****   uint16_t tmpreg = 0;
 713              		.loc 1 496 3 view .LVU206
 497:STM32F4xx_LIB/periph/src/stm32f4xx_i2c.c **** 
 498:STM32F4xx_LIB/periph/src/stm32f4xx_i2c.c ****   /* Check the parameters */
 499:STM32F4xx_LIB/periph/src/stm32f4xx_i2c.c ****   assert_param(IS_I2C_ALL_PERIPH(I2Cx));
 714              		.loc 1 499 3 view .LVU207
 500:STM32F4xx_LIB/periph/src/stm32f4xx_i2c.c **** 
 501:STM32F4xx_LIB/periph/src/stm32f4xx_i2c.c ****   /* Get the old register value */
 502:STM32F4xx_LIB/periph/src/stm32f4xx_i2c.c ****   tmpreg = I2Cx->OAR2;
 715              		.loc 1 502 3 view .LVU208
 716              		.loc 1 502 10 is_stmt 0 view .LVU209
 717 0000 8389     		ldrh	r3, [r0, #12]
 718 0002 9BB2     		uxth	r3, r3
 719              	.LVL61:
 503:STM32F4xx_LIB/periph/src/stm32f4xx_i2c.c **** 
 504:STM32F4xx_LIB/periph/src/stm32f4xx_i2c.c ****   /* Reset I2Cx Own address2 bit [7:1] */
 505:STM32F4xx_LIB/periph/src/stm32f4xx_i2c.c ****   tmpreg &= (uint16_t)~((uint16_t)I2C_OAR2_ADD2);
 720              		.loc 1 505 3 is_stmt 1 view .LVU210
 721              		.loc 1 505 10 is_stmt 0 view .LVU211
 722 0004 23F0FE03 		bic	r3, r3, #254
 723              	.LVL62:
 506:STM32F4xx_LIB/periph/src/stm32f4xx_i2c.c **** 
 507:STM32F4xx_LIB/periph/src/stm32f4xx_i2c.c ****   /* Set I2Cx Own address2 */
 508:STM32F4xx_LIB/periph/src/stm32f4xx_i2c.c ****   tmpreg |= (uint16_t)((uint16_t)Address & (uint16_t)0x00FE);
 724              		.loc 1 508 3 is_stmt 1 view .LVU212
 725              		.loc 1 508 13 is_stmt 0 view .LVU213
 726 0008 01F0FE01 		and	r1, r1, #254
 727              	.LVL63:
 728              		.loc 1 508 10 view .LVU214
 729 000c 0B43     		orrs	r3, r3, r1
ARM GAS  C:\Users\京垓\AppData\Local\Temp\ccBmAlt6.s 			page 23


 730              	.LVL64:
 509:STM32F4xx_LIB/periph/src/stm32f4xx_i2c.c **** 
 510:STM32F4xx_LIB/periph/src/stm32f4xx_i2c.c ****   /* Store the new register value */
 511:STM32F4xx_LIB/periph/src/stm32f4xx_i2c.c ****   I2Cx->OAR2 = tmpreg;
 731              		.loc 1 511 3 is_stmt 1 view .LVU215
 732              		.loc 1 511 14 is_stmt 0 view .LVU216
 733 000e 8381     		strh	r3, [r0, #12]	@ movhi
 512:STM32F4xx_LIB/periph/src/stm32f4xx_i2c.c **** }
 734              		.loc 1 512 1 view .LVU217
 735 0010 7047     		bx	lr
 736              		.cfi_endproc
 737              	.LFE133:
 739              		.section	.text.I2C_DualAddressCmd,"ax",%progbits
 740              		.align	1
 741              		.global	I2C_DualAddressCmd
 742              		.syntax unified
 743              		.thumb
 744              		.thumb_func
 745              		.fpu fpv4-sp-d16
 747              	I2C_DualAddressCmd:
 748              	.LVL65:
 749              	.LFB134:
 513:STM32F4xx_LIB/periph/src/stm32f4xx_i2c.c **** 
 514:STM32F4xx_LIB/periph/src/stm32f4xx_i2c.c **** /**
 515:STM32F4xx_LIB/periph/src/stm32f4xx_i2c.c ****   * @brief  Enables or disables the specified I2C dual addressing mode.
 516:STM32F4xx_LIB/periph/src/stm32f4xx_i2c.c ****   * @param  I2Cx: where x can be 1, 2 or 3 to select the I2C peripheral.
 517:STM32F4xx_LIB/periph/src/stm32f4xx_i2c.c ****   * @param  NewState: new state of the I2C dual addressing mode.
 518:STM32F4xx_LIB/periph/src/stm32f4xx_i2c.c ****   *          This parameter can be: ENABLE or DISABLE.
 519:STM32F4xx_LIB/periph/src/stm32f4xx_i2c.c ****   * @retval None
 520:STM32F4xx_LIB/periph/src/stm32f4xx_i2c.c ****   */
 521:STM32F4xx_LIB/periph/src/stm32f4xx_i2c.c **** void I2C_DualAddressCmd(I2C_TypeDef* I2Cx, FunctionalState NewState)
 522:STM32F4xx_LIB/periph/src/stm32f4xx_i2c.c **** {
 750              		.loc 1 522 1 is_stmt 1 view -0
 751              		.cfi_startproc
 752              		@ args = 0, pretend = 0, frame = 0
 753              		@ frame_needed = 0, uses_anonymous_args = 0
 754              		@ link register save eliminated.
 523:STM32F4xx_LIB/periph/src/stm32f4xx_i2c.c ****   /* Check the parameters */
 524:STM32F4xx_LIB/periph/src/stm32f4xx_i2c.c ****   assert_param(IS_I2C_ALL_PERIPH(I2Cx));
 755              		.loc 1 524 3 view .LVU219
 525:STM32F4xx_LIB/periph/src/stm32f4xx_i2c.c ****   assert_param(IS_FUNCTIONAL_STATE(NewState));
 756              		.loc 1 525 3 view .LVU220
 526:STM32F4xx_LIB/periph/src/stm32f4xx_i2c.c ****   if (NewState != DISABLE)
 757              		.loc 1 526 3 view .LVU221
 758              		.loc 1 526 6 is_stmt 0 view .LVU222
 759 0000 29B1     		cbz	r1, .L45
 527:STM32F4xx_LIB/periph/src/stm32f4xx_i2c.c ****   {
 528:STM32F4xx_LIB/periph/src/stm32f4xx_i2c.c ****     /* Enable dual addressing mode */
 529:STM32F4xx_LIB/periph/src/stm32f4xx_i2c.c ****     I2Cx->OAR2 |= I2C_OAR2_ENDUAL;
 760              		.loc 1 529 5 is_stmt 1 view .LVU223
 761              		.loc 1 529 16 is_stmt 0 view .LVU224
 762 0002 8389     		ldrh	r3, [r0, #12]
 763 0004 9BB2     		uxth	r3, r3
 764 0006 43F00103 		orr	r3, r3, #1
 765 000a 8381     		strh	r3, [r0, #12]	@ movhi
 766 000c 7047     		bx	lr
 767              	.L45:
ARM GAS  C:\Users\京垓\AppData\Local\Temp\ccBmAlt6.s 			page 24


 530:STM32F4xx_LIB/periph/src/stm32f4xx_i2c.c ****   }
 531:STM32F4xx_LIB/periph/src/stm32f4xx_i2c.c ****   else
 532:STM32F4xx_LIB/periph/src/stm32f4xx_i2c.c ****   {
 533:STM32F4xx_LIB/periph/src/stm32f4xx_i2c.c ****     /* Disable dual addressing mode */
 534:STM32F4xx_LIB/periph/src/stm32f4xx_i2c.c ****     I2Cx->OAR2 &= (uint16_t)~((uint16_t)I2C_OAR2_ENDUAL);
 768              		.loc 1 534 5 is_stmt 1 view .LVU225
 769              		.loc 1 534 16 is_stmt 0 view .LVU226
 770 000e 8389     		ldrh	r3, [r0, #12]
 771 0010 9BB2     		uxth	r3, r3
 772 0012 23F00103 		bic	r3, r3, #1
 773 0016 9BB2     		uxth	r3, r3
 774 0018 8381     		strh	r3, [r0, #12]	@ movhi
 535:STM32F4xx_LIB/periph/src/stm32f4xx_i2c.c ****   }
 536:STM32F4xx_LIB/periph/src/stm32f4xx_i2c.c **** }
 775              		.loc 1 536 1 view .LVU227
 776 001a 7047     		bx	lr
 777              		.cfi_endproc
 778              	.LFE134:
 780              		.section	.text.I2C_GeneralCallCmd,"ax",%progbits
 781              		.align	1
 782              		.global	I2C_GeneralCallCmd
 783              		.syntax unified
 784              		.thumb
 785              		.thumb_func
 786              		.fpu fpv4-sp-d16
 788              	I2C_GeneralCallCmd:
 789              	.LVL66:
 790              	.LFB135:
 537:STM32F4xx_LIB/periph/src/stm32f4xx_i2c.c **** 
 538:STM32F4xx_LIB/periph/src/stm32f4xx_i2c.c **** /**
 539:STM32F4xx_LIB/periph/src/stm32f4xx_i2c.c ****   * @brief  Enables or disables the specified I2C general call feature.
 540:STM32F4xx_LIB/periph/src/stm32f4xx_i2c.c ****   * @param  I2Cx: where x can be 1, 2 or 3 to select the I2C peripheral.
 541:STM32F4xx_LIB/periph/src/stm32f4xx_i2c.c ****   * @param  NewState: new state of the I2C General call.
 542:STM32F4xx_LIB/periph/src/stm32f4xx_i2c.c ****   *          This parameter can be: ENABLE or DISABLE.
 543:STM32F4xx_LIB/periph/src/stm32f4xx_i2c.c ****   * @retval None
 544:STM32F4xx_LIB/periph/src/stm32f4xx_i2c.c ****   */
 545:STM32F4xx_LIB/periph/src/stm32f4xx_i2c.c **** void I2C_GeneralCallCmd(I2C_TypeDef* I2Cx, FunctionalState NewState)
 546:STM32F4xx_LIB/periph/src/stm32f4xx_i2c.c **** {
 791              		.loc 1 546 1 is_stmt 1 view -0
 792              		.cfi_startproc
 793              		@ args = 0, pretend = 0, frame = 0
 794              		@ frame_needed = 0, uses_anonymous_args = 0
 795              		@ link register save eliminated.
 547:STM32F4xx_LIB/periph/src/stm32f4xx_i2c.c ****   /* Check the parameters */
 548:STM32F4xx_LIB/periph/src/stm32f4xx_i2c.c ****   assert_param(IS_I2C_ALL_PERIPH(I2Cx));
 796              		.loc 1 548 3 view .LVU229
 549:STM32F4xx_LIB/periph/src/stm32f4xx_i2c.c ****   assert_param(IS_FUNCTIONAL_STATE(NewState));
 797              		.loc 1 549 3 view .LVU230
 550:STM32F4xx_LIB/periph/src/stm32f4xx_i2c.c ****   if (NewState != DISABLE)
 798              		.loc 1 550 3 view .LVU231
 799              		.loc 1 550 6 is_stmt 0 view .LVU232
 800 0000 29B1     		cbz	r1, .L48
 551:STM32F4xx_LIB/periph/src/stm32f4xx_i2c.c ****   {
 552:STM32F4xx_LIB/periph/src/stm32f4xx_i2c.c ****     /* Enable general call */
 553:STM32F4xx_LIB/periph/src/stm32f4xx_i2c.c ****     I2Cx->CR1 |= I2C_CR1_ENGC;
 801              		.loc 1 553 5 is_stmt 1 view .LVU233
 802              		.loc 1 553 15 is_stmt 0 view .LVU234
ARM GAS  C:\Users\京垓\AppData\Local\Temp\ccBmAlt6.s 			page 25


 803 0002 0388     		ldrh	r3, [r0]
 804 0004 9BB2     		uxth	r3, r3
 805 0006 43F04003 		orr	r3, r3, #64
 806 000a 0380     		strh	r3, [r0]	@ movhi
 807 000c 7047     		bx	lr
 808              	.L48:
 554:STM32F4xx_LIB/periph/src/stm32f4xx_i2c.c ****   }
 555:STM32F4xx_LIB/periph/src/stm32f4xx_i2c.c ****   else
 556:STM32F4xx_LIB/periph/src/stm32f4xx_i2c.c ****   {
 557:STM32F4xx_LIB/periph/src/stm32f4xx_i2c.c ****     /* Disable general call */
 558:STM32F4xx_LIB/periph/src/stm32f4xx_i2c.c ****     I2Cx->CR1 &= (uint16_t)~((uint16_t)I2C_CR1_ENGC);
 809              		.loc 1 558 5 is_stmt 1 view .LVU235
 810              		.loc 1 558 15 is_stmt 0 view .LVU236
 811 000e 0388     		ldrh	r3, [r0]
 812 0010 9BB2     		uxth	r3, r3
 813 0012 23F04003 		bic	r3, r3, #64
 814 0016 9BB2     		uxth	r3, r3
 815 0018 0380     		strh	r3, [r0]	@ movhi
 559:STM32F4xx_LIB/periph/src/stm32f4xx_i2c.c ****   }
 560:STM32F4xx_LIB/periph/src/stm32f4xx_i2c.c **** }
 816              		.loc 1 560 1 view .LVU237
 817 001a 7047     		bx	lr
 818              		.cfi_endproc
 819              	.LFE135:
 821              		.section	.text.I2C_SoftwareResetCmd,"ax",%progbits
 822              		.align	1
 823              		.global	I2C_SoftwareResetCmd
 824              		.syntax unified
 825              		.thumb
 826              		.thumb_func
 827              		.fpu fpv4-sp-d16
 829              	I2C_SoftwareResetCmd:
 830              	.LVL67:
 831              	.LFB136:
 561:STM32F4xx_LIB/periph/src/stm32f4xx_i2c.c **** 
 562:STM32F4xx_LIB/periph/src/stm32f4xx_i2c.c **** /**
 563:STM32F4xx_LIB/periph/src/stm32f4xx_i2c.c ****   * @brief  Enables or disables the specified I2C software reset.
 564:STM32F4xx_LIB/periph/src/stm32f4xx_i2c.c ****   * @note   When software reset is enabled, the I2C IOs are released (this can
 565:STM32F4xx_LIB/periph/src/stm32f4xx_i2c.c ****   *         be useful to recover from bus errors).  
 566:STM32F4xx_LIB/periph/src/stm32f4xx_i2c.c ****   * @param  I2Cx: where x can be 1, 2 or 3 to select the I2C peripheral.
 567:STM32F4xx_LIB/periph/src/stm32f4xx_i2c.c ****   * @param  NewState: new state of the I2C software reset.
 568:STM32F4xx_LIB/periph/src/stm32f4xx_i2c.c ****   *          This parameter can be: ENABLE or DISABLE.
 569:STM32F4xx_LIB/periph/src/stm32f4xx_i2c.c ****   * @retval None
 570:STM32F4xx_LIB/periph/src/stm32f4xx_i2c.c ****   */
 571:STM32F4xx_LIB/periph/src/stm32f4xx_i2c.c **** void I2C_SoftwareResetCmd(I2C_TypeDef* I2Cx, FunctionalState NewState)
 572:STM32F4xx_LIB/periph/src/stm32f4xx_i2c.c **** {
 832              		.loc 1 572 1 is_stmt 1 view -0
 833              		.cfi_startproc
 834              		@ args = 0, pretend = 0, frame = 0
 835              		@ frame_needed = 0, uses_anonymous_args = 0
 836              		@ link register save eliminated.
 573:STM32F4xx_LIB/periph/src/stm32f4xx_i2c.c ****   /* Check the parameters */
 574:STM32F4xx_LIB/periph/src/stm32f4xx_i2c.c ****   assert_param(IS_I2C_ALL_PERIPH(I2Cx));
 837              		.loc 1 574 3 view .LVU239
 575:STM32F4xx_LIB/periph/src/stm32f4xx_i2c.c ****   assert_param(IS_FUNCTIONAL_STATE(NewState));
 838              		.loc 1 575 3 view .LVU240
 576:STM32F4xx_LIB/periph/src/stm32f4xx_i2c.c ****   if (NewState != DISABLE)
ARM GAS  C:\Users\京垓\AppData\Local\Temp\ccBmAlt6.s 			page 26


 839              		.loc 1 576 3 view .LVU241
 840              		.loc 1 576 6 is_stmt 0 view .LVU242
 841 0000 39B1     		cbz	r1, .L51
 577:STM32F4xx_LIB/periph/src/stm32f4xx_i2c.c ****   {
 578:STM32F4xx_LIB/periph/src/stm32f4xx_i2c.c ****     /* Peripheral under reset */
 579:STM32F4xx_LIB/periph/src/stm32f4xx_i2c.c ****     I2Cx->CR1 |= I2C_CR1_SWRST;
 842              		.loc 1 579 5 is_stmt 1 view .LVU243
 843              		.loc 1 579 15 is_stmt 0 view .LVU244
 844 0002 0388     		ldrh	r3, [r0]
 845 0004 6FEA4343 		mvn	r3, r3, lsl #17
 846 0008 6FEA5343 		mvn	r3, r3, lsr #17
 847 000c 9BB2     		uxth	r3, r3
 848 000e 0380     		strh	r3, [r0]	@ movhi
 849 0010 7047     		bx	lr
 850              	.L51:
 580:STM32F4xx_LIB/periph/src/stm32f4xx_i2c.c ****   }
 581:STM32F4xx_LIB/periph/src/stm32f4xx_i2c.c ****   else
 582:STM32F4xx_LIB/periph/src/stm32f4xx_i2c.c ****   {
 583:STM32F4xx_LIB/periph/src/stm32f4xx_i2c.c ****     /* Peripheral not under reset */
 584:STM32F4xx_LIB/periph/src/stm32f4xx_i2c.c ****     I2Cx->CR1 &= (uint16_t)~((uint16_t)I2C_CR1_SWRST);
 851              		.loc 1 584 5 is_stmt 1 view .LVU245
 852              		.loc 1 584 15 is_stmt 0 view .LVU246
 853 0012 0388     		ldrh	r3, [r0]
 854 0014 C3F30E03 		ubfx	r3, r3, #0, #15
 855 0018 0380     		strh	r3, [r0]	@ movhi
 585:STM32F4xx_LIB/periph/src/stm32f4xx_i2c.c ****   }
 586:STM32F4xx_LIB/periph/src/stm32f4xx_i2c.c **** }
 856              		.loc 1 586 1 view .LVU247
 857 001a 7047     		bx	lr
 858              		.cfi_endproc
 859              	.LFE136:
 861              		.section	.text.I2C_StretchClockCmd,"ax",%progbits
 862              		.align	1
 863              		.global	I2C_StretchClockCmd
 864              		.syntax unified
 865              		.thumb
 866              		.thumb_func
 867              		.fpu fpv4-sp-d16
 869              	I2C_StretchClockCmd:
 870              	.LVL68:
 871              	.LFB137:
 587:STM32F4xx_LIB/periph/src/stm32f4xx_i2c.c **** 
 588:STM32F4xx_LIB/periph/src/stm32f4xx_i2c.c **** /**
 589:STM32F4xx_LIB/periph/src/stm32f4xx_i2c.c ****   * @brief  Enables or disables the specified I2C Clock stretching.
 590:STM32F4xx_LIB/periph/src/stm32f4xx_i2c.c ****   * @param  I2Cx: where x can be 1, 2 or 3 to select the I2C peripheral.
 591:STM32F4xx_LIB/periph/src/stm32f4xx_i2c.c ****   * @param  NewState: new state of the I2Cx Clock stretching.
 592:STM32F4xx_LIB/periph/src/stm32f4xx_i2c.c ****   *          This parameter can be: ENABLE or DISABLE.
 593:STM32F4xx_LIB/periph/src/stm32f4xx_i2c.c ****   * @retval None
 594:STM32F4xx_LIB/periph/src/stm32f4xx_i2c.c ****   */
 595:STM32F4xx_LIB/periph/src/stm32f4xx_i2c.c **** void I2C_StretchClockCmd(I2C_TypeDef* I2Cx, FunctionalState NewState)
 596:STM32F4xx_LIB/periph/src/stm32f4xx_i2c.c **** {
 872              		.loc 1 596 1 is_stmt 1 view -0
 873              		.cfi_startproc
 874              		@ args = 0, pretend = 0, frame = 0
 875              		@ frame_needed = 0, uses_anonymous_args = 0
 876              		@ link register save eliminated.
 597:STM32F4xx_LIB/periph/src/stm32f4xx_i2c.c ****   /* Check the parameters */
ARM GAS  C:\Users\京垓\AppData\Local\Temp\ccBmAlt6.s 			page 27


 598:STM32F4xx_LIB/periph/src/stm32f4xx_i2c.c ****   assert_param(IS_I2C_ALL_PERIPH(I2Cx));
 877              		.loc 1 598 3 view .LVU249
 599:STM32F4xx_LIB/periph/src/stm32f4xx_i2c.c ****   assert_param(IS_FUNCTIONAL_STATE(NewState));
 878              		.loc 1 599 3 view .LVU250
 600:STM32F4xx_LIB/periph/src/stm32f4xx_i2c.c ****   if (NewState == DISABLE)
 879              		.loc 1 600 3 view .LVU251
 880              		.loc 1 600 6 is_stmt 0 view .LVU252
 881 0000 29B9     		cbnz	r1, .L54
 601:STM32F4xx_LIB/periph/src/stm32f4xx_i2c.c ****   {
 602:STM32F4xx_LIB/periph/src/stm32f4xx_i2c.c ****     /* Enable the selected I2C Clock stretching */
 603:STM32F4xx_LIB/periph/src/stm32f4xx_i2c.c ****     I2Cx->CR1 |= I2C_CR1_NOSTRETCH;
 882              		.loc 1 603 5 is_stmt 1 view .LVU253
 883              		.loc 1 603 15 is_stmt 0 view .LVU254
 884 0002 0388     		ldrh	r3, [r0]
 885 0004 9BB2     		uxth	r3, r3
 886 0006 43F08003 		orr	r3, r3, #128
 887 000a 0380     		strh	r3, [r0]	@ movhi
 888 000c 7047     		bx	lr
 889              	.L54:
 604:STM32F4xx_LIB/periph/src/stm32f4xx_i2c.c ****   }
 605:STM32F4xx_LIB/periph/src/stm32f4xx_i2c.c ****   else
 606:STM32F4xx_LIB/periph/src/stm32f4xx_i2c.c ****   {
 607:STM32F4xx_LIB/periph/src/stm32f4xx_i2c.c ****     /* Disable the selected I2C Clock stretching */
 608:STM32F4xx_LIB/periph/src/stm32f4xx_i2c.c ****     I2Cx->CR1 &= (uint16_t)~((uint16_t)I2C_CR1_NOSTRETCH);
 890              		.loc 1 608 5 is_stmt 1 view .LVU255
 891              		.loc 1 608 15 is_stmt 0 view .LVU256
 892 000e 0388     		ldrh	r3, [r0]
 893 0010 9BB2     		uxth	r3, r3
 894 0012 23F08003 		bic	r3, r3, #128
 895 0016 9BB2     		uxth	r3, r3
 896 0018 0380     		strh	r3, [r0]	@ movhi
 609:STM32F4xx_LIB/periph/src/stm32f4xx_i2c.c ****   }
 610:STM32F4xx_LIB/periph/src/stm32f4xx_i2c.c **** }
 897              		.loc 1 610 1 view .LVU257
 898 001a 7047     		bx	lr
 899              		.cfi_endproc
 900              	.LFE137:
 902              		.section	.text.I2C_FastModeDutyCycleConfig,"ax",%progbits
 903              		.align	1
 904              		.global	I2C_FastModeDutyCycleConfig
 905              		.syntax unified
 906              		.thumb
 907              		.thumb_func
 908              		.fpu fpv4-sp-d16
 910              	I2C_FastModeDutyCycleConfig:
 911              	.LVL69:
 912              	.LFB138:
 611:STM32F4xx_LIB/periph/src/stm32f4xx_i2c.c **** 
 612:STM32F4xx_LIB/periph/src/stm32f4xx_i2c.c **** /**
 613:STM32F4xx_LIB/periph/src/stm32f4xx_i2c.c ****   * @brief  Selects the specified I2C fast mode duty cycle.
 614:STM32F4xx_LIB/periph/src/stm32f4xx_i2c.c ****   * @param  I2Cx: where x can be 1, 2 or 3 to select the I2C peripheral.
 615:STM32F4xx_LIB/periph/src/stm32f4xx_i2c.c ****   * @param  I2C_DutyCycle: specifies the fast mode duty cycle.
 616:STM32F4xx_LIB/periph/src/stm32f4xx_i2c.c ****   *          This parameter can be one of the following values:
 617:STM32F4xx_LIB/periph/src/stm32f4xx_i2c.c ****   *            @arg I2C_DutyCycle_2: I2C fast mode Tlow/Thigh = 2
 618:STM32F4xx_LIB/periph/src/stm32f4xx_i2c.c ****   *            @arg I2C_DutyCycle_16_9: I2C fast mode Tlow/Thigh = 16/9
 619:STM32F4xx_LIB/periph/src/stm32f4xx_i2c.c ****   * @retval None
 620:STM32F4xx_LIB/periph/src/stm32f4xx_i2c.c ****   */
ARM GAS  C:\Users\京垓\AppData\Local\Temp\ccBmAlt6.s 			page 28


 621:STM32F4xx_LIB/periph/src/stm32f4xx_i2c.c **** void I2C_FastModeDutyCycleConfig(I2C_TypeDef* I2Cx, uint16_t I2C_DutyCycle)
 622:STM32F4xx_LIB/periph/src/stm32f4xx_i2c.c **** {
 913              		.loc 1 622 1 is_stmt 1 view -0
 914              		.cfi_startproc
 915              		@ args = 0, pretend = 0, frame = 0
 916              		@ frame_needed = 0, uses_anonymous_args = 0
 917              		@ link register save eliminated.
 623:STM32F4xx_LIB/periph/src/stm32f4xx_i2c.c ****   /* Check the parameters */
 624:STM32F4xx_LIB/periph/src/stm32f4xx_i2c.c ****   assert_param(IS_I2C_ALL_PERIPH(I2Cx));
 918              		.loc 1 624 3 view .LVU259
 625:STM32F4xx_LIB/periph/src/stm32f4xx_i2c.c ****   assert_param(IS_I2C_DUTY_CYCLE(I2C_DutyCycle));
 919              		.loc 1 625 3 view .LVU260
 626:STM32F4xx_LIB/periph/src/stm32f4xx_i2c.c ****   if (I2C_DutyCycle != I2C_DutyCycle_16_9)
 920              		.loc 1 626 3 view .LVU261
 921              		.loc 1 626 6 is_stmt 0 view .LVU262
 922 0000 B1F5804F 		cmp	r1, #16384
 923 0004 06D0     		beq	.L57
 627:STM32F4xx_LIB/periph/src/stm32f4xx_i2c.c ****   {
 628:STM32F4xx_LIB/periph/src/stm32f4xx_i2c.c ****     /* I2C fast mode Tlow/Thigh=2 */
 629:STM32F4xx_LIB/periph/src/stm32f4xx_i2c.c ****     I2Cx->CCR &= I2C_DutyCycle_2;
 924              		.loc 1 629 5 is_stmt 1 view .LVU263
 925              		.loc 1 629 15 is_stmt 0 view .LVU264
 926 0006 838B     		ldrh	r3, [r0, #28]
 927 0008 9BB2     		uxth	r3, r3
 928 000a 23F48043 		bic	r3, r3, #16384
 929 000e 9BB2     		uxth	r3, r3
 930 0010 8383     		strh	r3, [r0, #28]	@ movhi
 931 0012 7047     		bx	lr
 932              	.L57:
 630:STM32F4xx_LIB/periph/src/stm32f4xx_i2c.c ****   }
 631:STM32F4xx_LIB/periph/src/stm32f4xx_i2c.c ****   else
 632:STM32F4xx_LIB/periph/src/stm32f4xx_i2c.c ****   {
 633:STM32F4xx_LIB/periph/src/stm32f4xx_i2c.c ****     /* I2C fast mode Tlow/Thigh=16/9 */
 634:STM32F4xx_LIB/periph/src/stm32f4xx_i2c.c ****     I2Cx->CCR |= I2C_DutyCycle_16_9;
 933              		.loc 1 634 5 is_stmt 1 view .LVU265
 934              		.loc 1 634 15 is_stmt 0 view .LVU266
 935 0014 838B     		ldrh	r3, [r0, #28]
 936 0016 9BB2     		uxth	r3, r3
 937 0018 43F48043 		orr	r3, r3, #16384
 938 001c 8383     		strh	r3, [r0, #28]	@ movhi
 635:STM32F4xx_LIB/periph/src/stm32f4xx_i2c.c ****   }
 636:STM32F4xx_LIB/periph/src/stm32f4xx_i2c.c **** }
 939              		.loc 1 636 1 view .LVU267
 940 001e 7047     		bx	lr
 941              		.cfi_endproc
 942              	.LFE138:
 944              		.section	.text.I2C_NACKPositionConfig,"ax",%progbits
 945              		.align	1
 946              		.global	I2C_NACKPositionConfig
 947              		.syntax unified
 948              		.thumb
 949              		.thumb_func
 950              		.fpu fpv4-sp-d16
 952              	I2C_NACKPositionConfig:
 953              	.LVL70:
 954              	.LFB139:
 637:STM32F4xx_LIB/periph/src/stm32f4xx_i2c.c **** 
ARM GAS  C:\Users\京垓\AppData\Local\Temp\ccBmAlt6.s 			page 29


 638:STM32F4xx_LIB/periph/src/stm32f4xx_i2c.c **** /**
 639:STM32F4xx_LIB/periph/src/stm32f4xx_i2c.c ****   * @brief  Selects the specified I2C NACK position in master receiver mode.
 640:STM32F4xx_LIB/periph/src/stm32f4xx_i2c.c ****   * @note   This function is useful in I2C Master Receiver mode when the number
 641:STM32F4xx_LIB/periph/src/stm32f4xx_i2c.c ****   *         of data to be received is equal to 2. In this case, this function 
 642:STM32F4xx_LIB/periph/src/stm32f4xx_i2c.c ****   *         should be called (with parameter I2C_NACKPosition_Next) before data 
 643:STM32F4xx_LIB/periph/src/stm32f4xx_i2c.c ****   *         reception starts,as described in the 2-byte reception procedure 
 644:STM32F4xx_LIB/periph/src/stm32f4xx_i2c.c ****   *         recommended in Reference Manual in Section: Master receiver.                
 645:STM32F4xx_LIB/periph/src/stm32f4xx_i2c.c ****   * @param  I2Cx: where x can be 1, 2 or 3 to select the I2C peripheral.
 646:STM32F4xx_LIB/periph/src/stm32f4xx_i2c.c ****   * @param  I2C_NACKPosition: specifies the NACK position. 
 647:STM32F4xx_LIB/periph/src/stm32f4xx_i2c.c ****   *          This parameter can be one of the following values:
 648:STM32F4xx_LIB/periph/src/stm32f4xx_i2c.c ****   *            @arg I2C_NACKPosition_Next: indicates that the next byte will be the last
 649:STM32F4xx_LIB/periph/src/stm32f4xx_i2c.c ****   *                                        received byte.  
 650:STM32F4xx_LIB/periph/src/stm32f4xx_i2c.c ****   *            @arg I2C_NACKPosition_Current: indicates that current byte is the last 
 651:STM32F4xx_LIB/periph/src/stm32f4xx_i2c.c ****   *                                           received byte.
 652:STM32F4xx_LIB/periph/src/stm32f4xx_i2c.c ****   *            
 653:STM32F4xx_LIB/periph/src/stm32f4xx_i2c.c ****   * @note    This function configures the same bit (POS) as I2C_PECPositionConfig() 
 654:STM32F4xx_LIB/periph/src/stm32f4xx_i2c.c ****   *          but is intended to be used in I2C mode while I2C_PECPositionConfig() 
 655:STM32F4xx_LIB/periph/src/stm32f4xx_i2c.c ****   *          is intended to used in SMBUS mode. 
 656:STM32F4xx_LIB/periph/src/stm32f4xx_i2c.c ****   *            
 657:STM32F4xx_LIB/periph/src/stm32f4xx_i2c.c ****   * @retval None
 658:STM32F4xx_LIB/periph/src/stm32f4xx_i2c.c ****   */
 659:STM32F4xx_LIB/periph/src/stm32f4xx_i2c.c **** void I2C_NACKPositionConfig(I2C_TypeDef* I2Cx, uint16_t I2C_NACKPosition)
 660:STM32F4xx_LIB/periph/src/stm32f4xx_i2c.c **** {
 955              		.loc 1 660 1 is_stmt 1 view -0
 956              		.cfi_startproc
 957              		@ args = 0, pretend = 0, frame = 0
 958              		@ frame_needed = 0, uses_anonymous_args = 0
 959              		@ link register save eliminated.
 661:STM32F4xx_LIB/periph/src/stm32f4xx_i2c.c ****   /* Check the parameters */
 662:STM32F4xx_LIB/periph/src/stm32f4xx_i2c.c ****   assert_param(IS_I2C_ALL_PERIPH(I2Cx));
 960              		.loc 1 662 3 view .LVU269
 663:STM32F4xx_LIB/periph/src/stm32f4xx_i2c.c ****   assert_param(IS_I2C_NACK_POSITION(I2C_NACKPosition));
 961              		.loc 1 663 3 view .LVU270
 664:STM32F4xx_LIB/periph/src/stm32f4xx_i2c.c ****   
 665:STM32F4xx_LIB/periph/src/stm32f4xx_i2c.c ****   /* Check the input parameter */
 666:STM32F4xx_LIB/periph/src/stm32f4xx_i2c.c ****   if (I2C_NACKPosition == I2C_NACKPosition_Next)
 962              		.loc 1 666 3 view .LVU271
 963              		.loc 1 666 6 is_stmt 0 view .LVU272
 964 0000 B1F5006F 		cmp	r1, #2048
 965 0004 06D0     		beq	.L62
 667:STM32F4xx_LIB/periph/src/stm32f4xx_i2c.c ****   {
 668:STM32F4xx_LIB/periph/src/stm32f4xx_i2c.c ****     /* Next byte in shift register is the last received byte */
 669:STM32F4xx_LIB/periph/src/stm32f4xx_i2c.c ****     I2Cx->CR1 |= I2C_NACKPosition_Next;
 670:STM32F4xx_LIB/periph/src/stm32f4xx_i2c.c ****   }
 671:STM32F4xx_LIB/periph/src/stm32f4xx_i2c.c ****   else
 672:STM32F4xx_LIB/periph/src/stm32f4xx_i2c.c ****   {
 673:STM32F4xx_LIB/periph/src/stm32f4xx_i2c.c ****     /* Current byte in shift register is the last received byte */
 674:STM32F4xx_LIB/periph/src/stm32f4xx_i2c.c ****     I2Cx->CR1 &= I2C_NACKPosition_Current;
 966              		.loc 1 674 5 is_stmt 1 view .LVU273
 967              		.loc 1 674 15 is_stmt 0 view .LVU274
 968 0006 0388     		ldrh	r3, [r0]
 969 0008 9BB2     		uxth	r3, r3
 970 000a 23F40063 		bic	r3, r3, #2048
 971 000e 9BB2     		uxth	r3, r3
 972 0010 0380     		strh	r3, [r0]	@ movhi
 675:STM32F4xx_LIB/periph/src/stm32f4xx_i2c.c ****   }
 676:STM32F4xx_LIB/periph/src/stm32f4xx_i2c.c **** }
ARM GAS  C:\Users\京垓\AppData\Local\Temp\ccBmAlt6.s 			page 30


 973              		.loc 1 676 1 view .LVU275
 974 0012 7047     		bx	lr
 975              	.L62:
 669:STM32F4xx_LIB/periph/src/stm32f4xx_i2c.c ****   }
 976              		.loc 1 669 5 is_stmt 1 view .LVU276
 669:STM32F4xx_LIB/periph/src/stm32f4xx_i2c.c ****   }
 977              		.loc 1 669 15 is_stmt 0 view .LVU277
 978 0014 0388     		ldrh	r3, [r0]
 979 0016 9BB2     		uxth	r3, r3
 980 0018 43F40063 		orr	r3, r3, #2048
 981 001c 0380     		strh	r3, [r0]	@ movhi
 982 001e 7047     		bx	lr
 983              		.cfi_endproc
 984              	.LFE139:
 986              		.section	.text.I2C_SMBusAlertConfig,"ax",%progbits
 987              		.align	1
 988              		.global	I2C_SMBusAlertConfig
 989              		.syntax unified
 990              		.thumb
 991              		.thumb_func
 992              		.fpu fpv4-sp-d16
 994              	I2C_SMBusAlertConfig:
 995              	.LVL71:
 996              	.LFB140:
 677:STM32F4xx_LIB/periph/src/stm32f4xx_i2c.c **** 
 678:STM32F4xx_LIB/periph/src/stm32f4xx_i2c.c **** /**
 679:STM32F4xx_LIB/periph/src/stm32f4xx_i2c.c ****   * @brief  Drives the SMBusAlert pin high or low for the specified I2C.
 680:STM32F4xx_LIB/periph/src/stm32f4xx_i2c.c ****   * @param  I2Cx: where x can be 1, 2 or 3 to select the I2C peripheral.
 681:STM32F4xx_LIB/periph/src/stm32f4xx_i2c.c ****   * @param  I2C_SMBusAlert: specifies SMBAlert pin level. 
 682:STM32F4xx_LIB/periph/src/stm32f4xx_i2c.c ****   *          This parameter can be one of the following values:
 683:STM32F4xx_LIB/periph/src/stm32f4xx_i2c.c ****   *            @arg I2C_SMBusAlert_Low: SMBAlert pin driven low
 684:STM32F4xx_LIB/periph/src/stm32f4xx_i2c.c ****   *            @arg I2C_SMBusAlert_High: SMBAlert pin driven high
 685:STM32F4xx_LIB/periph/src/stm32f4xx_i2c.c ****   * @retval None
 686:STM32F4xx_LIB/periph/src/stm32f4xx_i2c.c ****   */
 687:STM32F4xx_LIB/periph/src/stm32f4xx_i2c.c **** void I2C_SMBusAlertConfig(I2C_TypeDef* I2Cx, uint16_t I2C_SMBusAlert)
 688:STM32F4xx_LIB/periph/src/stm32f4xx_i2c.c **** {
 997              		.loc 1 688 1 is_stmt 1 view -0
 998              		.cfi_startproc
 999              		@ args = 0, pretend = 0, frame = 0
 1000              		@ frame_needed = 0, uses_anonymous_args = 0
 1001              		@ link register save eliminated.
 689:STM32F4xx_LIB/periph/src/stm32f4xx_i2c.c ****   /* Check the parameters */
 690:STM32F4xx_LIB/periph/src/stm32f4xx_i2c.c ****   assert_param(IS_I2C_ALL_PERIPH(I2Cx));
 1002              		.loc 1 690 3 view .LVU279
 691:STM32F4xx_LIB/periph/src/stm32f4xx_i2c.c ****   assert_param(IS_I2C_SMBUS_ALERT(I2C_SMBusAlert));
 1003              		.loc 1 691 3 view .LVU280
 692:STM32F4xx_LIB/periph/src/stm32f4xx_i2c.c ****   if (I2C_SMBusAlert == I2C_SMBusAlert_Low)
 1004              		.loc 1 692 3 view .LVU281
 1005              		.loc 1 692 6 is_stmt 0 view .LVU282
 1006 0000 B1F5005F 		cmp	r1, #8192
 1007 0004 06D0     		beq	.L66
 693:STM32F4xx_LIB/periph/src/stm32f4xx_i2c.c ****   {
 694:STM32F4xx_LIB/periph/src/stm32f4xx_i2c.c ****     /* Drive the SMBusAlert pin Low */
 695:STM32F4xx_LIB/periph/src/stm32f4xx_i2c.c ****     I2Cx->CR1 |= I2C_SMBusAlert_Low;
 696:STM32F4xx_LIB/periph/src/stm32f4xx_i2c.c ****   }
 697:STM32F4xx_LIB/periph/src/stm32f4xx_i2c.c ****   else
 698:STM32F4xx_LIB/periph/src/stm32f4xx_i2c.c ****   {
ARM GAS  C:\Users\京垓\AppData\Local\Temp\ccBmAlt6.s 			page 31


 699:STM32F4xx_LIB/periph/src/stm32f4xx_i2c.c ****     /* Drive the SMBusAlert pin High  */
 700:STM32F4xx_LIB/periph/src/stm32f4xx_i2c.c ****     I2Cx->CR1 &= I2C_SMBusAlert_High;
 1008              		.loc 1 700 5 is_stmt 1 view .LVU283
 1009              		.loc 1 700 15 is_stmt 0 view .LVU284
 1010 0006 0388     		ldrh	r3, [r0]
 1011 0008 9BB2     		uxth	r3, r3
 1012 000a 23F40053 		bic	r3, r3, #8192
 1013 000e 9BB2     		uxth	r3, r3
 1014 0010 0380     		strh	r3, [r0]	@ movhi
 701:STM32F4xx_LIB/periph/src/stm32f4xx_i2c.c ****   }
 702:STM32F4xx_LIB/periph/src/stm32f4xx_i2c.c **** }
 1015              		.loc 1 702 1 view .LVU285
 1016 0012 7047     		bx	lr
 1017              	.L66:
 695:STM32F4xx_LIB/periph/src/stm32f4xx_i2c.c ****   }
 1018              		.loc 1 695 5 is_stmt 1 view .LVU286
 695:STM32F4xx_LIB/periph/src/stm32f4xx_i2c.c ****   }
 1019              		.loc 1 695 15 is_stmt 0 view .LVU287
 1020 0014 0388     		ldrh	r3, [r0]
 1021 0016 9BB2     		uxth	r3, r3
 1022 0018 43F40053 		orr	r3, r3, #8192
 1023 001c 0380     		strh	r3, [r0]	@ movhi
 1024 001e 7047     		bx	lr
 1025              		.cfi_endproc
 1026              	.LFE140:
 1028              		.section	.text.I2C_ARPCmd,"ax",%progbits
 1029              		.align	1
 1030              		.global	I2C_ARPCmd
 1031              		.syntax unified
 1032              		.thumb
 1033              		.thumb_func
 1034              		.fpu fpv4-sp-d16
 1036              	I2C_ARPCmd:
 1037              	.LVL72:
 1038              	.LFB141:
 703:STM32F4xx_LIB/periph/src/stm32f4xx_i2c.c **** 
 704:STM32F4xx_LIB/periph/src/stm32f4xx_i2c.c **** /**
 705:STM32F4xx_LIB/periph/src/stm32f4xx_i2c.c ****   * @brief  Enables or disables the specified I2C ARP.
 706:STM32F4xx_LIB/periph/src/stm32f4xx_i2c.c ****   * @param  I2Cx: where x can be 1, 2 or 3 to select the I2C peripheral.
 707:STM32F4xx_LIB/periph/src/stm32f4xx_i2c.c ****   * @param  NewState: new state of the I2Cx ARP. 
 708:STM32F4xx_LIB/periph/src/stm32f4xx_i2c.c ****   *          This parameter can be: ENABLE or DISABLE.
 709:STM32F4xx_LIB/periph/src/stm32f4xx_i2c.c ****   * @retval None
 710:STM32F4xx_LIB/periph/src/stm32f4xx_i2c.c ****   */
 711:STM32F4xx_LIB/periph/src/stm32f4xx_i2c.c **** void I2C_ARPCmd(I2C_TypeDef* I2Cx, FunctionalState NewState)
 712:STM32F4xx_LIB/periph/src/stm32f4xx_i2c.c **** {
 1039              		.loc 1 712 1 is_stmt 1 view -0
 1040              		.cfi_startproc
 1041              		@ args = 0, pretend = 0, frame = 0
 1042              		@ frame_needed = 0, uses_anonymous_args = 0
 1043              		@ link register save eliminated.
 713:STM32F4xx_LIB/periph/src/stm32f4xx_i2c.c ****   /* Check the parameters */
 714:STM32F4xx_LIB/periph/src/stm32f4xx_i2c.c ****   assert_param(IS_I2C_ALL_PERIPH(I2Cx));
 1044              		.loc 1 714 3 view .LVU289
 715:STM32F4xx_LIB/periph/src/stm32f4xx_i2c.c ****   assert_param(IS_FUNCTIONAL_STATE(NewState));
 1045              		.loc 1 715 3 view .LVU290
 716:STM32F4xx_LIB/periph/src/stm32f4xx_i2c.c ****   if (NewState != DISABLE)
 1046              		.loc 1 716 3 view .LVU291
ARM GAS  C:\Users\京垓\AppData\Local\Temp\ccBmAlt6.s 			page 32


 1047              		.loc 1 716 6 is_stmt 0 view .LVU292
 1048 0000 29B1     		cbz	r1, .L68
 717:STM32F4xx_LIB/periph/src/stm32f4xx_i2c.c ****   {
 718:STM32F4xx_LIB/periph/src/stm32f4xx_i2c.c ****     /* Enable the selected I2C ARP */
 719:STM32F4xx_LIB/periph/src/stm32f4xx_i2c.c ****     I2Cx->CR1 |= I2C_CR1_ENARP;
 1049              		.loc 1 719 5 is_stmt 1 view .LVU293
 1050              		.loc 1 719 15 is_stmt 0 view .LVU294
 1051 0002 0388     		ldrh	r3, [r0]
 1052 0004 9BB2     		uxth	r3, r3
 1053 0006 43F01003 		orr	r3, r3, #16
 1054 000a 0380     		strh	r3, [r0]	@ movhi
 1055 000c 7047     		bx	lr
 1056              	.L68:
 720:STM32F4xx_LIB/periph/src/stm32f4xx_i2c.c ****   }
 721:STM32F4xx_LIB/periph/src/stm32f4xx_i2c.c ****   else
 722:STM32F4xx_LIB/periph/src/stm32f4xx_i2c.c ****   {
 723:STM32F4xx_LIB/periph/src/stm32f4xx_i2c.c ****     /* Disable the selected I2C ARP */
 724:STM32F4xx_LIB/periph/src/stm32f4xx_i2c.c ****     I2Cx->CR1 &= (uint16_t)~((uint16_t)I2C_CR1_ENARP);
 1057              		.loc 1 724 5 is_stmt 1 view .LVU295
 1058              		.loc 1 724 15 is_stmt 0 view .LVU296
 1059 000e 0388     		ldrh	r3, [r0]
 1060 0010 9BB2     		uxth	r3, r3
 1061 0012 23F01003 		bic	r3, r3, #16
 1062 0016 9BB2     		uxth	r3, r3
 1063 0018 0380     		strh	r3, [r0]	@ movhi
 725:STM32F4xx_LIB/periph/src/stm32f4xx_i2c.c ****   }
 726:STM32F4xx_LIB/periph/src/stm32f4xx_i2c.c **** }
 1064              		.loc 1 726 1 view .LVU297
 1065 001a 7047     		bx	lr
 1066              		.cfi_endproc
 1067              	.LFE141:
 1069              		.section	.text.I2C_SendData,"ax",%progbits
 1070              		.align	1
 1071              		.global	I2C_SendData
 1072              		.syntax unified
 1073              		.thumb
 1074              		.thumb_func
 1075              		.fpu fpv4-sp-d16
 1077              	I2C_SendData:
 1078              	.LVL73:
 1079              	.LFB142:
 727:STM32F4xx_LIB/periph/src/stm32f4xx_i2c.c **** /**
 728:STM32F4xx_LIB/periph/src/stm32f4xx_i2c.c ****   * @}
 729:STM32F4xx_LIB/periph/src/stm32f4xx_i2c.c ****   */
 730:STM32F4xx_LIB/periph/src/stm32f4xx_i2c.c **** 
 731:STM32F4xx_LIB/periph/src/stm32f4xx_i2c.c **** /** @defgroup I2C_Group2 Data transfers functions
 732:STM32F4xx_LIB/periph/src/stm32f4xx_i2c.c ****  *  @brief   Data transfers functions 
 733:STM32F4xx_LIB/periph/src/stm32f4xx_i2c.c ****  *
 734:STM32F4xx_LIB/periph/src/stm32f4xx_i2c.c **** @verbatim   
 735:STM32F4xx_LIB/periph/src/stm32f4xx_i2c.c ****  ===============================================================================
 736:STM32F4xx_LIB/periph/src/stm32f4xx_i2c.c ****                   ##### Data transfers functions #####
 737:STM32F4xx_LIB/periph/src/stm32f4xx_i2c.c ****  ===============================================================================  
 738:STM32F4xx_LIB/periph/src/stm32f4xx_i2c.c **** 
 739:STM32F4xx_LIB/periph/src/stm32f4xx_i2c.c **** @endverbatim
 740:STM32F4xx_LIB/periph/src/stm32f4xx_i2c.c ****   * @{
 741:STM32F4xx_LIB/periph/src/stm32f4xx_i2c.c ****   */
 742:STM32F4xx_LIB/periph/src/stm32f4xx_i2c.c **** 
ARM GAS  C:\Users\京垓\AppData\Local\Temp\ccBmAlt6.s 			page 33


 743:STM32F4xx_LIB/periph/src/stm32f4xx_i2c.c **** /**
 744:STM32F4xx_LIB/periph/src/stm32f4xx_i2c.c ****   * @brief  Sends a data byte through the I2Cx peripheral.
 745:STM32F4xx_LIB/periph/src/stm32f4xx_i2c.c ****   * @param  I2Cx: where x can be 1, 2 or 3 to select the I2C peripheral.
 746:STM32F4xx_LIB/periph/src/stm32f4xx_i2c.c ****   * @param  Data: Byte to be transmitted..
 747:STM32F4xx_LIB/periph/src/stm32f4xx_i2c.c ****   * @retval None
 748:STM32F4xx_LIB/periph/src/stm32f4xx_i2c.c ****   */
 749:STM32F4xx_LIB/periph/src/stm32f4xx_i2c.c **** void I2C_SendData(I2C_TypeDef* I2Cx, uint8_t Data)
 750:STM32F4xx_LIB/periph/src/stm32f4xx_i2c.c **** {
 1080              		.loc 1 750 1 is_stmt 1 view -0
 1081              		.cfi_startproc
 1082              		@ args = 0, pretend = 0, frame = 0
 1083              		@ frame_needed = 0, uses_anonymous_args = 0
 1084              		@ link register save eliminated.
 751:STM32F4xx_LIB/periph/src/stm32f4xx_i2c.c ****   /* Check the parameters */
 752:STM32F4xx_LIB/periph/src/stm32f4xx_i2c.c ****   assert_param(IS_I2C_ALL_PERIPH(I2Cx));
 1085              		.loc 1 752 3 view .LVU299
 753:STM32F4xx_LIB/periph/src/stm32f4xx_i2c.c ****   /* Write in the DR register the data to be sent */
 754:STM32F4xx_LIB/periph/src/stm32f4xx_i2c.c ****   I2Cx->DR = Data;
 1086              		.loc 1 754 3 view .LVU300
 1087              		.loc 1 754 12 is_stmt 0 view .LVU301
 1088 0000 0182     		strh	r1, [r0, #16]	@ movhi
 755:STM32F4xx_LIB/periph/src/stm32f4xx_i2c.c **** }
 1089              		.loc 1 755 1 view .LVU302
 1090 0002 7047     		bx	lr
 1091              		.cfi_endproc
 1092              	.LFE142:
 1094              		.section	.text.I2C_ReceiveData,"ax",%progbits
 1095              		.align	1
 1096              		.global	I2C_ReceiveData
 1097              		.syntax unified
 1098              		.thumb
 1099              		.thumb_func
 1100              		.fpu fpv4-sp-d16
 1102              	I2C_ReceiveData:
 1103              	.LVL74:
 1104              	.LFB143:
 756:STM32F4xx_LIB/periph/src/stm32f4xx_i2c.c **** 
 757:STM32F4xx_LIB/periph/src/stm32f4xx_i2c.c **** /**
 758:STM32F4xx_LIB/periph/src/stm32f4xx_i2c.c ****   * @brief  Returns the most recent received data by the I2Cx peripheral.
 759:STM32F4xx_LIB/periph/src/stm32f4xx_i2c.c ****   * @param  I2Cx: where x can be 1, 2 or 3 to select the I2C peripheral.
 760:STM32F4xx_LIB/periph/src/stm32f4xx_i2c.c ****   * @retval The value of the received data.
 761:STM32F4xx_LIB/periph/src/stm32f4xx_i2c.c ****   */
 762:STM32F4xx_LIB/periph/src/stm32f4xx_i2c.c **** uint8_t I2C_ReceiveData(I2C_TypeDef* I2Cx)
 763:STM32F4xx_LIB/periph/src/stm32f4xx_i2c.c **** {
 1105              		.loc 1 763 1 is_stmt 1 view -0
 1106              		.cfi_startproc
 1107              		@ args = 0, pretend = 0, frame = 0
 1108              		@ frame_needed = 0, uses_anonymous_args = 0
 1109              		@ link register save eliminated.
 764:STM32F4xx_LIB/periph/src/stm32f4xx_i2c.c ****   /* Check the parameters */
 765:STM32F4xx_LIB/periph/src/stm32f4xx_i2c.c ****   assert_param(IS_I2C_ALL_PERIPH(I2Cx));
 1110              		.loc 1 765 3 view .LVU304
 766:STM32F4xx_LIB/periph/src/stm32f4xx_i2c.c ****   /* Return the data in the DR register */
 767:STM32F4xx_LIB/periph/src/stm32f4xx_i2c.c ****   return (uint8_t)I2Cx->DR;
 1111              		.loc 1 767 3 view .LVU305
 1112              		.loc 1 767 23 is_stmt 0 view .LVU306
 1113 0000 008A     		ldrh	r0, [r0, #16]
ARM GAS  C:\Users\京垓\AppData\Local\Temp\ccBmAlt6.s 			page 34


 1114              	.LVL75:
 768:STM32F4xx_LIB/periph/src/stm32f4xx_i2c.c **** }
 1115              		.loc 1 768 1 view .LVU307
 1116 0002 C0B2     		uxtb	r0, r0
 1117 0004 7047     		bx	lr
 1118              		.cfi_endproc
 1119              	.LFE143:
 1121              		.section	.text.I2C_TransmitPEC,"ax",%progbits
 1122              		.align	1
 1123              		.global	I2C_TransmitPEC
 1124              		.syntax unified
 1125              		.thumb
 1126              		.thumb_func
 1127              		.fpu fpv4-sp-d16
 1129              	I2C_TransmitPEC:
 1130              	.LVL76:
 1131              	.LFB144:
 769:STM32F4xx_LIB/periph/src/stm32f4xx_i2c.c **** 
 770:STM32F4xx_LIB/periph/src/stm32f4xx_i2c.c **** /**
 771:STM32F4xx_LIB/periph/src/stm32f4xx_i2c.c ****   * @}
 772:STM32F4xx_LIB/periph/src/stm32f4xx_i2c.c ****   */
 773:STM32F4xx_LIB/periph/src/stm32f4xx_i2c.c **** 
 774:STM32F4xx_LIB/periph/src/stm32f4xx_i2c.c **** /** @defgroup I2C_Group3 PEC management functions
 775:STM32F4xx_LIB/periph/src/stm32f4xx_i2c.c ****  *  @brief   PEC management functions 
 776:STM32F4xx_LIB/periph/src/stm32f4xx_i2c.c ****  *
 777:STM32F4xx_LIB/periph/src/stm32f4xx_i2c.c **** @verbatim   
 778:STM32F4xx_LIB/periph/src/stm32f4xx_i2c.c ****  ===============================================================================
 779:STM32F4xx_LIB/periph/src/stm32f4xx_i2c.c ****                   ##### PEC management functions #####
 780:STM32F4xx_LIB/periph/src/stm32f4xx_i2c.c ****  ===============================================================================  
 781:STM32F4xx_LIB/periph/src/stm32f4xx_i2c.c **** 
 782:STM32F4xx_LIB/periph/src/stm32f4xx_i2c.c **** @endverbatim
 783:STM32F4xx_LIB/periph/src/stm32f4xx_i2c.c ****   * @{
 784:STM32F4xx_LIB/periph/src/stm32f4xx_i2c.c ****   */
 785:STM32F4xx_LIB/periph/src/stm32f4xx_i2c.c **** 
 786:STM32F4xx_LIB/periph/src/stm32f4xx_i2c.c **** /**
 787:STM32F4xx_LIB/periph/src/stm32f4xx_i2c.c ****   * @brief  Enables or disables the specified I2C PEC transfer.
 788:STM32F4xx_LIB/periph/src/stm32f4xx_i2c.c ****   * @param  I2Cx: where x can be 1, 2 or 3 to select the I2C peripheral.
 789:STM32F4xx_LIB/periph/src/stm32f4xx_i2c.c ****   * @param  NewState: new state of the I2C PEC transmission.
 790:STM32F4xx_LIB/periph/src/stm32f4xx_i2c.c ****   *          This parameter can be: ENABLE or DISABLE.
 791:STM32F4xx_LIB/periph/src/stm32f4xx_i2c.c ****   * @retval None
 792:STM32F4xx_LIB/periph/src/stm32f4xx_i2c.c ****   */
 793:STM32F4xx_LIB/periph/src/stm32f4xx_i2c.c **** void I2C_TransmitPEC(I2C_TypeDef* I2Cx, FunctionalState NewState)
 794:STM32F4xx_LIB/periph/src/stm32f4xx_i2c.c **** {
 1132              		.loc 1 794 1 is_stmt 1 view -0
 1133              		.cfi_startproc
 1134              		@ args = 0, pretend = 0, frame = 0
 1135              		@ frame_needed = 0, uses_anonymous_args = 0
 1136              		@ link register save eliminated.
 795:STM32F4xx_LIB/periph/src/stm32f4xx_i2c.c ****   /* Check the parameters */
 796:STM32F4xx_LIB/periph/src/stm32f4xx_i2c.c ****   assert_param(IS_I2C_ALL_PERIPH(I2Cx));
 1137              		.loc 1 796 3 view .LVU309
 797:STM32F4xx_LIB/periph/src/stm32f4xx_i2c.c ****   assert_param(IS_FUNCTIONAL_STATE(NewState));
 1138              		.loc 1 797 3 view .LVU310
 798:STM32F4xx_LIB/periph/src/stm32f4xx_i2c.c ****   if (NewState != DISABLE)
 1139              		.loc 1 798 3 view .LVU311
 1140              		.loc 1 798 6 is_stmt 0 view .LVU312
 1141 0000 29B1     		cbz	r1, .L73
ARM GAS  C:\Users\京垓\AppData\Local\Temp\ccBmAlt6.s 			page 35


 799:STM32F4xx_LIB/periph/src/stm32f4xx_i2c.c ****   {
 800:STM32F4xx_LIB/periph/src/stm32f4xx_i2c.c ****     /* Enable the selected I2C PEC transmission */
 801:STM32F4xx_LIB/periph/src/stm32f4xx_i2c.c ****     I2Cx->CR1 |= I2C_CR1_PEC;
 1142              		.loc 1 801 5 is_stmt 1 view .LVU313
 1143              		.loc 1 801 15 is_stmt 0 view .LVU314
 1144 0002 0388     		ldrh	r3, [r0]
 1145 0004 9BB2     		uxth	r3, r3
 1146 0006 43F48053 		orr	r3, r3, #4096
 1147 000a 0380     		strh	r3, [r0]	@ movhi
 1148 000c 7047     		bx	lr
 1149              	.L73:
 802:STM32F4xx_LIB/periph/src/stm32f4xx_i2c.c ****   }
 803:STM32F4xx_LIB/periph/src/stm32f4xx_i2c.c ****   else
 804:STM32F4xx_LIB/periph/src/stm32f4xx_i2c.c ****   {
 805:STM32F4xx_LIB/periph/src/stm32f4xx_i2c.c ****     /* Disable the selected I2C PEC transmission */
 806:STM32F4xx_LIB/periph/src/stm32f4xx_i2c.c ****     I2Cx->CR1 &= (uint16_t)~((uint16_t)I2C_CR1_PEC);
 1150              		.loc 1 806 5 is_stmt 1 view .LVU315
 1151              		.loc 1 806 15 is_stmt 0 view .LVU316
 1152 000e 0388     		ldrh	r3, [r0]
 1153 0010 9BB2     		uxth	r3, r3
 1154 0012 23F48053 		bic	r3, r3, #4096
 1155 0016 9BB2     		uxth	r3, r3
 1156 0018 0380     		strh	r3, [r0]	@ movhi
 807:STM32F4xx_LIB/periph/src/stm32f4xx_i2c.c ****   }
 808:STM32F4xx_LIB/periph/src/stm32f4xx_i2c.c **** }
 1157              		.loc 1 808 1 view .LVU317
 1158 001a 7047     		bx	lr
 1159              		.cfi_endproc
 1160              	.LFE144:
 1162              		.section	.text.I2C_PECPositionConfig,"ax",%progbits
 1163              		.align	1
 1164              		.global	I2C_PECPositionConfig
 1165              		.syntax unified
 1166              		.thumb
 1167              		.thumb_func
 1168              		.fpu fpv4-sp-d16
 1170              	I2C_PECPositionConfig:
 1171              	.LVL77:
 1172              	.LFB145:
 809:STM32F4xx_LIB/periph/src/stm32f4xx_i2c.c **** 
 810:STM32F4xx_LIB/periph/src/stm32f4xx_i2c.c **** /**
 811:STM32F4xx_LIB/periph/src/stm32f4xx_i2c.c ****   * @brief  Selects the specified I2C PEC position.
 812:STM32F4xx_LIB/periph/src/stm32f4xx_i2c.c ****   * @param  I2Cx: where x can be 1, 2 or 3 to select the I2C peripheral.
 813:STM32F4xx_LIB/periph/src/stm32f4xx_i2c.c ****   * @param  I2C_PECPosition: specifies the PEC position. 
 814:STM32F4xx_LIB/periph/src/stm32f4xx_i2c.c ****   *          This parameter can be one of the following values:
 815:STM32F4xx_LIB/periph/src/stm32f4xx_i2c.c ****   *            @arg I2C_PECPosition_Next: indicates that the next byte is PEC
 816:STM32F4xx_LIB/periph/src/stm32f4xx_i2c.c ****   *            @arg I2C_PECPosition_Current: indicates that current byte is PEC
 817:STM32F4xx_LIB/periph/src/stm32f4xx_i2c.c ****   *       
 818:STM32F4xx_LIB/periph/src/stm32f4xx_i2c.c ****   * @note    This function configures the same bit (POS) as I2C_NACKPositionConfig()
 819:STM32F4xx_LIB/periph/src/stm32f4xx_i2c.c ****   *          but is intended to be used in SMBUS mode while I2C_NACKPositionConfig() 
 820:STM32F4xx_LIB/periph/src/stm32f4xx_i2c.c ****   *          is intended to used in I2C mode.
 821:STM32F4xx_LIB/periph/src/stm32f4xx_i2c.c ****   *                
 822:STM32F4xx_LIB/periph/src/stm32f4xx_i2c.c ****   * @retval None
 823:STM32F4xx_LIB/periph/src/stm32f4xx_i2c.c ****   */
 824:STM32F4xx_LIB/periph/src/stm32f4xx_i2c.c **** void I2C_PECPositionConfig(I2C_TypeDef* I2Cx, uint16_t I2C_PECPosition)
 825:STM32F4xx_LIB/periph/src/stm32f4xx_i2c.c **** {
 1173              		.loc 1 825 1 is_stmt 1 view -0
ARM GAS  C:\Users\京垓\AppData\Local\Temp\ccBmAlt6.s 			page 36


 1174              		.cfi_startproc
 1175              		@ args = 0, pretend = 0, frame = 0
 1176              		@ frame_needed = 0, uses_anonymous_args = 0
 1177              		@ link register save eliminated.
 826:STM32F4xx_LIB/periph/src/stm32f4xx_i2c.c ****   /* Check the parameters */
 827:STM32F4xx_LIB/periph/src/stm32f4xx_i2c.c ****   assert_param(IS_I2C_ALL_PERIPH(I2Cx));
 1178              		.loc 1 827 3 view .LVU319
 828:STM32F4xx_LIB/periph/src/stm32f4xx_i2c.c ****   assert_param(IS_I2C_PEC_POSITION(I2C_PECPosition));
 1179              		.loc 1 828 3 view .LVU320
 829:STM32F4xx_LIB/periph/src/stm32f4xx_i2c.c ****   if (I2C_PECPosition == I2C_PECPosition_Next)
 1180              		.loc 1 829 3 view .LVU321
 1181              		.loc 1 829 6 is_stmt 0 view .LVU322
 1182 0000 B1F5006F 		cmp	r1, #2048
 1183 0004 06D0     		beq	.L78
 830:STM32F4xx_LIB/periph/src/stm32f4xx_i2c.c ****   {
 831:STM32F4xx_LIB/periph/src/stm32f4xx_i2c.c ****     /* Next byte in shift register is PEC */
 832:STM32F4xx_LIB/periph/src/stm32f4xx_i2c.c ****     I2Cx->CR1 |= I2C_PECPosition_Next;
 833:STM32F4xx_LIB/periph/src/stm32f4xx_i2c.c ****   }
 834:STM32F4xx_LIB/periph/src/stm32f4xx_i2c.c ****   else
 835:STM32F4xx_LIB/periph/src/stm32f4xx_i2c.c ****   {
 836:STM32F4xx_LIB/periph/src/stm32f4xx_i2c.c ****     /* Current byte in shift register is PEC */
 837:STM32F4xx_LIB/periph/src/stm32f4xx_i2c.c ****     I2Cx->CR1 &= I2C_PECPosition_Current;
 1184              		.loc 1 837 5 is_stmt 1 view .LVU323
 1185              		.loc 1 837 15 is_stmt 0 view .LVU324
 1186 0006 0388     		ldrh	r3, [r0]
 1187 0008 9BB2     		uxth	r3, r3
 1188 000a 23F40063 		bic	r3, r3, #2048
 1189 000e 9BB2     		uxth	r3, r3
 1190 0010 0380     		strh	r3, [r0]	@ movhi
 838:STM32F4xx_LIB/periph/src/stm32f4xx_i2c.c ****   }
 839:STM32F4xx_LIB/periph/src/stm32f4xx_i2c.c **** }
 1191              		.loc 1 839 1 view .LVU325
 1192 0012 7047     		bx	lr
 1193              	.L78:
 832:STM32F4xx_LIB/periph/src/stm32f4xx_i2c.c ****   }
 1194              		.loc 1 832 5 is_stmt 1 view .LVU326
 832:STM32F4xx_LIB/periph/src/stm32f4xx_i2c.c ****   }
 1195              		.loc 1 832 15 is_stmt 0 view .LVU327
 1196 0014 0388     		ldrh	r3, [r0]
 1197 0016 9BB2     		uxth	r3, r3
 1198 0018 43F40063 		orr	r3, r3, #2048
 1199 001c 0380     		strh	r3, [r0]	@ movhi
 1200 001e 7047     		bx	lr
 1201              		.cfi_endproc
 1202              	.LFE145:
 1204              		.section	.text.I2C_CalculatePEC,"ax",%progbits
 1205              		.align	1
 1206              		.global	I2C_CalculatePEC
 1207              		.syntax unified
 1208              		.thumb
 1209              		.thumb_func
 1210              		.fpu fpv4-sp-d16
 1212              	I2C_CalculatePEC:
 1213              	.LVL78:
 1214              	.LFB146:
 840:STM32F4xx_LIB/periph/src/stm32f4xx_i2c.c **** 
 841:STM32F4xx_LIB/periph/src/stm32f4xx_i2c.c **** /**
ARM GAS  C:\Users\京垓\AppData\Local\Temp\ccBmAlt6.s 			page 37


 842:STM32F4xx_LIB/periph/src/stm32f4xx_i2c.c ****   * @brief  Enables or disables the PEC value calculation of the transferred bytes.
 843:STM32F4xx_LIB/periph/src/stm32f4xx_i2c.c ****   * @param  I2Cx: where x can be 1, 2 or 3 to select the I2C peripheral.
 844:STM32F4xx_LIB/periph/src/stm32f4xx_i2c.c ****   * @param  NewState: new state of the I2Cx PEC value calculation.
 845:STM32F4xx_LIB/periph/src/stm32f4xx_i2c.c ****   *          This parameter can be: ENABLE or DISABLE.
 846:STM32F4xx_LIB/periph/src/stm32f4xx_i2c.c ****   * @retval None
 847:STM32F4xx_LIB/periph/src/stm32f4xx_i2c.c ****   */
 848:STM32F4xx_LIB/periph/src/stm32f4xx_i2c.c **** void I2C_CalculatePEC(I2C_TypeDef* I2Cx, FunctionalState NewState)
 849:STM32F4xx_LIB/periph/src/stm32f4xx_i2c.c **** {
 1215              		.loc 1 849 1 is_stmt 1 view -0
 1216              		.cfi_startproc
 1217              		@ args = 0, pretend = 0, frame = 0
 1218              		@ frame_needed = 0, uses_anonymous_args = 0
 1219              		@ link register save eliminated.
 850:STM32F4xx_LIB/periph/src/stm32f4xx_i2c.c ****   /* Check the parameters */
 851:STM32F4xx_LIB/periph/src/stm32f4xx_i2c.c ****   assert_param(IS_I2C_ALL_PERIPH(I2Cx));
 1220              		.loc 1 851 3 view .LVU329
 852:STM32F4xx_LIB/periph/src/stm32f4xx_i2c.c ****   assert_param(IS_FUNCTIONAL_STATE(NewState));
 1221              		.loc 1 852 3 view .LVU330
 853:STM32F4xx_LIB/periph/src/stm32f4xx_i2c.c ****   if (NewState != DISABLE)
 1222              		.loc 1 853 3 view .LVU331
 1223              		.loc 1 853 6 is_stmt 0 view .LVU332
 1224 0000 29B1     		cbz	r1, .L80
 854:STM32F4xx_LIB/periph/src/stm32f4xx_i2c.c ****   {
 855:STM32F4xx_LIB/periph/src/stm32f4xx_i2c.c ****     /* Enable the selected I2C PEC calculation */
 856:STM32F4xx_LIB/periph/src/stm32f4xx_i2c.c ****     I2Cx->CR1 |= I2C_CR1_ENPEC;
 1225              		.loc 1 856 5 is_stmt 1 view .LVU333
 1226              		.loc 1 856 15 is_stmt 0 view .LVU334
 1227 0002 0388     		ldrh	r3, [r0]
 1228 0004 9BB2     		uxth	r3, r3
 1229 0006 43F02003 		orr	r3, r3, #32
 1230 000a 0380     		strh	r3, [r0]	@ movhi
 1231 000c 7047     		bx	lr
 1232              	.L80:
 857:STM32F4xx_LIB/periph/src/stm32f4xx_i2c.c ****   }
 858:STM32F4xx_LIB/periph/src/stm32f4xx_i2c.c ****   else
 859:STM32F4xx_LIB/periph/src/stm32f4xx_i2c.c ****   {
 860:STM32F4xx_LIB/periph/src/stm32f4xx_i2c.c ****     /* Disable the selected I2C PEC calculation */
 861:STM32F4xx_LIB/periph/src/stm32f4xx_i2c.c ****     I2Cx->CR1 &= (uint16_t)~((uint16_t)I2C_CR1_ENPEC);
 1233              		.loc 1 861 5 is_stmt 1 view .LVU335
 1234              		.loc 1 861 15 is_stmt 0 view .LVU336
 1235 000e 0388     		ldrh	r3, [r0]
 1236 0010 9BB2     		uxth	r3, r3
 1237 0012 23F02003 		bic	r3, r3, #32
 1238 0016 9BB2     		uxth	r3, r3
 1239 0018 0380     		strh	r3, [r0]	@ movhi
 862:STM32F4xx_LIB/periph/src/stm32f4xx_i2c.c ****   }
 863:STM32F4xx_LIB/periph/src/stm32f4xx_i2c.c **** }
 1240              		.loc 1 863 1 view .LVU337
 1241 001a 7047     		bx	lr
 1242              		.cfi_endproc
 1243              	.LFE146:
 1245              		.section	.text.I2C_GetPEC,"ax",%progbits
 1246              		.align	1
 1247              		.global	I2C_GetPEC
 1248              		.syntax unified
 1249              		.thumb
 1250              		.thumb_func
ARM GAS  C:\Users\京垓\AppData\Local\Temp\ccBmAlt6.s 			page 38


 1251              		.fpu fpv4-sp-d16
 1253              	I2C_GetPEC:
 1254              	.LVL79:
 1255              	.LFB147:
 864:STM32F4xx_LIB/periph/src/stm32f4xx_i2c.c **** 
 865:STM32F4xx_LIB/periph/src/stm32f4xx_i2c.c **** /**
 866:STM32F4xx_LIB/periph/src/stm32f4xx_i2c.c ****   * @brief  Returns the PEC value for the specified I2C.
 867:STM32F4xx_LIB/periph/src/stm32f4xx_i2c.c ****   * @param  I2Cx: where x can be 1, 2 or 3 to select the I2C peripheral.
 868:STM32F4xx_LIB/periph/src/stm32f4xx_i2c.c ****   * @retval The PEC value.
 869:STM32F4xx_LIB/periph/src/stm32f4xx_i2c.c ****   */
 870:STM32F4xx_LIB/periph/src/stm32f4xx_i2c.c **** uint8_t I2C_GetPEC(I2C_TypeDef* I2Cx)
 871:STM32F4xx_LIB/periph/src/stm32f4xx_i2c.c **** {
 1256              		.loc 1 871 1 is_stmt 1 view -0
 1257              		.cfi_startproc
 1258              		@ args = 0, pretend = 0, frame = 0
 1259              		@ frame_needed = 0, uses_anonymous_args = 0
 1260              		@ link register save eliminated.
 872:STM32F4xx_LIB/periph/src/stm32f4xx_i2c.c ****   /* Check the parameters */
 873:STM32F4xx_LIB/periph/src/stm32f4xx_i2c.c ****   assert_param(IS_I2C_ALL_PERIPH(I2Cx));
 1261              		.loc 1 873 3 view .LVU339
 874:STM32F4xx_LIB/periph/src/stm32f4xx_i2c.c ****   /* Return the selected I2C PEC value */
 875:STM32F4xx_LIB/periph/src/stm32f4xx_i2c.c ****   return ((I2Cx->SR2) >> 8);
 1262              		.loc 1 875 3 view .LVU340
 1263              		.loc 1 875 16 is_stmt 0 view .LVU341
 1264 0000 008B     		ldrh	r0, [r0, #24]
 1265              	.LVL80:
 876:STM32F4xx_LIB/periph/src/stm32f4xx_i2c.c **** }
 1266              		.loc 1 876 1 view .LVU342
 1267 0002 C0F30720 		ubfx	r0, r0, #8, #8
 1268 0006 7047     		bx	lr
 1269              		.cfi_endproc
 1270              	.LFE147:
 1272              		.section	.text.I2C_DMACmd,"ax",%progbits
 1273              		.align	1
 1274              		.global	I2C_DMACmd
 1275              		.syntax unified
 1276              		.thumb
 1277              		.thumb_func
 1278              		.fpu fpv4-sp-d16
 1280              	I2C_DMACmd:
 1281              	.LVL81:
 1282              	.LFB148:
 877:STM32F4xx_LIB/periph/src/stm32f4xx_i2c.c **** 
 878:STM32F4xx_LIB/periph/src/stm32f4xx_i2c.c **** /**
 879:STM32F4xx_LIB/periph/src/stm32f4xx_i2c.c ****   * @}
 880:STM32F4xx_LIB/periph/src/stm32f4xx_i2c.c ****   */
 881:STM32F4xx_LIB/periph/src/stm32f4xx_i2c.c **** 
 882:STM32F4xx_LIB/periph/src/stm32f4xx_i2c.c **** /** @defgroup I2C_Group4 DMA transfers management functions
 883:STM32F4xx_LIB/periph/src/stm32f4xx_i2c.c ****  *  @brief   DMA transfers management functions 
 884:STM32F4xx_LIB/periph/src/stm32f4xx_i2c.c ****  *
 885:STM32F4xx_LIB/periph/src/stm32f4xx_i2c.c **** @verbatim   
 886:STM32F4xx_LIB/periph/src/stm32f4xx_i2c.c ****  ===============================================================================
 887:STM32F4xx_LIB/periph/src/stm32f4xx_i2c.c ****                 ##### DMA transfers management functions #####
 888:STM32F4xx_LIB/periph/src/stm32f4xx_i2c.c ****  ===============================================================================  
 889:STM32F4xx_LIB/periph/src/stm32f4xx_i2c.c ****   This section provides functions allowing to configure the I2C DMA channels 
 890:STM32F4xx_LIB/periph/src/stm32f4xx_i2c.c ****   requests.
 891:STM32F4xx_LIB/periph/src/stm32f4xx_i2c.c ****   
ARM GAS  C:\Users\京垓\AppData\Local\Temp\ccBmAlt6.s 			page 39


 892:STM32F4xx_LIB/periph/src/stm32f4xx_i2c.c **** @endverbatim
 893:STM32F4xx_LIB/periph/src/stm32f4xx_i2c.c ****   * @{
 894:STM32F4xx_LIB/periph/src/stm32f4xx_i2c.c ****   */
 895:STM32F4xx_LIB/periph/src/stm32f4xx_i2c.c **** 
 896:STM32F4xx_LIB/periph/src/stm32f4xx_i2c.c **** /**
 897:STM32F4xx_LIB/periph/src/stm32f4xx_i2c.c ****   * @brief  Enables or disables the specified I2C DMA requests.
 898:STM32F4xx_LIB/periph/src/stm32f4xx_i2c.c ****   * @param  I2Cx: where x can be 1, 2 or 3 to select the I2C peripheral.
 899:STM32F4xx_LIB/periph/src/stm32f4xx_i2c.c ****   * @param  NewState: new state of the I2C DMA transfer.
 900:STM32F4xx_LIB/periph/src/stm32f4xx_i2c.c ****   *          This parameter can be: ENABLE or DISABLE.
 901:STM32F4xx_LIB/periph/src/stm32f4xx_i2c.c ****   * @retval None
 902:STM32F4xx_LIB/periph/src/stm32f4xx_i2c.c ****   */
 903:STM32F4xx_LIB/periph/src/stm32f4xx_i2c.c **** void I2C_DMACmd(I2C_TypeDef* I2Cx, FunctionalState NewState)
 904:STM32F4xx_LIB/periph/src/stm32f4xx_i2c.c **** {
 1283              		.loc 1 904 1 is_stmt 1 view -0
 1284              		.cfi_startproc
 1285              		@ args = 0, pretend = 0, frame = 0
 1286              		@ frame_needed = 0, uses_anonymous_args = 0
 1287              		@ link register save eliminated.
 905:STM32F4xx_LIB/periph/src/stm32f4xx_i2c.c ****   /* Check the parameters */
 906:STM32F4xx_LIB/periph/src/stm32f4xx_i2c.c ****   assert_param(IS_I2C_ALL_PERIPH(I2Cx));
 1288              		.loc 1 906 3 view .LVU344
 907:STM32F4xx_LIB/periph/src/stm32f4xx_i2c.c ****   assert_param(IS_FUNCTIONAL_STATE(NewState));
 1289              		.loc 1 907 3 view .LVU345
 908:STM32F4xx_LIB/periph/src/stm32f4xx_i2c.c ****   if (NewState != DISABLE)
 1290              		.loc 1 908 3 view .LVU346
 1291              		.loc 1 908 6 is_stmt 0 view .LVU347
 1292 0000 29B1     		cbz	r1, .L84
 909:STM32F4xx_LIB/periph/src/stm32f4xx_i2c.c ****   {
 910:STM32F4xx_LIB/periph/src/stm32f4xx_i2c.c ****     /* Enable the selected I2C DMA requests */
 911:STM32F4xx_LIB/periph/src/stm32f4xx_i2c.c ****     I2Cx->CR2 |= I2C_CR2_DMAEN;
 1293              		.loc 1 911 5 is_stmt 1 view .LVU348
 1294              		.loc 1 911 15 is_stmt 0 view .LVU349
 1295 0002 8388     		ldrh	r3, [r0, #4]
 1296 0004 9BB2     		uxth	r3, r3
 1297 0006 43F40063 		orr	r3, r3, #2048
 1298 000a 8380     		strh	r3, [r0, #4]	@ movhi
 1299 000c 7047     		bx	lr
 1300              	.L84:
 912:STM32F4xx_LIB/periph/src/stm32f4xx_i2c.c ****   }
 913:STM32F4xx_LIB/periph/src/stm32f4xx_i2c.c ****   else
 914:STM32F4xx_LIB/periph/src/stm32f4xx_i2c.c ****   {
 915:STM32F4xx_LIB/periph/src/stm32f4xx_i2c.c ****     /* Disable the selected I2C DMA requests */
 916:STM32F4xx_LIB/periph/src/stm32f4xx_i2c.c ****     I2Cx->CR2 &= (uint16_t)~((uint16_t)I2C_CR2_DMAEN);
 1301              		.loc 1 916 5 is_stmt 1 view .LVU350
 1302              		.loc 1 916 15 is_stmt 0 view .LVU351
 1303 000e 8388     		ldrh	r3, [r0, #4]
 1304 0010 9BB2     		uxth	r3, r3
 1305 0012 23F40063 		bic	r3, r3, #2048
 1306 0016 9BB2     		uxth	r3, r3
 1307 0018 8380     		strh	r3, [r0, #4]	@ movhi
 917:STM32F4xx_LIB/periph/src/stm32f4xx_i2c.c ****   }
 918:STM32F4xx_LIB/periph/src/stm32f4xx_i2c.c **** }
 1308              		.loc 1 918 1 view .LVU352
 1309 001a 7047     		bx	lr
 1310              		.cfi_endproc
 1311              	.LFE148:
 1313              		.section	.text.I2C_DMALastTransferCmd,"ax",%progbits
ARM GAS  C:\Users\京垓\AppData\Local\Temp\ccBmAlt6.s 			page 40


 1314              		.align	1
 1315              		.global	I2C_DMALastTransferCmd
 1316              		.syntax unified
 1317              		.thumb
 1318              		.thumb_func
 1319              		.fpu fpv4-sp-d16
 1321              	I2C_DMALastTransferCmd:
 1322              	.LVL82:
 1323              	.LFB149:
 919:STM32F4xx_LIB/periph/src/stm32f4xx_i2c.c **** 
 920:STM32F4xx_LIB/periph/src/stm32f4xx_i2c.c **** /**
 921:STM32F4xx_LIB/periph/src/stm32f4xx_i2c.c ****   * @brief  Specifies that the next DMA transfer is the last one.
 922:STM32F4xx_LIB/periph/src/stm32f4xx_i2c.c ****   * @param  I2Cx: where x can be 1, 2 or 3 to select the I2C peripheral.
 923:STM32F4xx_LIB/periph/src/stm32f4xx_i2c.c ****   * @param  NewState: new state of the I2C DMA last transfer.
 924:STM32F4xx_LIB/periph/src/stm32f4xx_i2c.c ****   *          This parameter can be: ENABLE or DISABLE.
 925:STM32F4xx_LIB/periph/src/stm32f4xx_i2c.c ****   * @retval None
 926:STM32F4xx_LIB/periph/src/stm32f4xx_i2c.c ****   */
 927:STM32F4xx_LIB/periph/src/stm32f4xx_i2c.c **** void I2C_DMALastTransferCmd(I2C_TypeDef* I2Cx, FunctionalState NewState)
 928:STM32F4xx_LIB/periph/src/stm32f4xx_i2c.c **** {
 1324              		.loc 1 928 1 is_stmt 1 view -0
 1325              		.cfi_startproc
 1326              		@ args = 0, pretend = 0, frame = 0
 1327              		@ frame_needed = 0, uses_anonymous_args = 0
 1328              		@ link register save eliminated.
 929:STM32F4xx_LIB/periph/src/stm32f4xx_i2c.c ****   /* Check the parameters */
 930:STM32F4xx_LIB/periph/src/stm32f4xx_i2c.c ****   assert_param(IS_I2C_ALL_PERIPH(I2Cx));
 1329              		.loc 1 930 3 view .LVU354
 931:STM32F4xx_LIB/periph/src/stm32f4xx_i2c.c ****   assert_param(IS_FUNCTIONAL_STATE(NewState));
 1330              		.loc 1 931 3 view .LVU355
 932:STM32F4xx_LIB/periph/src/stm32f4xx_i2c.c ****   if (NewState != DISABLE)
 1331              		.loc 1 932 3 view .LVU356
 1332              		.loc 1 932 6 is_stmt 0 view .LVU357
 1333 0000 29B1     		cbz	r1, .L87
 933:STM32F4xx_LIB/periph/src/stm32f4xx_i2c.c ****   {
 934:STM32F4xx_LIB/periph/src/stm32f4xx_i2c.c ****     /* Next DMA transfer is the last transfer */
 935:STM32F4xx_LIB/periph/src/stm32f4xx_i2c.c ****     I2Cx->CR2 |= I2C_CR2_LAST;
 1334              		.loc 1 935 5 is_stmt 1 view .LVU358
 1335              		.loc 1 935 15 is_stmt 0 view .LVU359
 1336 0002 8388     		ldrh	r3, [r0, #4]
 1337 0004 9BB2     		uxth	r3, r3
 1338 0006 43F48053 		orr	r3, r3, #4096
 1339 000a 8380     		strh	r3, [r0, #4]	@ movhi
 1340 000c 7047     		bx	lr
 1341              	.L87:
 936:STM32F4xx_LIB/periph/src/stm32f4xx_i2c.c ****   }
 937:STM32F4xx_LIB/periph/src/stm32f4xx_i2c.c ****   else
 938:STM32F4xx_LIB/periph/src/stm32f4xx_i2c.c ****   {
 939:STM32F4xx_LIB/periph/src/stm32f4xx_i2c.c ****     /* Next DMA transfer is not the last transfer */
 940:STM32F4xx_LIB/periph/src/stm32f4xx_i2c.c ****     I2Cx->CR2 &= (uint16_t)~((uint16_t)I2C_CR2_LAST);
 1342              		.loc 1 940 5 is_stmt 1 view .LVU360
 1343              		.loc 1 940 15 is_stmt 0 view .LVU361
 1344 000e 8388     		ldrh	r3, [r0, #4]
 1345 0010 9BB2     		uxth	r3, r3
 1346 0012 23F48053 		bic	r3, r3, #4096
 1347 0016 9BB2     		uxth	r3, r3
 1348 0018 8380     		strh	r3, [r0, #4]	@ movhi
 941:STM32F4xx_LIB/periph/src/stm32f4xx_i2c.c ****   }
ARM GAS  C:\Users\京垓\AppData\Local\Temp\ccBmAlt6.s 			page 41


 942:STM32F4xx_LIB/periph/src/stm32f4xx_i2c.c **** }
 1349              		.loc 1 942 1 view .LVU362
 1350 001a 7047     		bx	lr
 1351              		.cfi_endproc
 1352              	.LFE149:
 1354              		.section	.text.I2C_ReadRegister,"ax",%progbits
 1355              		.align	1
 1356              		.global	I2C_ReadRegister
 1357              		.syntax unified
 1358              		.thumb
 1359              		.thumb_func
 1360              		.fpu fpv4-sp-d16
 1362              	I2C_ReadRegister:
 1363              	.LVL83:
 1364              	.LFB150:
 943:STM32F4xx_LIB/periph/src/stm32f4xx_i2c.c **** 
 944:STM32F4xx_LIB/periph/src/stm32f4xx_i2c.c **** /**
 945:STM32F4xx_LIB/periph/src/stm32f4xx_i2c.c ****   * @}
 946:STM32F4xx_LIB/periph/src/stm32f4xx_i2c.c ****   */
 947:STM32F4xx_LIB/periph/src/stm32f4xx_i2c.c **** 
 948:STM32F4xx_LIB/periph/src/stm32f4xx_i2c.c **** /** @defgroup I2C_Group5 Interrupts events and flags management functions
 949:STM32F4xx_LIB/periph/src/stm32f4xx_i2c.c ****  *  @brief   Interrupts, events and flags management functions
 950:STM32F4xx_LIB/periph/src/stm32f4xx_i2c.c ****  *
 951:STM32F4xx_LIB/periph/src/stm32f4xx_i2c.c **** @verbatim   
 952:STM32F4xx_LIB/periph/src/stm32f4xx_i2c.c ****  ===============================================================================
 953:STM32F4xx_LIB/periph/src/stm32f4xx_i2c.c ****           ##### Interrupts, events and flags management functions #####
 954:STM32F4xx_LIB/periph/src/stm32f4xx_i2c.c ****  ===============================================================================
 955:STM32F4xx_LIB/periph/src/stm32f4xx_i2c.c ****     [..]
 956:STM32F4xx_LIB/periph/src/stm32f4xx_i2c.c ****     This section provides functions allowing to configure the I2C Interrupts 
 957:STM32F4xx_LIB/periph/src/stm32f4xx_i2c.c ****     sources and check or clear the flags or pending bits status.
 958:STM32F4xx_LIB/periph/src/stm32f4xx_i2c.c ****     The user should identify which mode will be used in his application to manage 
 959:STM32F4xx_LIB/periph/src/stm32f4xx_i2c.c ****     the communication: Polling mode, Interrupt mode or DMA mode. 
 960:STM32F4xx_LIB/periph/src/stm32f4xx_i2c.c **** 
 961:STM32F4xx_LIB/periph/src/stm32f4xx_i2c.c **** 
 962:STM32F4xx_LIB/periph/src/stm32f4xx_i2c.c ****                 ##### I2C State Monitoring Functions #####                   
 963:STM32F4xx_LIB/periph/src/stm32f4xx_i2c.c ****  =============================================================================== 
 964:STM32F4xx_LIB/periph/src/stm32f4xx_i2c.c ****     [..]  
 965:STM32F4xx_LIB/periph/src/stm32f4xx_i2c.c ****     This I2C driver provides three different ways for I2C state monitoring
 966:STM32F4xx_LIB/periph/src/stm32f4xx_i2c.c ****     depending on the application requirements and constraints:
 967:STM32F4xx_LIB/periph/src/stm32f4xx_i2c.c ****          
 968:STM32F4xx_LIB/periph/src/stm32f4xx_i2c.c ****    
 969:STM32F4xx_LIB/periph/src/stm32f4xx_i2c.c ****      (#) Basic state monitoring (Using I2C_CheckEvent() function)
 970:STM32F4xx_LIB/periph/src/stm32f4xx_i2c.c ****      
 971:STM32F4xx_LIB/periph/src/stm32f4xx_i2c.c ****         It compares the status registers (SR1 and SR2) content to a given event
 972:STM32F4xx_LIB/periph/src/stm32f4xx_i2c.c ****         (can be the combination of one or more flags).
 973:STM32F4xx_LIB/periph/src/stm32f4xx_i2c.c ****         It returns SUCCESS if the current status includes the given flags 
 974:STM32F4xx_LIB/periph/src/stm32f4xx_i2c.c ****         and returns ERROR if one or more flags are missing in the current status.
 975:STM32F4xx_LIB/periph/src/stm32f4xx_i2c.c **** 
 976:STM32F4xx_LIB/periph/src/stm32f4xx_i2c.c ****           (++) When to use
 977:STM32F4xx_LIB/periph/src/stm32f4xx_i2c.c ****              (+++) This function is suitable for most applications as well as for startup 
 978:STM32F4xx_LIB/periph/src/stm32f4xx_i2c.c ****                activity since the events are fully described in the product reference 
 979:STM32F4xx_LIB/periph/src/stm32f4xx_i2c.c ****                manual (RM0090).
 980:STM32F4xx_LIB/periph/src/stm32f4xx_i2c.c ****              (+++) It is also suitable for users who need to define their own events.
 981:STM32F4xx_LIB/periph/src/stm32f4xx_i2c.c **** 
 982:STM32F4xx_LIB/periph/src/stm32f4xx_i2c.c ****           (++) Limitations
 983:STM32F4xx_LIB/periph/src/stm32f4xx_i2c.c ****                If an error occurs (ie. error flags are set besides to the monitored 
 984:STM32F4xx_LIB/periph/src/stm32f4xx_i2c.c ****                flags), the I2C_CheckEvent() function may return SUCCESS despite 
ARM GAS  C:\Users\京垓\AppData\Local\Temp\ccBmAlt6.s 			page 42


 985:STM32F4xx_LIB/periph/src/stm32f4xx_i2c.c ****                the communication hold or corrupted real state. 
 986:STM32F4xx_LIB/periph/src/stm32f4xx_i2c.c ****                In this case, it is advised to use error interrupts to monitor 
 987:STM32F4xx_LIB/periph/src/stm32f4xx_i2c.c ****                the error events and handle them in the interrupt IRQ handler.
 988:STM32F4xx_LIB/periph/src/stm32f4xx_i2c.c ****          
 989:STM32F4xx_LIB/periph/src/stm32f4xx_i2c.c ****      -@@- For error management, it is advised to use the following functions:
 990:STM32F4xx_LIB/periph/src/stm32f4xx_i2c.c ****         (+@@) I2C_ITConfig() to configure and enable the error interrupts (I2C_IT_ERR).
 991:STM32F4xx_LIB/periph/src/stm32f4xx_i2c.c ****         (+@@) I2Cx_ER_IRQHandler() which is called when the error interrupt occurs.
 992:STM32F4xx_LIB/periph/src/stm32f4xx_i2c.c ****               Where x is the peripheral instance (I2C1, I2C2 ...)
 993:STM32F4xx_LIB/periph/src/stm32f4xx_i2c.c ****         (+@@) I2C_GetFlagStatus() or I2C_GetITStatus()  to be called into the 
 994:STM32F4xx_LIB/periph/src/stm32f4xx_i2c.c ****               I2Cx_ER_IRQHandler() function in order to determine which error occurred.
 995:STM32F4xx_LIB/periph/src/stm32f4xx_i2c.c ****         (+@@) I2C_ClearFlag() or I2C_ClearITPendingBit() and/or I2C_SoftwareResetCmd() 
 996:STM32F4xx_LIB/periph/src/stm32f4xx_i2c.c ****               and/or I2C_GenerateStop() in order to clear the error flag and source 
 997:STM32F4xx_LIB/periph/src/stm32f4xx_i2c.c ****               and return to correct  communication status.
 998:STM32F4xx_LIB/periph/src/stm32f4xx_i2c.c ****              
 999:STM32F4xx_LIB/periph/src/stm32f4xx_i2c.c ****  
1000:STM32F4xx_LIB/periph/src/stm32f4xx_i2c.c ****      (#) Advanced state monitoring (Using the function I2C_GetLastEvent())
1001:STM32F4xx_LIB/periph/src/stm32f4xx_i2c.c **** 
1002:STM32F4xx_LIB/periph/src/stm32f4xx_i2c.c ****         Using the function I2C_GetLastEvent() which returns the image of both status 
1003:STM32F4xx_LIB/periph/src/stm32f4xx_i2c.c ****         registers in a single word (uint32_t) (Status Register 2 value is shifted left 
1004:STM32F4xx_LIB/periph/src/stm32f4xx_i2c.c ****         by 16 bits and concatenated to Status Register 1).
1005:STM32F4xx_LIB/periph/src/stm32f4xx_i2c.c **** 
1006:STM32F4xx_LIB/periph/src/stm32f4xx_i2c.c ****           (++) When to use
1007:STM32F4xx_LIB/periph/src/stm32f4xx_i2c.c ****              (+++) This function is suitable for the same applications above but it 
1008:STM32F4xx_LIB/periph/src/stm32f4xx_i2c.c ****                allows to overcome the mentioned limitation of I2C_GetFlagStatus() 
1009:STM32F4xx_LIB/periph/src/stm32f4xx_i2c.c ****                function.
1010:STM32F4xx_LIB/periph/src/stm32f4xx_i2c.c ****              (+++) The returned value could be compared to events already defined in 
1011:STM32F4xx_LIB/periph/src/stm32f4xx_i2c.c ****                the library (stm32f4xx_i2c.h) or to custom values defined by user.
1012:STM32F4xx_LIB/periph/src/stm32f4xx_i2c.c ****                This function is suitable when multiple flags are monitored at the 
1013:STM32F4xx_LIB/periph/src/stm32f4xx_i2c.c ****                same time.
1014:STM32F4xx_LIB/periph/src/stm32f4xx_i2c.c ****              (+++) At the opposite of I2C_CheckEvent() function, this function allows 
1015:STM32F4xx_LIB/periph/src/stm32f4xx_i2c.c ****                user to choose when an event is accepted (when all events flags are 
1016:STM32F4xx_LIB/periph/src/stm32f4xx_i2c.c ****                set and no other flags are set or just when the needed flags are set 
1017:STM32F4xx_LIB/periph/src/stm32f4xx_i2c.c ****                like I2C_CheckEvent() function.
1018:STM32F4xx_LIB/periph/src/stm32f4xx_i2c.c **** 
1019:STM32F4xx_LIB/periph/src/stm32f4xx_i2c.c ****           (++) Limitations
1020:STM32F4xx_LIB/periph/src/stm32f4xx_i2c.c ****              (+++) User may need to define his own events.
1021:STM32F4xx_LIB/periph/src/stm32f4xx_i2c.c ****              (+++) Same remark concerning the error management is applicable for this 
1022:STM32F4xx_LIB/periph/src/stm32f4xx_i2c.c ****                function if user decides to check only regular communication flags 
1023:STM32F4xx_LIB/periph/src/stm32f4xx_i2c.c ****                (and ignores error flags).
1024:STM32F4xx_LIB/periph/src/stm32f4xx_i2c.c ****       
1025:STM32F4xx_LIB/periph/src/stm32f4xx_i2c.c ****  
1026:STM32F4xx_LIB/periph/src/stm32f4xx_i2c.c ****      (#) Flag-based state monitoring (Using the function I2C_GetFlagStatus())
1027:STM32F4xx_LIB/periph/src/stm32f4xx_i2c.c ****      
1028:STM32F4xx_LIB/periph/src/stm32f4xx_i2c.c ****       Using the function I2C_GetFlagStatus() which simply returns the status of 
1029:STM32F4xx_LIB/periph/src/stm32f4xx_i2c.c ****       one single flag (ie. I2C_FLAG_RXNE ...). 
1030:STM32F4xx_LIB/periph/src/stm32f4xx_i2c.c **** 
1031:STM32F4xx_LIB/periph/src/stm32f4xx_i2c.c ****           (++) When to use
1032:STM32F4xx_LIB/periph/src/stm32f4xx_i2c.c ****              (+++) This function could be used for specific applications or in debug 
1033:STM32F4xx_LIB/periph/src/stm32f4xx_i2c.c ****                phase.
1034:STM32F4xx_LIB/periph/src/stm32f4xx_i2c.c ****              (+++) It is suitable when only one flag checking is needed (most I2C 
1035:STM32F4xx_LIB/periph/src/stm32f4xx_i2c.c ****                events are monitored through multiple flags).
1036:STM32F4xx_LIB/periph/src/stm32f4xx_i2c.c ****           (++) Limitations: 
1037:STM32F4xx_LIB/periph/src/stm32f4xx_i2c.c ****              (+++) When calling this function, the Status register is accessed. 
1038:STM32F4xx_LIB/periph/src/stm32f4xx_i2c.c ****                Some flags are cleared when the status register is accessed. 
1039:STM32F4xx_LIB/periph/src/stm32f4xx_i2c.c ****                So checking the status of one Flag, may clear other ones.
1040:STM32F4xx_LIB/periph/src/stm32f4xx_i2c.c ****              (+++) Function may need to be called twice or more in order to monitor 
1041:STM32F4xx_LIB/periph/src/stm32f4xx_i2c.c ****                one single event.
ARM GAS  C:\Users\京垓\AppData\Local\Temp\ccBmAlt6.s 			page 43


1042:STM32F4xx_LIB/periph/src/stm32f4xx_i2c.c ****  
1043:STM32F4xx_LIB/periph/src/stm32f4xx_i2c.c ****    For detailed description of Events, please refer to section I2C_Events in 
1044:STM32F4xx_LIB/periph/src/stm32f4xx_i2c.c ****    stm32f4xx_i2c.h file.
1045:STM32F4xx_LIB/periph/src/stm32f4xx_i2c.c ****        
1046:STM32F4xx_LIB/periph/src/stm32f4xx_i2c.c **** @endverbatim
1047:STM32F4xx_LIB/periph/src/stm32f4xx_i2c.c ****   * @{
1048:STM32F4xx_LIB/periph/src/stm32f4xx_i2c.c ****   */
1049:STM32F4xx_LIB/periph/src/stm32f4xx_i2c.c ****    
1050:STM32F4xx_LIB/periph/src/stm32f4xx_i2c.c **** /**
1051:STM32F4xx_LIB/periph/src/stm32f4xx_i2c.c ****   * @brief  Reads the specified I2C register and returns its value.
1052:STM32F4xx_LIB/periph/src/stm32f4xx_i2c.c ****   * @param  I2C_Register: specifies the register to read.
1053:STM32F4xx_LIB/periph/src/stm32f4xx_i2c.c ****   *          This parameter can be one of the following values:
1054:STM32F4xx_LIB/periph/src/stm32f4xx_i2c.c ****   *            @arg I2C_Register_CR1:  CR1 register.
1055:STM32F4xx_LIB/periph/src/stm32f4xx_i2c.c ****   *            @arg I2C_Register_CR2:   CR2 register.
1056:STM32F4xx_LIB/periph/src/stm32f4xx_i2c.c ****   *            @arg I2C_Register_OAR1:  OAR1 register.
1057:STM32F4xx_LIB/periph/src/stm32f4xx_i2c.c ****   *            @arg I2C_Register_OAR2:  OAR2 register.
1058:STM32F4xx_LIB/periph/src/stm32f4xx_i2c.c ****   *            @arg I2C_Register_DR:    DR register.
1059:STM32F4xx_LIB/periph/src/stm32f4xx_i2c.c ****   *            @arg I2C_Register_SR1:   SR1 register.
1060:STM32F4xx_LIB/periph/src/stm32f4xx_i2c.c ****   *            @arg I2C_Register_SR2:   SR2 register.
1061:STM32F4xx_LIB/periph/src/stm32f4xx_i2c.c ****   *            @arg I2C_Register_CCR:   CCR register.
1062:STM32F4xx_LIB/periph/src/stm32f4xx_i2c.c ****   *            @arg I2C_Register_TRISE: TRISE register.
1063:STM32F4xx_LIB/periph/src/stm32f4xx_i2c.c ****   * @retval The value of the read register.
1064:STM32F4xx_LIB/periph/src/stm32f4xx_i2c.c ****   */
1065:STM32F4xx_LIB/periph/src/stm32f4xx_i2c.c **** uint16_t I2C_ReadRegister(I2C_TypeDef* I2Cx, uint8_t I2C_Register)
1066:STM32F4xx_LIB/periph/src/stm32f4xx_i2c.c **** {
 1365              		.loc 1 1066 1 is_stmt 1 view -0
 1366              		.cfi_startproc
 1367              		@ args = 0, pretend = 0, frame = 8
 1368              		@ frame_needed = 0, uses_anonymous_args = 0
 1369              		@ link register save eliminated.
 1370              		.loc 1 1066 1 is_stmt 0 view .LVU364
 1371 0000 82B0     		sub	sp, sp, #8
 1372              	.LCFI5:
 1373              		.cfi_def_cfa_offset 8
1067:STM32F4xx_LIB/periph/src/stm32f4xx_i2c.c ****   __IO uint32_t tmp = 0;
 1374              		.loc 1 1067 3 is_stmt 1 view .LVU365
 1375              		.loc 1 1067 17 is_stmt 0 view .LVU366
 1376 0002 0023     		movs	r3, #0
 1377 0004 0193     		str	r3, [sp, #4]
1068:STM32F4xx_LIB/periph/src/stm32f4xx_i2c.c **** 
1069:STM32F4xx_LIB/periph/src/stm32f4xx_i2c.c ****   /* Check the parameters */
1070:STM32F4xx_LIB/periph/src/stm32f4xx_i2c.c ****   assert_param(IS_I2C_ALL_PERIPH(I2Cx));
 1378              		.loc 1 1070 3 is_stmt 1 view .LVU367
1071:STM32F4xx_LIB/periph/src/stm32f4xx_i2c.c ****   assert_param(IS_I2C_REGISTER(I2C_Register));
 1379              		.loc 1 1071 3 view .LVU368
1072:STM32F4xx_LIB/periph/src/stm32f4xx_i2c.c **** 
1073:STM32F4xx_LIB/periph/src/stm32f4xx_i2c.c ****   tmp = (uint32_t) I2Cx;
 1380              		.loc 1 1073 3 view .LVU369
 1381              		.loc 1 1073 7 is_stmt 0 view .LVU370
 1382 0006 0190     		str	r0, [sp, #4]
1074:STM32F4xx_LIB/periph/src/stm32f4xx_i2c.c ****   tmp += I2C_Register;
 1383              		.loc 1 1074 3 is_stmt 1 view .LVU371
 1384              		.loc 1 1074 7 is_stmt 0 view .LVU372
 1385 0008 019B     		ldr	r3, [sp, #4]
 1386 000a 1944     		add	r1, r1, r3
 1387              	.LVL84:
 1388              		.loc 1 1074 7 view .LVU373
ARM GAS  C:\Users\京垓\AppData\Local\Temp\ccBmAlt6.s 			page 44


 1389 000c 0191     		str	r1, [sp, #4]
1075:STM32F4xx_LIB/periph/src/stm32f4xx_i2c.c **** 
1076:STM32F4xx_LIB/periph/src/stm32f4xx_i2c.c ****   /* Return the selected register value */
1077:STM32F4xx_LIB/periph/src/stm32f4xx_i2c.c ****   return (*(__IO uint16_t *) tmp);
 1390              		.loc 1 1077 3 is_stmt 1 view .LVU374
 1391              		.loc 1 1077 12 is_stmt 0 view .LVU375
 1392 000e 019B     		ldr	r3, [sp, #4]
 1393              		.loc 1 1077 11 view .LVU376
 1394 0010 1888     		ldrh	r0, [r3]
 1395              	.LVL85:
1078:STM32F4xx_LIB/periph/src/stm32f4xx_i2c.c **** }
 1396              		.loc 1 1078 1 view .LVU377
 1397 0012 80B2     		uxth	r0, r0
 1398 0014 02B0     		add	sp, sp, #8
 1399              	.LCFI6:
 1400              		.cfi_def_cfa_offset 0
 1401              		@ sp needed
 1402 0016 7047     		bx	lr
 1403              		.cfi_endproc
 1404              	.LFE150:
 1406              		.section	.text.I2C_ITConfig,"ax",%progbits
 1407              		.align	1
 1408              		.global	I2C_ITConfig
 1409              		.syntax unified
 1410              		.thumb
 1411              		.thumb_func
 1412              		.fpu fpv4-sp-d16
 1414              	I2C_ITConfig:
 1415              	.LVL86:
 1416              	.LFB151:
1079:STM32F4xx_LIB/periph/src/stm32f4xx_i2c.c **** 
1080:STM32F4xx_LIB/periph/src/stm32f4xx_i2c.c **** /**
1081:STM32F4xx_LIB/periph/src/stm32f4xx_i2c.c ****   * @brief  Enables or disables the specified I2C interrupts.
1082:STM32F4xx_LIB/periph/src/stm32f4xx_i2c.c ****   * @param  I2Cx: where x can be 1, 2 or 3 to select the I2C peripheral.
1083:STM32F4xx_LIB/periph/src/stm32f4xx_i2c.c ****   * @param  I2C_IT: specifies the I2C interrupts sources to be enabled or disabled. 
1084:STM32F4xx_LIB/periph/src/stm32f4xx_i2c.c ****   *          This parameter can be any combination of the following values:
1085:STM32F4xx_LIB/periph/src/stm32f4xx_i2c.c ****   *            @arg I2C_IT_BUF: Buffer interrupt mask
1086:STM32F4xx_LIB/periph/src/stm32f4xx_i2c.c ****   *            @arg I2C_IT_EVT: Event interrupt mask
1087:STM32F4xx_LIB/periph/src/stm32f4xx_i2c.c ****   *            @arg I2C_IT_ERR: Error interrupt mask
1088:STM32F4xx_LIB/periph/src/stm32f4xx_i2c.c ****   * @param  NewState: new state of the specified I2C interrupts.
1089:STM32F4xx_LIB/periph/src/stm32f4xx_i2c.c ****   *          This parameter can be: ENABLE or DISABLE.
1090:STM32F4xx_LIB/periph/src/stm32f4xx_i2c.c ****   * @retval None
1091:STM32F4xx_LIB/periph/src/stm32f4xx_i2c.c ****   */
1092:STM32F4xx_LIB/periph/src/stm32f4xx_i2c.c **** void I2C_ITConfig(I2C_TypeDef* I2Cx, uint16_t I2C_IT, FunctionalState NewState)
1093:STM32F4xx_LIB/periph/src/stm32f4xx_i2c.c **** {
 1417              		.loc 1 1093 1 is_stmt 1 view -0
 1418              		.cfi_startproc
 1419              		@ args = 0, pretend = 0, frame = 0
 1420              		@ frame_needed = 0, uses_anonymous_args = 0
 1421              		@ link register save eliminated.
1094:STM32F4xx_LIB/periph/src/stm32f4xx_i2c.c ****   /* Check the parameters */
1095:STM32F4xx_LIB/periph/src/stm32f4xx_i2c.c ****   assert_param(IS_I2C_ALL_PERIPH(I2Cx));
 1422              		.loc 1 1095 3 view .LVU379
1096:STM32F4xx_LIB/periph/src/stm32f4xx_i2c.c ****   assert_param(IS_FUNCTIONAL_STATE(NewState));
 1423              		.loc 1 1096 3 view .LVU380
1097:STM32F4xx_LIB/periph/src/stm32f4xx_i2c.c ****   assert_param(IS_I2C_CONFIG_IT(I2C_IT));
 1424              		.loc 1 1097 3 view .LVU381
ARM GAS  C:\Users\京垓\AppData\Local\Temp\ccBmAlt6.s 			page 45


1098:STM32F4xx_LIB/periph/src/stm32f4xx_i2c.c ****   
1099:STM32F4xx_LIB/periph/src/stm32f4xx_i2c.c ****   if (NewState != DISABLE)
 1425              		.loc 1 1099 3 view .LVU382
 1426              		.loc 1 1099 6 is_stmt 0 view .LVU383
 1427 0000 22B1     		cbz	r2, .L92
1100:STM32F4xx_LIB/periph/src/stm32f4xx_i2c.c ****   {
1101:STM32F4xx_LIB/periph/src/stm32f4xx_i2c.c ****     /* Enable the selected I2C interrupts */
1102:STM32F4xx_LIB/periph/src/stm32f4xx_i2c.c ****     I2Cx->CR2 |= I2C_IT;
 1428              		.loc 1 1102 5 is_stmt 1 view .LVU384
 1429              		.loc 1 1102 15 is_stmt 0 view .LVU385
 1430 0002 8388     		ldrh	r3, [r0, #4]
 1431 0004 9BB2     		uxth	r3, r3
 1432 0006 1943     		orrs	r1, r1, r3
 1433              	.LVL87:
 1434              		.loc 1 1102 15 view .LVU386
 1435 0008 8180     		strh	r1, [r0, #4]	@ movhi
 1436 000a 7047     		bx	lr
 1437              	.LVL88:
 1438              	.L92:
1103:STM32F4xx_LIB/periph/src/stm32f4xx_i2c.c ****   }
1104:STM32F4xx_LIB/periph/src/stm32f4xx_i2c.c ****   else
1105:STM32F4xx_LIB/periph/src/stm32f4xx_i2c.c ****   {
1106:STM32F4xx_LIB/periph/src/stm32f4xx_i2c.c ****     /* Disable the selected I2C interrupts */
1107:STM32F4xx_LIB/periph/src/stm32f4xx_i2c.c ****     I2Cx->CR2 &= (uint16_t)~I2C_IT;
 1439              		.loc 1 1107 5 is_stmt 1 view .LVU387
 1440              		.loc 1 1107 15 is_stmt 0 view .LVU388
 1441 000c 8388     		ldrh	r3, [r0, #4]
 1442              		.loc 1 1107 18 view .LVU389
 1443 000e C943     		mvns	r1, r1
 1444              	.LVL89:
 1445              		.loc 1 1107 18 view .LVU390
 1446 0010 89B2     		uxth	r1, r1
 1447              		.loc 1 1107 15 view .LVU391
 1448 0012 1940     		ands	r1, r1, r3
 1449 0014 8180     		strh	r1, [r0, #4]	@ movhi
1108:STM32F4xx_LIB/periph/src/stm32f4xx_i2c.c ****   }
1109:STM32F4xx_LIB/periph/src/stm32f4xx_i2c.c **** }
 1450              		.loc 1 1109 1 view .LVU392
 1451 0016 7047     		bx	lr
 1452              		.cfi_endproc
 1453              	.LFE151:
 1455              		.section	.text.I2C_CheckEvent,"ax",%progbits
 1456              		.align	1
 1457              		.global	I2C_CheckEvent
 1458              		.syntax unified
 1459              		.thumb
 1460              		.thumb_func
 1461              		.fpu fpv4-sp-d16
 1463              	I2C_CheckEvent:
 1464              	.LVL90:
 1465              	.LFB152:
1110:STM32F4xx_LIB/periph/src/stm32f4xx_i2c.c **** 
1111:STM32F4xx_LIB/periph/src/stm32f4xx_i2c.c **** /*
1112:STM32F4xx_LIB/periph/src/stm32f4xx_i2c.c ****  ===============================================================================
1113:STM32F4xx_LIB/periph/src/stm32f4xx_i2c.c ****                           1. Basic state monitoring                    
1114:STM32F4xx_LIB/periph/src/stm32f4xx_i2c.c ****  ===============================================================================  
1115:STM32F4xx_LIB/periph/src/stm32f4xx_i2c.c ****  */
ARM GAS  C:\Users\京垓\AppData\Local\Temp\ccBmAlt6.s 			page 46


1116:STM32F4xx_LIB/periph/src/stm32f4xx_i2c.c **** 
1117:STM32F4xx_LIB/periph/src/stm32f4xx_i2c.c **** /**
1118:STM32F4xx_LIB/periph/src/stm32f4xx_i2c.c ****   * @brief  Checks whether the last I2Cx Event is equal to the one passed
1119:STM32F4xx_LIB/periph/src/stm32f4xx_i2c.c ****   *         as parameter.
1120:STM32F4xx_LIB/periph/src/stm32f4xx_i2c.c ****   * @param  I2Cx: where x can be 1, 2 or 3 to select the I2C peripheral.
1121:STM32F4xx_LIB/periph/src/stm32f4xx_i2c.c ****   * @param  I2C_EVENT: specifies the event to be checked. 
1122:STM32F4xx_LIB/periph/src/stm32f4xx_i2c.c ****   *          This parameter can be one of the following values:
1123:STM32F4xx_LIB/periph/src/stm32f4xx_i2c.c ****   *            @arg I2C_EVENT_SLAVE_TRANSMITTER_ADDRESS_MATCHED: EV1
1124:STM32F4xx_LIB/periph/src/stm32f4xx_i2c.c ****   *            @arg I2C_EVENT_SLAVE_RECEIVER_ADDRESS_MATCHED: EV1
1125:STM32F4xx_LIB/periph/src/stm32f4xx_i2c.c ****   *            @arg I2C_EVENT_SLAVE_TRANSMITTER_SECONDADDRESS_MATCHED: EV1
1126:STM32F4xx_LIB/periph/src/stm32f4xx_i2c.c ****   *            @arg I2C_EVENT_SLAVE_RECEIVER_SECONDADDRESS_MATCHED: EV1
1127:STM32F4xx_LIB/periph/src/stm32f4xx_i2c.c ****   *            @arg I2C_EVENT_SLAVE_GENERALCALLADDRESS_MATCHED: EV1
1128:STM32F4xx_LIB/periph/src/stm32f4xx_i2c.c ****   *            @arg I2C_EVENT_SLAVE_BYTE_RECEIVED: EV2
1129:STM32F4xx_LIB/periph/src/stm32f4xx_i2c.c ****   *            @arg (I2C_EVENT_SLAVE_BYTE_RECEIVED | I2C_FLAG_DUALF): EV2
1130:STM32F4xx_LIB/periph/src/stm32f4xx_i2c.c ****   *            @arg (I2C_EVENT_SLAVE_BYTE_RECEIVED | I2C_FLAG_GENCALL): EV2
1131:STM32F4xx_LIB/periph/src/stm32f4xx_i2c.c ****   *            @arg I2C_EVENT_SLAVE_BYTE_TRANSMITTED: EV3
1132:STM32F4xx_LIB/periph/src/stm32f4xx_i2c.c ****   *            @arg (I2C_EVENT_SLAVE_BYTE_TRANSMITTED | I2C_FLAG_DUALF): EV3
1133:STM32F4xx_LIB/periph/src/stm32f4xx_i2c.c ****   *            @arg (I2C_EVENT_SLAVE_BYTE_TRANSMITTED | I2C_FLAG_GENCALL): EV3
1134:STM32F4xx_LIB/periph/src/stm32f4xx_i2c.c ****   *            @arg I2C_EVENT_SLAVE_ACK_FAILURE: EV3_2
1135:STM32F4xx_LIB/periph/src/stm32f4xx_i2c.c ****   *            @arg I2C_EVENT_SLAVE_STOP_DETECTED: EV4
1136:STM32F4xx_LIB/periph/src/stm32f4xx_i2c.c ****   *            @arg I2C_EVENT_MASTER_MODE_SELECT: EV5
1137:STM32F4xx_LIB/periph/src/stm32f4xx_i2c.c ****   *            @arg I2C_EVENT_MASTER_TRANSMITTER_MODE_SELECTED: EV6     
1138:STM32F4xx_LIB/periph/src/stm32f4xx_i2c.c ****   *            @arg I2C_EVENT_MASTER_RECEIVER_MODE_SELECTED: EV6
1139:STM32F4xx_LIB/periph/src/stm32f4xx_i2c.c ****   *            @arg I2C_EVENT_MASTER_BYTE_RECEIVED: EV7
1140:STM32F4xx_LIB/periph/src/stm32f4xx_i2c.c ****   *            @arg I2C_EVENT_MASTER_BYTE_TRANSMITTING: EV8
1141:STM32F4xx_LIB/periph/src/stm32f4xx_i2c.c ****   *            @arg I2C_EVENT_MASTER_BYTE_TRANSMITTED: EV8_2
1142:STM32F4xx_LIB/periph/src/stm32f4xx_i2c.c ****   *            @arg I2C_EVENT_MASTER_MODE_ADDRESS10: EV9
1143:STM32F4xx_LIB/periph/src/stm32f4xx_i2c.c ****   *     
1144:STM32F4xx_LIB/periph/src/stm32f4xx_i2c.c ****   * @note   For detailed description of Events, please refer to section I2C_Events
1145:STM32F4xx_LIB/periph/src/stm32f4xx_i2c.c ****   *         in stm32f4xx_i2c.h file.
1146:STM32F4xx_LIB/periph/src/stm32f4xx_i2c.c ****   *    
1147:STM32F4xx_LIB/periph/src/stm32f4xx_i2c.c ****   * @retval An ErrorStatus enumeration value:
1148:STM32F4xx_LIB/periph/src/stm32f4xx_i2c.c ****   *           - SUCCESS: Last event is equal to the I2C_EVENT
1149:STM32F4xx_LIB/periph/src/stm32f4xx_i2c.c ****   *           - ERROR: Last event is different from the I2C_EVENT
1150:STM32F4xx_LIB/periph/src/stm32f4xx_i2c.c ****   */
1151:STM32F4xx_LIB/periph/src/stm32f4xx_i2c.c **** ErrorStatus I2C_CheckEvent(I2C_TypeDef* I2Cx, uint32_t I2C_EVENT)
1152:STM32F4xx_LIB/periph/src/stm32f4xx_i2c.c **** {
 1466              		.loc 1 1152 1 is_stmt 1 view -0
 1467              		.cfi_startproc
 1468              		@ args = 0, pretend = 0, frame = 0
 1469              		@ frame_needed = 0, uses_anonymous_args = 0
 1470              		@ link register save eliminated.
1153:STM32F4xx_LIB/periph/src/stm32f4xx_i2c.c ****   uint32_t lastevent = 0;
 1471              		.loc 1 1153 3 view .LVU394
1154:STM32F4xx_LIB/periph/src/stm32f4xx_i2c.c ****   uint32_t flag1 = 0, flag2 = 0;
 1472              		.loc 1 1154 3 view .LVU395
1155:STM32F4xx_LIB/periph/src/stm32f4xx_i2c.c ****   ErrorStatus status = ERROR;
 1473              		.loc 1 1155 3 view .LVU396
1156:STM32F4xx_LIB/periph/src/stm32f4xx_i2c.c **** 
1157:STM32F4xx_LIB/periph/src/stm32f4xx_i2c.c ****   /* Check the parameters */
1158:STM32F4xx_LIB/periph/src/stm32f4xx_i2c.c ****   assert_param(IS_I2C_ALL_PERIPH(I2Cx));
 1474              		.loc 1 1158 3 view .LVU397
1159:STM32F4xx_LIB/periph/src/stm32f4xx_i2c.c ****   assert_param(IS_I2C_EVENT(I2C_EVENT));
 1475              		.loc 1 1159 3 view .LVU398
1160:STM32F4xx_LIB/periph/src/stm32f4xx_i2c.c **** 
1161:STM32F4xx_LIB/periph/src/stm32f4xx_i2c.c ****   /* Read the I2Cx status register */
1162:STM32F4xx_LIB/periph/src/stm32f4xx_i2c.c ****   flag1 = I2Cx->SR1;
ARM GAS  C:\Users\京垓\AppData\Local\Temp\ccBmAlt6.s 			page 47


 1476              		.loc 1 1162 3 view .LVU399
 1477              		.loc 1 1162 15 is_stmt 0 view .LVU400
 1478 0000 838A     		ldrh	r3, [r0, #20]
 1479 0002 9BB2     		uxth	r3, r3
 1480              	.LVL91:
1163:STM32F4xx_LIB/periph/src/stm32f4xx_i2c.c **** 
1164:STM32F4xx_LIB/periph/src/stm32f4xx_i2c.c ****   /* I2C_SR2 must be read only when ADDR is found set in I2C_SR1 or when the STOPF bit is cleared *
1165:STM32F4xx_LIB/periph/src/stm32f4xx_i2c.c ****   if((flag1 & I2C_SR1_ADDR) || (flag1 & ~I2C_SR1_STOPF)) 
 1481              		.loc 1 1165 3 is_stmt 1 view .LVU401
 1482              		.loc 1 1165 5 is_stmt 0 view .LVU402
 1483 0004 33F01002 		bics	r2, r3, #16
 1484 0008 0BD0     		beq	.L96
1166:STM32F4xx_LIB/periph/src/stm32f4xx_i2c.c ****   {
1167:STM32F4xx_LIB/periph/src/stm32f4xx_i2c.c ****     flag2 = I2Cx->SR2;
 1485              		.loc 1 1167 5 is_stmt 1 view .LVU403
 1486              		.loc 1 1167 17 is_stmt 0 view .LVU404
 1487 000a 028B     		ldrh	r2, [r0, #24]
 1488              	.LVL92:
1168:STM32F4xx_LIB/periph/src/stm32f4xx_i2c.c ****   }
1169:STM32F4xx_LIB/periph/src/stm32f4xx_i2c.c ****   else 
1170:STM32F4xx_LIB/periph/src/stm32f4xx_i2c.c ****   { 
1171:STM32F4xx_LIB/periph/src/stm32f4xx_i2c.c ****     return ERROR; 
1172:STM32F4xx_LIB/periph/src/stm32f4xx_i2c.c ****   }
1173:STM32F4xx_LIB/periph/src/stm32f4xx_i2c.c ****   flag2 = flag2 << 16;
 1489              		.loc 1 1173 3 is_stmt 1 view .LVU405
1174:STM32F4xx_LIB/periph/src/stm32f4xx_i2c.c **** 
1175:STM32F4xx_LIB/periph/src/stm32f4xx_i2c.c ****   /* Get the last event value from I2C status register */
1176:STM32F4xx_LIB/periph/src/stm32f4xx_i2c.c ****   lastevent = (flag1 | flag2) & FLAG_MASK;
 1490              		.loc 1 1176 3 view .LVU406
 1491              		.loc 1 1176 22 is_stmt 0 view .LVU407
 1492 000c 43EA0243 		orr	r3, r3, r2, lsl #16
 1493              	.LVL93:
 1494              		.loc 1 1176 13 view .LVU408
 1495 0010 23F07F43 		bic	r3, r3, #-16777216
 1496              	.LVL94:
1177:STM32F4xx_LIB/periph/src/stm32f4xx_i2c.c **** 
1178:STM32F4xx_LIB/periph/src/stm32f4xx_i2c.c ****   /* Check whether the last event contains the I2C_EVENT */
1179:STM32F4xx_LIB/periph/src/stm32f4xx_i2c.c ****   if ((lastevent & I2C_EVENT) == I2C_EVENT)
 1497              		.loc 1 1179 3 is_stmt 1 view .LVU409
 1498              		.loc 1 1179 6 is_stmt 0 view .LVU410
 1499 0014 31EA0303 		bics	r3, r1, r3
 1500              	.LVL95:
 1501              		.loc 1 1179 6 view .LVU411
 1502 0018 01D0     		beq	.L98
1180:STM32F4xx_LIB/periph/src/stm32f4xx_i2c.c ****   {
1181:STM32F4xx_LIB/periph/src/stm32f4xx_i2c.c ****     /* SUCCESS: last event is equal to I2C_EVENT */
1182:STM32F4xx_LIB/periph/src/stm32f4xx_i2c.c ****     status = SUCCESS;
1183:STM32F4xx_LIB/periph/src/stm32f4xx_i2c.c ****   }
1184:STM32F4xx_LIB/periph/src/stm32f4xx_i2c.c ****   else
1185:STM32F4xx_LIB/periph/src/stm32f4xx_i2c.c ****   {
1186:STM32F4xx_LIB/periph/src/stm32f4xx_i2c.c ****     /* ERROR: last event is different from I2C_EVENT */
1187:STM32F4xx_LIB/periph/src/stm32f4xx_i2c.c ****     status = ERROR;
 1503              		.loc 1 1187 12 view .LVU412
 1504 001a 0020     		movs	r0, #0
 1505              	.LVL96:
1188:STM32F4xx_LIB/periph/src/stm32f4xx_i2c.c ****   }
1189:STM32F4xx_LIB/periph/src/stm32f4xx_i2c.c ****   /* Return status */
ARM GAS  C:\Users\京垓\AppData\Local\Temp\ccBmAlt6.s 			page 48


1190:STM32F4xx_LIB/periph/src/stm32f4xx_i2c.c ****   return status;
1191:STM32F4xx_LIB/periph/src/stm32f4xx_i2c.c **** }
 1506              		.loc 1 1191 1 view .LVU413
 1507 001c 7047     		bx	lr
 1508              	.LVL97:
 1509              	.L98:
1182:STM32F4xx_LIB/periph/src/stm32f4xx_i2c.c ****   }
 1510              		.loc 1 1182 12 view .LVU414
 1511 001e 0120     		movs	r0, #1
 1512              	.LVL98:
1182:STM32F4xx_LIB/periph/src/stm32f4xx_i2c.c ****   }
 1513              		.loc 1 1182 12 view .LVU415
 1514 0020 7047     		bx	lr
 1515              	.LVL99:
 1516              	.L96:
1171:STM32F4xx_LIB/periph/src/stm32f4xx_i2c.c ****   }
 1517              		.loc 1 1171 12 view .LVU416
 1518 0022 0020     		movs	r0, #0
 1519              	.LVL100:
1171:STM32F4xx_LIB/periph/src/stm32f4xx_i2c.c ****   }
 1520              		.loc 1 1171 12 view .LVU417
 1521 0024 7047     		bx	lr
 1522              		.cfi_endproc
 1523              	.LFE152:
 1525              		.section	.text.I2C_GetLastEvent,"ax",%progbits
 1526              		.align	1
 1527              		.global	I2C_GetLastEvent
 1528              		.syntax unified
 1529              		.thumb
 1530              		.thumb_func
 1531              		.fpu fpv4-sp-d16
 1533              	I2C_GetLastEvent:
 1534              	.LVL101:
 1535              	.LFB153:
1192:STM32F4xx_LIB/periph/src/stm32f4xx_i2c.c **** 
1193:STM32F4xx_LIB/periph/src/stm32f4xx_i2c.c **** /*
1194:STM32F4xx_LIB/periph/src/stm32f4xx_i2c.c ****  ===============================================================================
1195:STM32F4xx_LIB/periph/src/stm32f4xx_i2c.c ****                           2. Advanced state monitoring                   
1196:STM32F4xx_LIB/periph/src/stm32f4xx_i2c.c ****  ===============================================================================  
1197:STM32F4xx_LIB/periph/src/stm32f4xx_i2c.c ****  */
1198:STM32F4xx_LIB/periph/src/stm32f4xx_i2c.c **** 
1199:STM32F4xx_LIB/periph/src/stm32f4xx_i2c.c **** /**
1200:STM32F4xx_LIB/periph/src/stm32f4xx_i2c.c ****   * @brief  Returns the last I2Cx Event.
1201:STM32F4xx_LIB/periph/src/stm32f4xx_i2c.c ****   * @param  I2Cx: where x can be 1, 2 or 3 to select the I2C peripheral.
1202:STM32F4xx_LIB/periph/src/stm32f4xx_i2c.c ****   *     
1203:STM32F4xx_LIB/periph/src/stm32f4xx_i2c.c ****   * @note   For detailed description of Events, please refer to section I2C_Events
1204:STM32F4xx_LIB/periph/src/stm32f4xx_i2c.c ****   *         in stm32f4xx_i2c.h file.
1205:STM32F4xx_LIB/periph/src/stm32f4xx_i2c.c ****   *    
1206:STM32F4xx_LIB/periph/src/stm32f4xx_i2c.c ****   * @retval The last event
1207:STM32F4xx_LIB/periph/src/stm32f4xx_i2c.c ****   */
1208:STM32F4xx_LIB/periph/src/stm32f4xx_i2c.c **** uint32_t I2C_GetLastEvent(I2C_TypeDef* I2Cx)
1209:STM32F4xx_LIB/periph/src/stm32f4xx_i2c.c **** {
 1536              		.loc 1 1209 1 is_stmt 1 view -0
 1537              		.cfi_startproc
 1538              		@ args = 0, pretend = 0, frame = 0
 1539              		@ frame_needed = 0, uses_anonymous_args = 0
 1540              		@ link register save eliminated.
ARM GAS  C:\Users\京垓\AppData\Local\Temp\ccBmAlt6.s 			page 49


1210:STM32F4xx_LIB/periph/src/stm32f4xx_i2c.c ****   uint32_t lastevent = 0;
 1541              		.loc 1 1210 3 view .LVU419
1211:STM32F4xx_LIB/periph/src/stm32f4xx_i2c.c ****   uint32_t flag1 = 0, flag2 = 0;
 1542              		.loc 1 1211 3 view .LVU420
1212:STM32F4xx_LIB/periph/src/stm32f4xx_i2c.c **** 
1213:STM32F4xx_LIB/periph/src/stm32f4xx_i2c.c ****   /* Check the parameters */
1214:STM32F4xx_LIB/periph/src/stm32f4xx_i2c.c ****   assert_param(IS_I2C_ALL_PERIPH(I2Cx));
 1543              		.loc 1 1214 3 view .LVU421
1215:STM32F4xx_LIB/periph/src/stm32f4xx_i2c.c **** 
1216:STM32F4xx_LIB/periph/src/stm32f4xx_i2c.c ****   /* Read the I2Cx status register */
1217:STM32F4xx_LIB/periph/src/stm32f4xx_i2c.c ****   flag1 = I2Cx->SR1;
 1544              		.loc 1 1217 3 view .LVU422
 1545              		.loc 1 1217 15 is_stmt 0 view .LVU423
 1546 0000 838A     		ldrh	r3, [r0, #20]
 1547 0002 9BB2     		uxth	r3, r3
 1548              	.LVL102:
1218:STM32F4xx_LIB/periph/src/stm32f4xx_i2c.c ****   flag2 = I2Cx->SR2;
 1549              		.loc 1 1218 3 is_stmt 1 view .LVU424
 1550              		.loc 1 1218 15 is_stmt 0 view .LVU425
 1551 0004 008B     		ldrh	r0, [r0, #24]
 1552              	.LVL103:
1219:STM32F4xx_LIB/periph/src/stm32f4xx_i2c.c ****   flag2 = flag2 << 16;
 1553              		.loc 1 1219 3 is_stmt 1 view .LVU426
1220:STM32F4xx_LIB/periph/src/stm32f4xx_i2c.c **** 
1221:STM32F4xx_LIB/periph/src/stm32f4xx_i2c.c ****   /* Get the last event value from I2C status register */
1222:STM32F4xx_LIB/periph/src/stm32f4xx_i2c.c ****   lastevent = (flag1 | flag2) & FLAG_MASK;
 1554              		.loc 1 1222 3 view .LVU427
 1555              		.loc 1 1222 22 is_stmt 0 view .LVU428
 1556 0006 43EA0040 		orr	r0, r3, r0, lsl #16
 1557              	.LVL104:
1223:STM32F4xx_LIB/periph/src/stm32f4xx_i2c.c **** 
1224:STM32F4xx_LIB/periph/src/stm32f4xx_i2c.c ****   /* Return status */
1225:STM32F4xx_LIB/periph/src/stm32f4xx_i2c.c ****   return lastevent;
 1558              		.loc 1 1225 3 is_stmt 1 view .LVU429
1226:STM32F4xx_LIB/periph/src/stm32f4xx_i2c.c **** }
 1559              		.loc 1 1226 1 is_stmt 0 view .LVU430
 1560 000a 20F07F40 		bic	r0, r0, #-16777216
 1561              	.LVL105:
 1562              		.loc 1 1226 1 view .LVU431
 1563 000e 7047     		bx	lr
 1564              		.cfi_endproc
 1565              	.LFE153:
 1567              		.section	.text.I2C_GetFlagStatus,"ax",%progbits
 1568              		.align	1
 1569              		.global	I2C_GetFlagStatus
 1570              		.syntax unified
 1571              		.thumb
 1572              		.thumb_func
 1573              		.fpu fpv4-sp-d16
 1575              	I2C_GetFlagStatus:
 1576              	.LVL106:
 1577              	.LFB154:
1227:STM32F4xx_LIB/periph/src/stm32f4xx_i2c.c **** 
1228:STM32F4xx_LIB/periph/src/stm32f4xx_i2c.c **** /*
1229:STM32F4xx_LIB/periph/src/stm32f4xx_i2c.c ****  ===============================================================================
1230:STM32F4xx_LIB/periph/src/stm32f4xx_i2c.c ****                           3. Flag-based state monitoring                   
1231:STM32F4xx_LIB/periph/src/stm32f4xx_i2c.c ****  ===============================================================================  
ARM GAS  C:\Users\京垓\AppData\Local\Temp\ccBmAlt6.s 			page 50


1232:STM32F4xx_LIB/periph/src/stm32f4xx_i2c.c ****  */
1233:STM32F4xx_LIB/periph/src/stm32f4xx_i2c.c **** 
1234:STM32F4xx_LIB/periph/src/stm32f4xx_i2c.c **** /**
1235:STM32F4xx_LIB/periph/src/stm32f4xx_i2c.c ****   * @brief  Checks whether the specified I2C flag is set or not.
1236:STM32F4xx_LIB/periph/src/stm32f4xx_i2c.c ****   * @param  I2Cx: where x can be 1, 2 or 3 to select the I2C peripheral.
1237:STM32F4xx_LIB/periph/src/stm32f4xx_i2c.c ****   * @param  I2C_FLAG: specifies the flag to check. 
1238:STM32F4xx_LIB/periph/src/stm32f4xx_i2c.c ****   *          This parameter can be one of the following values:
1239:STM32F4xx_LIB/periph/src/stm32f4xx_i2c.c ****   *            @arg I2C_FLAG_DUALF: Dual flag (Slave mode)
1240:STM32F4xx_LIB/periph/src/stm32f4xx_i2c.c ****   *            @arg I2C_FLAG_SMBHOST: SMBus host header (Slave mode)
1241:STM32F4xx_LIB/periph/src/stm32f4xx_i2c.c ****   *            @arg I2C_FLAG_SMBDEFAULT: SMBus default header (Slave mode)
1242:STM32F4xx_LIB/periph/src/stm32f4xx_i2c.c ****   *            @arg I2C_FLAG_GENCALL: General call header flag (Slave mode)
1243:STM32F4xx_LIB/periph/src/stm32f4xx_i2c.c ****   *            @arg I2C_FLAG_TRA: Transmitter/Receiver flag
1244:STM32F4xx_LIB/periph/src/stm32f4xx_i2c.c ****   *            @arg I2C_FLAG_BUSY: Bus busy flag
1245:STM32F4xx_LIB/periph/src/stm32f4xx_i2c.c ****   *            @arg I2C_FLAG_MSL: Master/Slave flag
1246:STM32F4xx_LIB/periph/src/stm32f4xx_i2c.c ****   *            @arg I2C_FLAG_SMBALERT: SMBus Alert flag
1247:STM32F4xx_LIB/periph/src/stm32f4xx_i2c.c ****   *            @arg I2C_FLAG_TIMEOUT: Timeout or Tlow error flag
1248:STM32F4xx_LIB/periph/src/stm32f4xx_i2c.c ****   *            @arg I2C_FLAG_PECERR: PEC error in reception flag
1249:STM32F4xx_LIB/periph/src/stm32f4xx_i2c.c ****   *            @arg I2C_FLAG_OVR: Overrun/Underrun flag (Slave mode)
1250:STM32F4xx_LIB/periph/src/stm32f4xx_i2c.c ****   *            @arg I2C_FLAG_AF: Acknowledge failure flag
1251:STM32F4xx_LIB/periph/src/stm32f4xx_i2c.c ****   *            @arg I2C_FLAG_ARLO: Arbitration lost flag (Master mode)
1252:STM32F4xx_LIB/periph/src/stm32f4xx_i2c.c ****   *            @arg I2C_FLAG_BERR: Bus error flag
1253:STM32F4xx_LIB/periph/src/stm32f4xx_i2c.c ****   *            @arg I2C_FLAG_TXE: Data register empty flag (Transmitter)
1254:STM32F4xx_LIB/periph/src/stm32f4xx_i2c.c ****   *            @arg I2C_FLAG_RXNE: Data register not empty (Receiver) flag
1255:STM32F4xx_LIB/periph/src/stm32f4xx_i2c.c ****   *            @arg I2C_FLAG_STOPF: Stop detection flag (Slave mode)
1256:STM32F4xx_LIB/periph/src/stm32f4xx_i2c.c ****   *            @arg I2C_FLAG_ADD10: 10-bit header sent flag (Master mode)
1257:STM32F4xx_LIB/periph/src/stm32f4xx_i2c.c ****   *            @arg I2C_FLAG_BTF: Byte transfer finished flag
1258:STM32F4xx_LIB/periph/src/stm32f4xx_i2c.c ****   *            @arg I2C_FLAG_ADDR: Address sent flag (Master mode) "ADSL"
1259:STM32F4xx_LIB/periph/src/stm32f4xx_i2c.c ****   *                                Address matched flag (Slave mode)"ENDAD"
1260:STM32F4xx_LIB/periph/src/stm32f4xx_i2c.c ****   *            @arg I2C_FLAG_SB: Start bit flag (Master mode)
1261:STM32F4xx_LIB/periph/src/stm32f4xx_i2c.c ****   * @retval The new state of I2C_FLAG (SET or RESET).
1262:STM32F4xx_LIB/periph/src/stm32f4xx_i2c.c ****   */
1263:STM32F4xx_LIB/periph/src/stm32f4xx_i2c.c **** FlagStatus I2C_GetFlagStatus(I2C_TypeDef* I2Cx, uint32_t I2C_FLAG)
1264:STM32F4xx_LIB/periph/src/stm32f4xx_i2c.c **** {
 1578              		.loc 1 1264 1 is_stmt 1 view -0
 1579              		.cfi_startproc
 1580              		@ args = 0, pretend = 0, frame = 8
 1581              		@ frame_needed = 0, uses_anonymous_args = 0
 1582              		@ link register save eliminated.
 1583              		.loc 1 1264 1 is_stmt 0 view .LVU433
 1584 0000 82B0     		sub	sp, sp, #8
 1585              	.LCFI7:
 1586              		.cfi_def_cfa_offset 8
1265:STM32F4xx_LIB/periph/src/stm32f4xx_i2c.c ****   FlagStatus bitstatus = RESET;
 1587              		.loc 1 1265 3 is_stmt 1 view .LVU434
 1588              	.LVL107:
1266:STM32F4xx_LIB/periph/src/stm32f4xx_i2c.c ****   __IO uint32_t i2creg = 0, i2cxbase = 0;
 1589              		.loc 1 1266 3 view .LVU435
 1590              		.loc 1 1266 17 is_stmt 0 view .LVU436
 1591 0002 0023     		movs	r3, #0
 1592 0004 0193     		str	r3, [sp, #4]
 1593              		.loc 1 1266 29 view .LVU437
 1594 0006 0093     		str	r3, [sp]
1267:STM32F4xx_LIB/periph/src/stm32f4xx_i2c.c **** 
1268:STM32F4xx_LIB/periph/src/stm32f4xx_i2c.c ****   /* Check the parameters */
1269:STM32F4xx_LIB/periph/src/stm32f4xx_i2c.c ****   assert_param(IS_I2C_ALL_PERIPH(I2Cx));
 1595              		.loc 1 1269 3 is_stmt 1 view .LVU438
1270:STM32F4xx_LIB/periph/src/stm32f4xx_i2c.c ****   assert_param(IS_I2C_GET_FLAG(I2C_FLAG));
ARM GAS  C:\Users\京垓\AppData\Local\Temp\ccBmAlt6.s 			page 51


 1596              		.loc 1 1270 3 view .LVU439
1271:STM32F4xx_LIB/periph/src/stm32f4xx_i2c.c **** 
1272:STM32F4xx_LIB/periph/src/stm32f4xx_i2c.c ****   /* Get the I2Cx peripheral base address */
1273:STM32F4xx_LIB/periph/src/stm32f4xx_i2c.c ****   i2cxbase = (uint32_t)I2Cx;
 1597              		.loc 1 1273 3 view .LVU440
 1598              		.loc 1 1273 12 is_stmt 0 view .LVU441
 1599 0008 0090     		str	r0, [sp]
1274:STM32F4xx_LIB/periph/src/stm32f4xx_i2c.c ****   
1275:STM32F4xx_LIB/periph/src/stm32f4xx_i2c.c ****   /* Read flag register index */
1276:STM32F4xx_LIB/periph/src/stm32f4xx_i2c.c ****   i2creg = I2C_FLAG >> 28;
 1600              		.loc 1 1276 3 is_stmt 1 view .LVU442
 1601              		.loc 1 1276 21 is_stmt 0 view .LVU443
 1602 000a 0B0F     		lsrs	r3, r1, #28
 1603              		.loc 1 1276 10 view .LVU444
 1604 000c 0193     		str	r3, [sp, #4]
1277:STM32F4xx_LIB/periph/src/stm32f4xx_i2c.c ****   
1278:STM32F4xx_LIB/periph/src/stm32f4xx_i2c.c ****   /* Get bit[23:0] of the flag */
1279:STM32F4xx_LIB/periph/src/stm32f4xx_i2c.c ****   I2C_FLAG &= FLAG_MASK;
 1605              		.loc 1 1279 3 is_stmt 1 view .LVU445
 1606              		.loc 1 1279 12 is_stmt 0 view .LVU446
 1607 000e 21F07F41 		bic	r1, r1, #-16777216
 1608              	.LVL108:
1280:STM32F4xx_LIB/periph/src/stm32f4xx_i2c.c ****   
1281:STM32F4xx_LIB/periph/src/stm32f4xx_i2c.c ****   if(i2creg != 0)
 1609              		.loc 1 1281 3 is_stmt 1 view .LVU447
 1610              		.loc 1 1281 13 is_stmt 0 view .LVU448
 1611 0012 019B     		ldr	r3, [sp, #4]
 1612              		.loc 1 1281 5 view .LVU449
 1613 0014 4BB1     		cbz	r3, .L101
1282:STM32F4xx_LIB/periph/src/stm32f4xx_i2c.c ****   {
1283:STM32F4xx_LIB/periph/src/stm32f4xx_i2c.c ****     /* Get the I2Cx SR1 register address */
1284:STM32F4xx_LIB/periph/src/stm32f4xx_i2c.c ****     i2cxbase += 0x14;
 1614              		.loc 1 1284 5 is_stmt 1 view .LVU450
 1615              		.loc 1 1284 14 is_stmt 0 view .LVU451
 1616 0016 009B     		ldr	r3, [sp]
 1617 0018 1433     		adds	r3, r3, #20
 1618 001a 0093     		str	r3, [sp]
 1619              	.L102:
1285:STM32F4xx_LIB/periph/src/stm32f4xx_i2c.c ****   }
1286:STM32F4xx_LIB/periph/src/stm32f4xx_i2c.c ****   else
1287:STM32F4xx_LIB/periph/src/stm32f4xx_i2c.c ****   {
1288:STM32F4xx_LIB/periph/src/stm32f4xx_i2c.c ****     /* Flag in I2Cx SR2 Register */
1289:STM32F4xx_LIB/periph/src/stm32f4xx_i2c.c ****     I2C_FLAG = (uint32_t)(I2C_FLAG >> 16);
1290:STM32F4xx_LIB/periph/src/stm32f4xx_i2c.c ****     /* Get the I2Cx SR2 register address */
1291:STM32F4xx_LIB/periph/src/stm32f4xx_i2c.c ****     i2cxbase += 0x18;
1292:STM32F4xx_LIB/periph/src/stm32f4xx_i2c.c ****   }
1293:STM32F4xx_LIB/periph/src/stm32f4xx_i2c.c ****   
1294:STM32F4xx_LIB/periph/src/stm32f4xx_i2c.c ****   if(((*(__IO uint32_t *)i2cxbase) & I2C_FLAG) != (uint32_t)RESET)
 1620              		.loc 1 1294 3 is_stmt 1 view .LVU452
 1621              		.loc 1 1294 9 is_stmt 0 view .LVU453
 1622 001c 009B     		ldr	r3, [sp]
 1623              		.loc 1 1294 8 view .LVU454
 1624 001e 1B68     		ldr	r3, [r3]
 1625              		.loc 1 1294 5 view .LVU455
 1626 0020 0B42     		tst	r3, r1
 1627 0022 07D0     		beq	.L104
1295:STM32F4xx_LIB/periph/src/stm32f4xx_i2c.c ****   {
ARM GAS  C:\Users\京垓\AppData\Local\Temp\ccBmAlt6.s 			page 52


1296:STM32F4xx_LIB/periph/src/stm32f4xx_i2c.c ****     /* I2C_FLAG is set */
1297:STM32F4xx_LIB/periph/src/stm32f4xx_i2c.c ****     bitstatus = SET;
 1628              		.loc 1 1297 15 view .LVU456
 1629 0024 0120     		movs	r0, #1
 1630              	.LVL109:
 1631              	.L103:
1298:STM32F4xx_LIB/periph/src/stm32f4xx_i2c.c ****   }
1299:STM32F4xx_LIB/periph/src/stm32f4xx_i2c.c ****   else
1300:STM32F4xx_LIB/periph/src/stm32f4xx_i2c.c ****   {
1301:STM32F4xx_LIB/periph/src/stm32f4xx_i2c.c ****     /* I2C_FLAG is reset */
1302:STM32F4xx_LIB/periph/src/stm32f4xx_i2c.c ****     bitstatus = RESET;
1303:STM32F4xx_LIB/periph/src/stm32f4xx_i2c.c ****   }
1304:STM32F4xx_LIB/periph/src/stm32f4xx_i2c.c ****   
1305:STM32F4xx_LIB/periph/src/stm32f4xx_i2c.c ****   /* Return the I2C_FLAG status */
1306:STM32F4xx_LIB/periph/src/stm32f4xx_i2c.c ****   return  bitstatus;
 1632              		.loc 1 1306 3 is_stmt 1 view .LVU457
1307:STM32F4xx_LIB/periph/src/stm32f4xx_i2c.c **** }
 1633              		.loc 1 1307 1 is_stmt 0 view .LVU458
 1634 0026 02B0     		add	sp, sp, #8
 1635              	.LCFI8:
 1636              		.cfi_remember_state
 1637              		.cfi_def_cfa_offset 0
 1638              		@ sp needed
 1639 0028 7047     		bx	lr
 1640              	.LVL110:
 1641              	.L101:
 1642              	.LCFI9:
 1643              		.cfi_restore_state
1289:STM32F4xx_LIB/periph/src/stm32f4xx_i2c.c ****     /* Get the I2Cx SR2 register address */
 1644              		.loc 1 1289 5 is_stmt 1 view .LVU459
1289:STM32F4xx_LIB/periph/src/stm32f4xx_i2c.c ****     /* Get the I2Cx SR2 register address */
 1645              		.loc 1 1289 14 is_stmt 0 view .LVU460
 1646 002a 090C     		lsrs	r1, r1, #16
 1647              	.LVL111:
1291:STM32F4xx_LIB/periph/src/stm32f4xx_i2c.c ****   }
 1648              		.loc 1 1291 5 is_stmt 1 view .LVU461
1291:STM32F4xx_LIB/periph/src/stm32f4xx_i2c.c ****   }
 1649              		.loc 1 1291 14 is_stmt 0 view .LVU462
 1650 002c 009B     		ldr	r3, [sp]
 1651 002e 1833     		adds	r3, r3, #24
 1652 0030 0093     		str	r3, [sp]
 1653 0032 F3E7     		b	.L102
 1654              	.L104:
1302:STM32F4xx_LIB/periph/src/stm32f4xx_i2c.c ****   }
 1655              		.loc 1 1302 15 view .LVU463
 1656 0034 0020     		movs	r0, #0
 1657              	.LVL112:
1302:STM32F4xx_LIB/periph/src/stm32f4xx_i2c.c ****   }
 1658              		.loc 1 1302 15 view .LVU464
 1659 0036 F6E7     		b	.L103
 1660              		.cfi_endproc
 1661              	.LFE154:
 1663              		.section	.text.I2C_ClearFlag,"ax",%progbits
 1664              		.align	1
 1665              		.global	I2C_ClearFlag
 1666              		.syntax unified
 1667              		.thumb
ARM GAS  C:\Users\京垓\AppData\Local\Temp\ccBmAlt6.s 			page 53


 1668              		.thumb_func
 1669              		.fpu fpv4-sp-d16
 1671              	I2C_ClearFlag:
 1672              	.LVL113:
 1673              	.LFB155:
1308:STM32F4xx_LIB/periph/src/stm32f4xx_i2c.c **** 
1309:STM32F4xx_LIB/periph/src/stm32f4xx_i2c.c **** /**
1310:STM32F4xx_LIB/periph/src/stm32f4xx_i2c.c ****   * @brief  Clears the I2Cx's pending flags.
1311:STM32F4xx_LIB/periph/src/stm32f4xx_i2c.c ****   * @param  I2Cx: where x can be 1, 2 or 3 to select the I2C peripheral.
1312:STM32F4xx_LIB/periph/src/stm32f4xx_i2c.c ****   * @param  I2C_FLAG: specifies the flag to clear. 
1313:STM32F4xx_LIB/periph/src/stm32f4xx_i2c.c ****   *          This parameter can be any combination of the following values:
1314:STM32F4xx_LIB/periph/src/stm32f4xx_i2c.c ****   *            @arg I2C_FLAG_SMBALERT: SMBus Alert flag
1315:STM32F4xx_LIB/periph/src/stm32f4xx_i2c.c ****   *            @arg I2C_FLAG_TIMEOUT: Timeout or Tlow error flag
1316:STM32F4xx_LIB/periph/src/stm32f4xx_i2c.c ****   *            @arg I2C_FLAG_PECERR: PEC error in reception flag
1317:STM32F4xx_LIB/periph/src/stm32f4xx_i2c.c ****   *            @arg I2C_FLAG_OVR: Overrun/Underrun flag (Slave mode)
1318:STM32F4xx_LIB/periph/src/stm32f4xx_i2c.c ****   *            @arg I2C_FLAG_AF: Acknowledge failure flag
1319:STM32F4xx_LIB/periph/src/stm32f4xx_i2c.c ****   *            @arg I2C_FLAG_ARLO: Arbitration lost flag (Master mode)
1320:STM32F4xx_LIB/periph/src/stm32f4xx_i2c.c ****   *            @arg I2C_FLAG_BERR: Bus error flag
1321:STM32F4xx_LIB/periph/src/stm32f4xx_i2c.c ****   *   
1322:STM32F4xx_LIB/periph/src/stm32f4xx_i2c.c ****   * @note   STOPF (STOP detection) is cleared by software sequence: a read operation 
1323:STM32F4xx_LIB/periph/src/stm32f4xx_i2c.c ****   *          to I2C_SR1 register (I2C_GetFlagStatus()) followed by a write operation 
1324:STM32F4xx_LIB/periph/src/stm32f4xx_i2c.c ****   *          to I2C_CR1 register (I2C_Cmd() to re-enable the I2C peripheral).
1325:STM32F4xx_LIB/periph/src/stm32f4xx_i2c.c ****   * @note   ADD10 (10-bit header sent) is cleared by software sequence: a read 
1326:STM32F4xx_LIB/periph/src/stm32f4xx_i2c.c ****   *          operation to I2C_SR1 (I2C_GetFlagStatus()) followed by writing the 
1327:STM32F4xx_LIB/periph/src/stm32f4xx_i2c.c ****   *          second byte of the address in DR register.
1328:STM32F4xx_LIB/periph/src/stm32f4xx_i2c.c ****   * @note   BTF (Byte Transfer Finished) is cleared by software sequence: a read 
1329:STM32F4xx_LIB/periph/src/stm32f4xx_i2c.c ****   *          operation to I2C_SR1 register (I2C_GetFlagStatus()) followed by a 
1330:STM32F4xx_LIB/periph/src/stm32f4xx_i2c.c ****   *          read/write to I2C_DR register (I2C_SendData()).
1331:STM32F4xx_LIB/periph/src/stm32f4xx_i2c.c ****   * @note   ADDR (Address sent) is cleared by software sequence: a read operation to 
1332:STM32F4xx_LIB/periph/src/stm32f4xx_i2c.c ****   *          I2C_SR1 register (I2C_GetFlagStatus()) followed by a read operation to 
1333:STM32F4xx_LIB/periph/src/stm32f4xx_i2c.c ****   *          I2C_SR2 register ((void)(I2Cx->SR2)).
1334:STM32F4xx_LIB/periph/src/stm32f4xx_i2c.c ****   * @note   SB (Start Bit) is cleared software sequence: a read operation to I2C_SR1
1335:STM32F4xx_LIB/periph/src/stm32f4xx_i2c.c ****   *          register (I2C_GetFlagStatus()) followed by a write operation to I2C_DR
1336:STM32F4xx_LIB/periph/src/stm32f4xx_i2c.c ****   *          register (I2C_SendData()).
1337:STM32F4xx_LIB/periph/src/stm32f4xx_i2c.c ****   *  
1338:STM32F4xx_LIB/periph/src/stm32f4xx_i2c.c ****   * @retval None
1339:STM32F4xx_LIB/periph/src/stm32f4xx_i2c.c ****   */
1340:STM32F4xx_LIB/periph/src/stm32f4xx_i2c.c **** void I2C_ClearFlag(I2C_TypeDef* I2Cx, uint32_t I2C_FLAG)
1341:STM32F4xx_LIB/periph/src/stm32f4xx_i2c.c **** {
 1674              		.loc 1 1341 1 is_stmt 1 view -0
 1675              		.cfi_startproc
 1676              		@ args = 0, pretend = 0, frame = 0
 1677              		@ frame_needed = 0, uses_anonymous_args = 0
 1678              		@ link register save eliminated.
1342:STM32F4xx_LIB/periph/src/stm32f4xx_i2c.c ****   uint32_t flagpos = 0;
 1679              		.loc 1 1342 3 view .LVU466
1343:STM32F4xx_LIB/periph/src/stm32f4xx_i2c.c ****   /* Check the parameters */
1344:STM32F4xx_LIB/periph/src/stm32f4xx_i2c.c ****   assert_param(IS_I2C_ALL_PERIPH(I2Cx));
 1680              		.loc 1 1344 3 view .LVU467
1345:STM32F4xx_LIB/periph/src/stm32f4xx_i2c.c ****   assert_param(IS_I2C_CLEAR_FLAG(I2C_FLAG));
 1681              		.loc 1 1345 3 view .LVU468
1346:STM32F4xx_LIB/periph/src/stm32f4xx_i2c.c ****   /* Get the I2C flag position */
1347:STM32F4xx_LIB/periph/src/stm32f4xx_i2c.c ****   flagpos = I2C_FLAG & FLAG_MASK;
 1682              		.loc 1 1347 3 view .LVU469
 1683              		.loc 1 1347 11 is_stmt 0 view .LVU470
 1684 0000 21F07F41 		bic	r1, r1, #-16777216
 1685              	.LVL114:
ARM GAS  C:\Users\京垓\AppData\Local\Temp\ccBmAlt6.s 			page 54


1348:STM32F4xx_LIB/periph/src/stm32f4xx_i2c.c ****   /* Clear the selected I2C flag */
1349:STM32F4xx_LIB/periph/src/stm32f4xx_i2c.c ****   I2Cx->SR1 = (uint16_t)~flagpos;
 1686              		.loc 1 1349 3 is_stmt 1 view .LVU471
 1687              		.loc 1 1349 15 is_stmt 0 view .LVU472
 1688 0004 C943     		mvns	r1, r1
 1689              	.LVL115:
 1690              		.loc 1 1349 15 view .LVU473
 1691 0006 89B2     		uxth	r1, r1
 1692              	.LVL116:
 1693              		.loc 1 1349 13 view .LVU474
 1694 0008 8182     		strh	r1, [r0, #20]	@ movhi
1350:STM32F4xx_LIB/periph/src/stm32f4xx_i2c.c **** }
 1695              		.loc 1 1350 1 view .LVU475
 1696 000a 7047     		bx	lr
 1697              		.cfi_endproc
 1698              	.LFE155:
 1700              		.section	.text.I2C_GetITStatus,"ax",%progbits
 1701              		.align	1
 1702              		.global	I2C_GetITStatus
 1703              		.syntax unified
 1704              		.thumb
 1705              		.thumb_func
 1706              		.fpu fpv4-sp-d16
 1708              	I2C_GetITStatus:
 1709              	.LVL117:
 1710              	.LFB156:
1351:STM32F4xx_LIB/periph/src/stm32f4xx_i2c.c **** 
1352:STM32F4xx_LIB/periph/src/stm32f4xx_i2c.c **** /**
1353:STM32F4xx_LIB/periph/src/stm32f4xx_i2c.c ****   * @brief  Checks whether the specified I2C interrupt has occurred or not.
1354:STM32F4xx_LIB/periph/src/stm32f4xx_i2c.c ****   * @param  I2Cx: where x can be 1, 2 or 3 to select the I2C peripheral.
1355:STM32F4xx_LIB/periph/src/stm32f4xx_i2c.c ****   * @param  I2C_IT: specifies the interrupt source to check. 
1356:STM32F4xx_LIB/periph/src/stm32f4xx_i2c.c ****   *          This parameter can be one of the following values:
1357:STM32F4xx_LIB/periph/src/stm32f4xx_i2c.c ****   *            @arg I2C_IT_SMBALERT: SMBus Alert flag
1358:STM32F4xx_LIB/periph/src/stm32f4xx_i2c.c ****   *            @arg I2C_IT_TIMEOUT: Timeout or Tlow error flag
1359:STM32F4xx_LIB/periph/src/stm32f4xx_i2c.c ****   *            @arg I2C_IT_PECERR: PEC error in reception flag
1360:STM32F4xx_LIB/periph/src/stm32f4xx_i2c.c ****   *            @arg I2C_IT_OVR: Overrun/Underrun flag (Slave mode)
1361:STM32F4xx_LIB/periph/src/stm32f4xx_i2c.c ****   *            @arg I2C_IT_AF: Acknowledge failure flag
1362:STM32F4xx_LIB/periph/src/stm32f4xx_i2c.c ****   *            @arg I2C_IT_ARLO: Arbitration lost flag (Master mode)
1363:STM32F4xx_LIB/periph/src/stm32f4xx_i2c.c ****   *            @arg I2C_IT_BERR: Bus error flag
1364:STM32F4xx_LIB/periph/src/stm32f4xx_i2c.c ****   *            @arg I2C_IT_TXE: Data register empty flag (Transmitter)
1365:STM32F4xx_LIB/periph/src/stm32f4xx_i2c.c ****   *            @arg I2C_IT_RXNE: Data register not empty (Receiver) flag
1366:STM32F4xx_LIB/periph/src/stm32f4xx_i2c.c ****   *            @arg I2C_IT_STOPF: Stop detection flag (Slave mode)
1367:STM32F4xx_LIB/periph/src/stm32f4xx_i2c.c ****   *            @arg I2C_IT_ADD10: 10-bit header sent flag (Master mode)
1368:STM32F4xx_LIB/periph/src/stm32f4xx_i2c.c ****   *            @arg I2C_IT_BTF: Byte transfer finished flag
1369:STM32F4xx_LIB/periph/src/stm32f4xx_i2c.c ****   *            @arg I2C_IT_ADDR: Address sent flag (Master mode) "ADSL"
1370:STM32F4xx_LIB/periph/src/stm32f4xx_i2c.c ****   *                              Address matched flag (Slave mode)"ENDAD"
1371:STM32F4xx_LIB/periph/src/stm32f4xx_i2c.c ****   *            @arg I2C_IT_SB: Start bit flag (Master mode)
1372:STM32F4xx_LIB/periph/src/stm32f4xx_i2c.c ****   * @retval The new state of I2C_IT (SET or RESET).
1373:STM32F4xx_LIB/periph/src/stm32f4xx_i2c.c ****   */
1374:STM32F4xx_LIB/periph/src/stm32f4xx_i2c.c **** ITStatus I2C_GetITStatus(I2C_TypeDef* I2Cx, uint32_t I2C_IT)
1375:STM32F4xx_LIB/periph/src/stm32f4xx_i2c.c **** {
 1711              		.loc 1 1375 1 is_stmt 1 view -0
 1712              		.cfi_startproc
 1713              		@ args = 0, pretend = 0, frame = 0
 1714              		@ frame_needed = 0, uses_anonymous_args = 0
 1715              		@ link register save eliminated.
1376:STM32F4xx_LIB/periph/src/stm32f4xx_i2c.c ****   ITStatus bitstatus = RESET;
ARM GAS  C:\Users\京垓\AppData\Local\Temp\ccBmAlt6.s 			page 55


 1716              		.loc 1 1376 3 view .LVU477
1377:STM32F4xx_LIB/periph/src/stm32f4xx_i2c.c ****   uint32_t enablestatus = 0;
 1717              		.loc 1 1377 3 view .LVU478
1378:STM32F4xx_LIB/periph/src/stm32f4xx_i2c.c **** 
1379:STM32F4xx_LIB/periph/src/stm32f4xx_i2c.c ****   /* Check the parameters */
1380:STM32F4xx_LIB/periph/src/stm32f4xx_i2c.c ****   assert_param(IS_I2C_ALL_PERIPH(I2Cx));
 1718              		.loc 1 1380 3 view .LVU479
1381:STM32F4xx_LIB/periph/src/stm32f4xx_i2c.c ****   assert_param(IS_I2C_GET_IT(I2C_IT));
 1719              		.loc 1 1381 3 view .LVU480
1382:STM32F4xx_LIB/periph/src/stm32f4xx_i2c.c **** 
1383:STM32F4xx_LIB/periph/src/stm32f4xx_i2c.c ****   /* Check if the interrupt source is enabled or not */
1384:STM32F4xx_LIB/periph/src/stm32f4xx_i2c.c ****   enablestatus = (uint32_t)(((I2C_IT & ITEN_MASK) >> 16) & (I2Cx->CR2)) ;
 1720              		.loc 1 1384 3 view .LVU481
 1721              		.loc 1 1384 65 is_stmt 0 view .LVU482
 1722 0000 8388     		ldrh	r3, [r0, #4]
 1723              		.loc 1 1384 18 view .LVU483
 1724 0002 03EA1143 		and	r3, r3, r1, lsr #16
 1725              		.loc 1 1384 16 view .LVU484
 1726 0006 03F4E063 		and	r3, r3, #1792
 1727              	.LVL118:
1385:STM32F4xx_LIB/periph/src/stm32f4xx_i2c.c ****   
1386:STM32F4xx_LIB/periph/src/stm32f4xx_i2c.c ****   /* Get bit[23:0] of the flag */
1387:STM32F4xx_LIB/periph/src/stm32f4xx_i2c.c ****   I2C_IT &= FLAG_MASK;
 1728              		.loc 1 1387 3 is_stmt 1 view .LVU485
1388:STM32F4xx_LIB/periph/src/stm32f4xx_i2c.c **** 
1389:STM32F4xx_LIB/periph/src/stm32f4xx_i2c.c ****   /* Check the status of the specified I2C flag */
1390:STM32F4xx_LIB/periph/src/stm32f4xx_i2c.c ****   if (((I2Cx->SR1 & I2C_IT) != (uint32_t)RESET) && enablestatus)
 1729              		.loc 1 1390 3 view .LVU486
 1730              		.loc 1 1390 13 is_stmt 0 view .LVU487
 1731 000a 828A     		ldrh	r2, [r0, #20]
 1732 000c 92B2     		uxth	r2, r2
 1733              		.loc 1 1390 6 view .LVU488
 1734 000e 1142     		tst	r1, r2
 1735 0010 02D0     		beq	.L109
 1736              		.loc 1 1390 49 discriminator 1 view .LVU489
 1737 0012 1BB9     		cbnz	r3, .L110
1391:STM32F4xx_LIB/periph/src/stm32f4xx_i2c.c ****   {
1392:STM32F4xx_LIB/periph/src/stm32f4xx_i2c.c ****     /* I2C_IT is set */
1393:STM32F4xx_LIB/periph/src/stm32f4xx_i2c.c ****     bitstatus = SET;
1394:STM32F4xx_LIB/periph/src/stm32f4xx_i2c.c ****   }
1395:STM32F4xx_LIB/periph/src/stm32f4xx_i2c.c ****   else
1396:STM32F4xx_LIB/periph/src/stm32f4xx_i2c.c ****   {
1397:STM32F4xx_LIB/periph/src/stm32f4xx_i2c.c ****     /* I2C_IT is reset */
1398:STM32F4xx_LIB/periph/src/stm32f4xx_i2c.c ****     bitstatus = RESET;
 1738              		.loc 1 1398 15 view .LVU490
 1739 0014 0020     		movs	r0, #0
 1740              	.LVL119:
 1741              		.loc 1 1398 15 view .LVU491
 1742 0016 7047     		bx	lr
 1743              	.LVL120:
 1744              	.L109:
 1745              		.loc 1 1398 15 view .LVU492
 1746 0018 0020     		movs	r0, #0
 1747              	.LVL121:
 1748              		.loc 1 1398 15 view .LVU493
 1749 001a 7047     		bx	lr
 1750              	.LVL122:
ARM GAS  C:\Users\京垓\AppData\Local\Temp\ccBmAlt6.s 			page 56


 1751              	.L110:
1393:STM32F4xx_LIB/periph/src/stm32f4xx_i2c.c ****   }
 1752              		.loc 1 1393 15 view .LVU494
 1753 001c 0120     		movs	r0, #1
 1754              	.LVL123:
1399:STM32F4xx_LIB/periph/src/stm32f4xx_i2c.c ****   }
1400:STM32F4xx_LIB/periph/src/stm32f4xx_i2c.c ****   /* Return the I2C_IT status */
1401:STM32F4xx_LIB/periph/src/stm32f4xx_i2c.c ****   return  bitstatus;
 1755              		.loc 1 1401 3 is_stmt 1 view .LVU495
1402:STM32F4xx_LIB/periph/src/stm32f4xx_i2c.c **** }
 1756              		.loc 1 1402 1 is_stmt 0 view .LVU496
 1757 001e 7047     		bx	lr
 1758              		.cfi_endproc
 1759              	.LFE156:
 1761              		.section	.text.I2C_ClearITPendingBit,"ax",%progbits
 1762              		.align	1
 1763              		.global	I2C_ClearITPendingBit
 1764              		.syntax unified
 1765              		.thumb
 1766              		.thumb_func
 1767              		.fpu fpv4-sp-d16
 1769              	I2C_ClearITPendingBit:
 1770              	.LVL124:
 1771              	.LFB157:
1403:STM32F4xx_LIB/periph/src/stm32f4xx_i2c.c **** 
1404:STM32F4xx_LIB/periph/src/stm32f4xx_i2c.c **** /**
1405:STM32F4xx_LIB/periph/src/stm32f4xx_i2c.c ****   * @brief  Clears the I2Cx's interrupt pending bits.
1406:STM32F4xx_LIB/periph/src/stm32f4xx_i2c.c ****   * @param  I2Cx: where x can be 1, 2 or 3 to select the I2C peripheral.
1407:STM32F4xx_LIB/periph/src/stm32f4xx_i2c.c ****   * @param  I2C_IT: specifies the interrupt pending bit to clear. 
1408:STM32F4xx_LIB/periph/src/stm32f4xx_i2c.c ****   *          This parameter can be any combination of the following values:
1409:STM32F4xx_LIB/periph/src/stm32f4xx_i2c.c ****   *            @arg I2C_IT_SMBALERT: SMBus Alert interrupt
1410:STM32F4xx_LIB/periph/src/stm32f4xx_i2c.c ****   *            @arg I2C_IT_TIMEOUT: Timeout or Tlow error interrupt
1411:STM32F4xx_LIB/periph/src/stm32f4xx_i2c.c ****   *            @arg I2C_IT_PECERR: PEC error in reception  interrupt
1412:STM32F4xx_LIB/periph/src/stm32f4xx_i2c.c ****   *            @arg I2C_IT_OVR: Overrun/Underrun interrupt (Slave mode)
1413:STM32F4xx_LIB/periph/src/stm32f4xx_i2c.c ****   *            @arg I2C_IT_AF: Acknowledge failure interrupt
1414:STM32F4xx_LIB/periph/src/stm32f4xx_i2c.c ****   *            @arg I2C_IT_ARLO: Arbitration lost interrupt (Master mode)
1415:STM32F4xx_LIB/periph/src/stm32f4xx_i2c.c ****   *            @arg I2C_IT_BERR: Bus error interrupt
1416:STM32F4xx_LIB/periph/src/stm32f4xx_i2c.c ****   * 
1417:STM32F4xx_LIB/periph/src/stm32f4xx_i2c.c ****   * @note   STOPF (STOP detection) is cleared by software sequence: a read operation 
1418:STM32F4xx_LIB/periph/src/stm32f4xx_i2c.c ****   *          to I2C_SR1 register (I2C_GetITStatus()) followed by a write operation to 
1419:STM32F4xx_LIB/periph/src/stm32f4xx_i2c.c ****   *          I2C_CR1 register (I2C_Cmd() to re-enable the I2C peripheral).
1420:STM32F4xx_LIB/periph/src/stm32f4xx_i2c.c ****   * @note   ADD10 (10-bit header sent) is cleared by software sequence: a read 
1421:STM32F4xx_LIB/periph/src/stm32f4xx_i2c.c ****   *          operation to I2C_SR1 (I2C_GetITStatus()) followed by writing the second 
1422:STM32F4xx_LIB/periph/src/stm32f4xx_i2c.c ****   *          byte of the address in I2C_DR register.
1423:STM32F4xx_LIB/periph/src/stm32f4xx_i2c.c ****   * @note   BTF (Byte Transfer Finished) is cleared by software sequence: a read 
1424:STM32F4xx_LIB/periph/src/stm32f4xx_i2c.c ****   *          operation to I2C_SR1 register (I2C_GetITStatus()) followed by a 
1425:STM32F4xx_LIB/periph/src/stm32f4xx_i2c.c ****   *          read/write to I2C_DR register (I2C_SendData()).
1426:STM32F4xx_LIB/periph/src/stm32f4xx_i2c.c ****   * @note   ADDR (Address sent) is cleared by software sequence: a read operation to 
1427:STM32F4xx_LIB/periph/src/stm32f4xx_i2c.c ****   *          I2C_SR1 register (I2C_GetITStatus()) followed by a read operation to 
1428:STM32F4xx_LIB/periph/src/stm32f4xx_i2c.c ****   *          I2C_SR2 register ((void)(I2Cx->SR2)).
1429:STM32F4xx_LIB/periph/src/stm32f4xx_i2c.c ****   * @note   SB (Start Bit) is cleared by software sequence: a read operation to 
1430:STM32F4xx_LIB/periph/src/stm32f4xx_i2c.c ****   *          I2C_SR1 register (I2C_GetITStatus()) followed by a write operation to 
1431:STM32F4xx_LIB/periph/src/stm32f4xx_i2c.c ****   *          I2C_DR register (I2C_SendData()).
1432:STM32F4xx_LIB/periph/src/stm32f4xx_i2c.c ****   * @retval None
1433:STM32F4xx_LIB/periph/src/stm32f4xx_i2c.c ****   */
1434:STM32F4xx_LIB/periph/src/stm32f4xx_i2c.c **** void I2C_ClearITPendingBit(I2C_TypeDef* I2Cx, uint32_t I2C_IT)
1435:STM32F4xx_LIB/periph/src/stm32f4xx_i2c.c **** {
ARM GAS  C:\Users\京垓\AppData\Local\Temp\ccBmAlt6.s 			page 57


 1772              		.loc 1 1435 1 is_stmt 1 view -0
 1773              		.cfi_startproc
 1774              		@ args = 0, pretend = 0, frame = 0
 1775              		@ frame_needed = 0, uses_anonymous_args = 0
 1776              		@ link register save eliminated.
1436:STM32F4xx_LIB/periph/src/stm32f4xx_i2c.c ****   uint32_t flagpos = 0;
 1777              		.loc 1 1436 3 view .LVU498
1437:STM32F4xx_LIB/periph/src/stm32f4xx_i2c.c ****   /* Check the parameters */
1438:STM32F4xx_LIB/periph/src/stm32f4xx_i2c.c ****   assert_param(IS_I2C_ALL_PERIPH(I2Cx));
 1778              		.loc 1 1438 3 view .LVU499
1439:STM32F4xx_LIB/periph/src/stm32f4xx_i2c.c ****   assert_param(IS_I2C_CLEAR_IT(I2C_IT));
 1779              		.loc 1 1439 3 view .LVU500
1440:STM32F4xx_LIB/periph/src/stm32f4xx_i2c.c **** 
1441:STM32F4xx_LIB/periph/src/stm32f4xx_i2c.c ****   /* Get the I2C flag position */
1442:STM32F4xx_LIB/periph/src/stm32f4xx_i2c.c ****   flagpos = I2C_IT & FLAG_MASK;
 1780              		.loc 1 1442 3 view .LVU501
 1781              		.loc 1 1442 11 is_stmt 0 view .LVU502
 1782 0000 21F07F41 		bic	r1, r1, #-16777216
 1783              	.LVL125:
1443:STM32F4xx_LIB/periph/src/stm32f4xx_i2c.c **** 
1444:STM32F4xx_LIB/periph/src/stm32f4xx_i2c.c ****   /* Clear the selected I2C flag */
1445:STM32F4xx_LIB/periph/src/stm32f4xx_i2c.c ****   I2Cx->SR1 = (uint16_t)~flagpos;
 1784              		.loc 1 1445 3 is_stmt 1 view .LVU503
 1785              		.loc 1 1445 15 is_stmt 0 view .LVU504
 1786 0004 C943     		mvns	r1, r1
 1787              	.LVL126:
 1788              		.loc 1 1445 15 view .LVU505
 1789 0006 89B2     		uxth	r1, r1
 1790              	.LVL127:
 1791              		.loc 1 1445 13 view .LVU506
 1792 0008 8182     		strh	r1, [r0, #20]	@ movhi
1446:STM32F4xx_LIB/periph/src/stm32f4xx_i2c.c **** }
 1793              		.loc 1 1446 1 view .LVU507
 1794 000a 7047     		bx	lr
 1795              		.cfi_endproc
 1796              	.LFE157:
 1798              		.text
 1799              	.Letext0:
 1800              		.file 2 "d:\\gcc_tool\\gnu_tool_arm_embedded\\arm-none-eabi\\include\\machine\\_default_types.h"
 1801              		.file 3 "d:\\gcc_tool\\gnu_tool_arm_embedded\\arm-none-eabi\\include\\sys\\_stdint.h"
 1802              		.file 4 "STM32F4xx_LIB/core/core_cm4.h"
 1803              		.file 5 "User/system_stm32f4xx.h"
 1804              		.file 6 "User/stm32f4xx.h"
 1805              		.file 7 "STM32F4xx_LIB/periph/inc/stm32f4xx_rcc.h"
 1806              		.file 8 "STM32F4xx_LIB/periph/inc/stm32f4xx_i2c.h"
ARM GAS  C:\Users\京垓\AppData\Local\Temp\ccBmAlt6.s 			page 58

