ARM GAS  C:\Users\京垓\AppData\Local\Temp\ccmTZYge.s 			page 1


   1              		.cpu cortex-m4
   2              		.eabi_attribute 27, 1
   3              		.eabi_attribute 28, 1
   4              		.eabi_attribute 20, 1
   5              		.eabi_attribute 21, 1
   6              		.eabi_attribute 23, 3
   7              		.eabi_attribute 24, 1
   8              		.eabi_attribute 25, 1
   9              		.eabi_attribute 26, 1
  10              		.eabi_attribute 30, 1
  11              		.eabi_attribute 34, 1
  12              		.eabi_attribute 18, 4
  13              		.file	"stm32f4xx_sdio.c"
  14              		.text
  15              	.Ltext0:
  16              		.cfi_sections	.debug_frame
  17              		.section	.text.SDIO_DeInit,"ax",%progbits
  18              		.align	1
  19              		.global	SDIO_DeInit
  20              		.arch armv7e-m
  21              		.syntax unified
  22              		.thumb
  23              		.thumb_func
  24              		.fpu fpv4-sp-d16
  26              	SDIO_DeInit:
  27              	.LFB123:
  28              		.file 1 "STM32F4xx_LIB/periph/src/stm32f4xx_sdio.c"
   1:STM32F4xx_LIB/periph/src/stm32f4xx_sdio.c **** /**
   2:STM32F4xx_LIB/periph/src/stm32f4xx_sdio.c ****   ******************************************************************************
   3:STM32F4xx_LIB/periph/src/stm32f4xx_sdio.c ****   * @file    stm32f4xx_sdio.c
   4:STM32F4xx_LIB/periph/src/stm32f4xx_sdio.c ****   * @author  MCD Application Team
   5:STM32F4xx_LIB/periph/src/stm32f4xx_sdio.c ****   * @version V1.8.1
   6:STM32F4xx_LIB/periph/src/stm32f4xx_sdio.c ****   * @date    27-January-2022
   7:STM32F4xx_LIB/periph/src/stm32f4xx_sdio.c ****   * @brief   This file provides firmware functions to manage the following 
   8:STM32F4xx_LIB/periph/src/stm32f4xx_sdio.c ****   *          functionalities of the Secure digital input/output interface (SDIO) 
   9:STM32F4xx_LIB/periph/src/stm32f4xx_sdio.c ****   *          peripheral:
  10:STM32F4xx_LIB/periph/src/stm32f4xx_sdio.c ****   *           + Initialization and Configuration
  11:STM32F4xx_LIB/periph/src/stm32f4xx_sdio.c ****   *           + Command path state machine (CPSM) management
  12:STM32F4xx_LIB/periph/src/stm32f4xx_sdio.c ****   *           + Data path state machine (DPSM) management
  13:STM32F4xx_LIB/periph/src/stm32f4xx_sdio.c ****   *           + SDIO IO Cards mode management
  14:STM32F4xx_LIB/periph/src/stm32f4xx_sdio.c ****   *           + CE-ATA mode management
  15:STM32F4xx_LIB/periph/src/stm32f4xx_sdio.c ****   *           + DMA transfers management
  16:STM32F4xx_LIB/periph/src/stm32f4xx_sdio.c ****   *           + Interrupts and flags management
  17:STM32F4xx_LIB/periph/src/stm32f4xx_sdio.c ****   *
  18:STM32F4xx_LIB/periph/src/stm32f4xx_sdio.c **** @verbatim
  19:STM32F4xx_LIB/periph/src/stm32f4xx_sdio.c **** 
  20:STM32F4xx_LIB/periph/src/stm32f4xx_sdio.c ****  ===================================================================
  21:STM32F4xx_LIB/periph/src/stm32f4xx_sdio.c ****                  ##### How to use this driver #####
  22:STM32F4xx_LIB/periph/src/stm32f4xx_sdio.c ****  ===================================================================
  23:STM32F4xx_LIB/periph/src/stm32f4xx_sdio.c ****  [..]
  24:STM32F4xx_LIB/periph/src/stm32f4xx_sdio.c ****    (#) The SDIO clock (SDIOCLK = 48 MHz) is coming from a specific output of PLL 
  25:STM32F4xx_LIB/periph/src/stm32f4xx_sdio.c ****        (PLL48CLK). Before to start working with SDIO peripheral make sure that the
  26:STM32F4xx_LIB/periph/src/stm32f4xx_sdio.c ****        PLL is well configured.
  27:STM32F4xx_LIB/periph/src/stm32f4xx_sdio.c ****        The SDIO peripheral uses two clock signals:
  28:STM32F4xx_LIB/periph/src/stm32f4xx_sdio.c ****        (++) SDIO adapter clock (SDIOCLK = 48 MHz)
  29:STM32F4xx_LIB/periph/src/stm32f4xx_sdio.c ****        (++) APB2 bus clock (PCLK2)
  30:STM32F4xx_LIB/periph/src/stm32f4xx_sdio.c ****        
ARM GAS  C:\Users\京垓\AppData\Local\Temp\ccmTZYge.s 			page 2


  31:STM32F4xx_LIB/periph/src/stm32f4xx_sdio.c ****        -@@- PCLK2 and SDIO_CK clock frequencies must respect the following condition:
  32:STM32F4xx_LIB/periph/src/stm32f4xx_sdio.c ****            Frequency(PCLK2) >= (3 / 8 x Frequency(SDIO_CK))
  33:STM32F4xx_LIB/periph/src/stm32f4xx_sdio.c ****   
  34:STM32F4xx_LIB/periph/src/stm32f4xx_sdio.c ****    (#) Enable peripheral clock using RCC_APB2PeriphClockCmd(RCC_APB2Periph_SDIO, ENABLE).
  35:STM32F4xx_LIB/periph/src/stm32f4xx_sdio.c ****   
  36:STM32F4xx_LIB/periph/src/stm32f4xx_sdio.c ****    (#) According to the SDIO mode, enable the GPIO clocks using 
  37:STM32F4xx_LIB/periph/src/stm32f4xx_sdio.c ****        RCC_AHB1PeriphClockCmd() function. 
  38:STM32F4xx_LIB/periph/src/stm32f4xx_sdio.c ****        The I/O can be one of the following configurations:
  39:STM32F4xx_LIB/periph/src/stm32f4xx_sdio.c ****        (++) 1-bit data length: SDIO_CMD, SDIO_CK and D0.
  40:STM32F4xx_LIB/periph/src/stm32f4xx_sdio.c ****        (++) 4-bit data length: SDIO_CMD, SDIO_CK and D[3:0].
  41:STM32F4xx_LIB/periph/src/stm32f4xx_sdio.c ****        (++) 8-bit data length: SDIO_CMD, SDIO_CK and D[7:0].      
  42:STM32F4xx_LIB/periph/src/stm32f4xx_sdio.c ****   
  43:STM32F4xx_LIB/periph/src/stm32f4xx_sdio.c ****    (#) Peripheral alternate function: 
  44:STM32F4xx_LIB/periph/src/stm32f4xx_sdio.c ****        (++) Connect the pin to the desired peripherals' Alternate Function (AF) 
  45:STM32F4xx_LIB/periph/src/stm32f4xx_sdio.c ****            using GPIO_PinAFConfig() function
  46:STM32F4xx_LIB/periph/src/stm32f4xx_sdio.c ****        (++) Configure the desired pin in alternate function by: 
  47:STM32F4xx_LIB/periph/src/stm32f4xx_sdio.c ****            GPIO_InitStruct->GPIO_Mode = GPIO_Mode_AF
  48:STM32F4xx_LIB/periph/src/stm32f4xx_sdio.c ****        (++) Select the type, pull-up/pull-down and output speed via GPIO_PuPd, 
  49:STM32F4xx_LIB/periph/src/stm32f4xx_sdio.c ****            GPIO_OType and GPIO_Speed members
  50:STM32F4xx_LIB/periph/src/stm32f4xx_sdio.c ****        (++) Call GPIO_Init() function
  51:STM32F4xx_LIB/periph/src/stm32f4xx_sdio.c ****   
  52:STM32F4xx_LIB/periph/src/stm32f4xx_sdio.c ****    (#) Program the Clock Edge, Clock Bypass, Clock Power Save, Bus Wide, 
  53:STM32F4xx_LIB/periph/src/stm32f4xx_sdio.c ****        hardware, flow control and the Clock Divider using the SDIO_Init()
  54:STM32F4xx_LIB/periph/src/stm32f4xx_sdio.c ****        function.
  55:STM32F4xx_LIB/periph/src/stm32f4xx_sdio.c ****   
  56:STM32F4xx_LIB/periph/src/stm32f4xx_sdio.c ****    (#) Enable the Power ON State using the SDIO_SetPowerState(SDIO_PowerState_ON) 
  57:STM32F4xx_LIB/periph/src/stm32f4xx_sdio.c ****        function.
  58:STM32F4xx_LIB/periph/src/stm32f4xx_sdio.c ****                 
  59:STM32F4xx_LIB/periph/src/stm32f4xx_sdio.c ****    (#) Enable the clock using the SDIO_ClockCmd() function.
  60:STM32F4xx_LIB/periph/src/stm32f4xx_sdio.c ****   
  61:STM32F4xx_LIB/periph/src/stm32f4xx_sdio.c ****    (#) Enable the NVIC and the corresponding interrupt using the function 
  62:STM32F4xx_LIB/periph/src/stm32f4xx_sdio.c ****        SDIO_ITConfig() if you need to use interrupt mode. 
  63:STM32F4xx_LIB/periph/src/stm32f4xx_sdio.c ****   
  64:STM32F4xx_LIB/periph/src/stm32f4xx_sdio.c ****    (#) When using the DMA mode 
  65:STM32F4xx_LIB/periph/src/stm32f4xx_sdio.c ****        (++) Configure the DMA using DMA_Init() function
  66:STM32F4xx_LIB/periph/src/stm32f4xx_sdio.c ****        (++) Active the needed channel Request using SDIO_DMACmd() function
  67:STM32F4xx_LIB/periph/src/stm32f4xx_sdio.c ****   
  68:STM32F4xx_LIB/periph/src/stm32f4xx_sdio.c ****    (#) Enable the DMA using the DMA_Cmd() function, when using DMA mode. 
  69:STM32F4xx_LIB/periph/src/stm32f4xx_sdio.c ****   
  70:STM32F4xx_LIB/periph/src/stm32f4xx_sdio.c ****    (#) To control the CPSM (Command Path State Machine) and send 
  71:STM32F4xx_LIB/periph/src/stm32f4xx_sdio.c ****        commands to the card use the SDIO_SendCommand(), 
  72:STM32F4xx_LIB/periph/src/stm32f4xx_sdio.c ****        SDIO_GetCommandResponse() and SDIO_GetResponse() functions. First, user has
  73:STM32F4xx_LIB/periph/src/stm32f4xx_sdio.c ****        to fill the command structure (pointer to SDIO_CmdInitTypeDef) according 
  74:STM32F4xx_LIB/periph/src/stm32f4xx_sdio.c ****        to the selected command to be sent.
  75:STM32F4xx_LIB/periph/src/stm32f4xx_sdio.c ****        The parameters that should be filled are:
  76:STM32F4xx_LIB/periph/src/stm32f4xx_sdio.c ****        (++) Command Argument
  77:STM32F4xx_LIB/periph/src/stm32f4xx_sdio.c ****        (++) Command Index
  78:STM32F4xx_LIB/periph/src/stm32f4xx_sdio.c ****        (++) Command Response type
  79:STM32F4xx_LIB/periph/src/stm32f4xx_sdio.c ****        (++) Command Wait
  80:STM32F4xx_LIB/periph/src/stm32f4xx_sdio.c ****        (++) CPSM Status (Enable or Disable).
  81:STM32F4xx_LIB/periph/src/stm32f4xx_sdio.c ****   
  82:STM32F4xx_LIB/periph/src/stm32f4xx_sdio.c ****        -@@- To check if the command is well received, read the SDIO_CMDRESP
  83:STM32F4xx_LIB/periph/src/stm32f4xx_sdio.c ****            register using the SDIO_GetCommandResponse().
  84:STM32F4xx_LIB/periph/src/stm32f4xx_sdio.c ****            The SDIO responses registers (SDIO_RESP1 to SDIO_RESP2), use the
  85:STM32F4xx_LIB/periph/src/stm32f4xx_sdio.c ****            SDIO_GetResponse() function.
  86:STM32F4xx_LIB/periph/src/stm32f4xx_sdio.c ****   
  87:STM32F4xx_LIB/periph/src/stm32f4xx_sdio.c ****    (#) To control the DPSM (Data Path State Machine) and send/receive 
ARM GAS  C:\Users\京垓\AppData\Local\Temp\ccmTZYge.s 			page 3


  88:STM32F4xx_LIB/periph/src/stm32f4xx_sdio.c ****        data to/from the card use the SDIO_DataConfig(), SDIO_GetDataCounter(), 
  89:STM32F4xx_LIB/periph/src/stm32f4xx_sdio.c ****        SDIO_ReadData(), SDIO_WriteData() and SDIO_GetFIFOCount() functions.
  90:STM32F4xx_LIB/periph/src/stm32f4xx_sdio.c ****   
  91:STM32F4xx_LIB/periph/src/stm32f4xx_sdio.c ****  *** Read Operations ***
  92:STM32F4xx_LIB/periph/src/stm32f4xx_sdio.c ****  =======================
  93:STM32F4xx_LIB/periph/src/stm32f4xx_sdio.c ****  [..]
  94:STM32F4xx_LIB/periph/src/stm32f4xx_sdio.c ****    (#) First, user has to fill the data structure (pointer to
  95:STM32F4xx_LIB/periph/src/stm32f4xx_sdio.c ****        SDIO_DataInitTypeDef) according to the selected data type to be received.
  96:STM32F4xx_LIB/periph/src/stm32f4xx_sdio.c ****        The parameters that should be filled are:
  97:STM32F4xx_LIB/periph/src/stm32f4xx_sdio.c ****        (++) Data TimeOut
  98:STM32F4xx_LIB/periph/src/stm32f4xx_sdio.c ****        (++) Data Length
  99:STM32F4xx_LIB/periph/src/stm32f4xx_sdio.c ****        (++) Data Block size
 100:STM32F4xx_LIB/periph/src/stm32f4xx_sdio.c ****        (++) Data Transfer direction: should be from card (To SDIO)
 101:STM32F4xx_LIB/periph/src/stm32f4xx_sdio.c ****        (++) Data Transfer mode
 102:STM32F4xx_LIB/periph/src/stm32f4xx_sdio.c ****        (++) DPSM Status (Enable or Disable)
 103:STM32F4xx_LIB/periph/src/stm32f4xx_sdio.c ****                                      
 104:STM32F4xx_LIB/periph/src/stm32f4xx_sdio.c ****    (#) Configure the SDIO resources to receive the data from the card
 105:STM32F4xx_LIB/periph/src/stm32f4xx_sdio.c ****        according to selected transfer mode (Refer to Step 8, 9 and 10).
 106:STM32F4xx_LIB/periph/src/stm32f4xx_sdio.c ****   
 107:STM32F4xx_LIB/periph/src/stm32f4xx_sdio.c ****    (#)  Send the selected Read command (refer to step 11).
 108:STM32F4xx_LIB/periph/src/stm32f4xx_sdio.c ****                     
 109:STM32F4xx_LIB/periph/src/stm32f4xx_sdio.c ****    (#) Use the SDIO flags/interrupts to check the transfer status.
 110:STM32F4xx_LIB/periph/src/stm32f4xx_sdio.c ****   
 111:STM32F4xx_LIB/periph/src/stm32f4xx_sdio.c ****  *** Write Operations ***
 112:STM32F4xx_LIB/periph/src/stm32f4xx_sdio.c ****  ========================
 113:STM32F4xx_LIB/periph/src/stm32f4xx_sdio.c ****  [..]
 114:STM32F4xx_LIB/periph/src/stm32f4xx_sdio.c ****    (#) First, user has to fill the data structure (pointer to
 115:STM32F4xx_LIB/periph/src/stm32f4xx_sdio.c ****        SDIO_DataInitTypeDef) according to the selected data type to be received.
 116:STM32F4xx_LIB/periph/src/stm32f4xx_sdio.c ****        The parameters that should be filled are:
 117:STM32F4xx_LIB/periph/src/stm32f4xx_sdio.c ****        (++) Data TimeOut
 118:STM32F4xx_LIB/periph/src/stm32f4xx_sdio.c ****        (++) Data Length
 119:STM32F4xx_LIB/periph/src/stm32f4xx_sdio.c ****        (++) Data Block size
 120:STM32F4xx_LIB/periph/src/stm32f4xx_sdio.c ****        (++) Data Transfer direction:  should be to card (To CARD)
 121:STM32F4xx_LIB/periph/src/stm32f4xx_sdio.c ****        (++) Data Transfer mode
 122:STM32F4xx_LIB/periph/src/stm32f4xx_sdio.c ****        (++) DPSM Status (Enable or Disable)
 123:STM32F4xx_LIB/periph/src/stm32f4xx_sdio.c ****   
 124:STM32F4xx_LIB/periph/src/stm32f4xx_sdio.c ****    (#) Configure the SDIO resources to send the data to the card according to 
 125:STM32F4xx_LIB/periph/src/stm32f4xx_sdio.c ****        selected transfer mode (Refer to Step 8, 9 and 10).
 126:STM32F4xx_LIB/periph/src/stm32f4xx_sdio.c ****                      
 127:STM32F4xx_LIB/periph/src/stm32f4xx_sdio.c ****    (#) Send the selected Write command (refer to step 11).
 128:STM32F4xx_LIB/periph/src/stm32f4xx_sdio.c ****                     
 129:STM32F4xx_LIB/periph/src/stm32f4xx_sdio.c ****    (#) Use the SDIO flags/interrupts to check the transfer status.
 130:STM32F4xx_LIB/periph/src/stm32f4xx_sdio.c ****   
 131:STM32F4xx_LIB/periph/src/stm32f4xx_sdio.c ****   
 132:STM32F4xx_LIB/periph/src/stm32f4xx_sdio.c **** @endverbatim
 133:STM32F4xx_LIB/periph/src/stm32f4xx_sdio.c ****   *
 134:STM32F4xx_LIB/periph/src/stm32f4xx_sdio.c ****   *
 135:STM32F4xx_LIB/periph/src/stm32f4xx_sdio.c ****   ******************************************************************************
 136:STM32F4xx_LIB/periph/src/stm32f4xx_sdio.c ****   * @attention
 137:STM32F4xx_LIB/periph/src/stm32f4xx_sdio.c ****   *
 138:STM32F4xx_LIB/periph/src/stm32f4xx_sdio.c ****   * Copyright (c) 2016 STMicroelectronics.
 139:STM32F4xx_LIB/periph/src/stm32f4xx_sdio.c ****   * All rights reserved.
 140:STM32F4xx_LIB/periph/src/stm32f4xx_sdio.c ****   *
 141:STM32F4xx_LIB/periph/src/stm32f4xx_sdio.c ****   * This software is licensed under terms that can be found in the LICENSE file
 142:STM32F4xx_LIB/periph/src/stm32f4xx_sdio.c ****   * in the root directory of this software component.
 143:STM32F4xx_LIB/periph/src/stm32f4xx_sdio.c ****   * If no LICENSE file comes with this software, it is provided AS-IS.
 144:STM32F4xx_LIB/periph/src/stm32f4xx_sdio.c ****   *
ARM GAS  C:\Users\京垓\AppData\Local\Temp\ccmTZYge.s 			page 4


 145:STM32F4xx_LIB/periph/src/stm32f4xx_sdio.c ****   ******************************************************************************
 146:STM32F4xx_LIB/periph/src/stm32f4xx_sdio.c ****   */
 147:STM32F4xx_LIB/periph/src/stm32f4xx_sdio.c **** 
 148:STM32F4xx_LIB/periph/src/stm32f4xx_sdio.c **** /* Includes ------------------------------------------------------------------*/
 149:STM32F4xx_LIB/periph/src/stm32f4xx_sdio.c **** #include "stm32f4xx_sdio.h"
 150:STM32F4xx_LIB/periph/src/stm32f4xx_sdio.c **** #include "stm32f4xx_rcc.h"
 151:STM32F4xx_LIB/periph/src/stm32f4xx_sdio.c **** 
 152:STM32F4xx_LIB/periph/src/stm32f4xx_sdio.c **** /** @addtogroup STM32F4xx_StdPeriph_Driver
 153:STM32F4xx_LIB/periph/src/stm32f4xx_sdio.c ****   * @{
 154:STM32F4xx_LIB/periph/src/stm32f4xx_sdio.c ****   */
 155:STM32F4xx_LIB/periph/src/stm32f4xx_sdio.c **** 
 156:STM32F4xx_LIB/periph/src/stm32f4xx_sdio.c **** /** @defgroup SDIO 
 157:STM32F4xx_LIB/periph/src/stm32f4xx_sdio.c ****   * @brief SDIO driver modules
 158:STM32F4xx_LIB/periph/src/stm32f4xx_sdio.c ****   * @{
 159:STM32F4xx_LIB/periph/src/stm32f4xx_sdio.c ****   */ 
 160:STM32F4xx_LIB/periph/src/stm32f4xx_sdio.c **** 
 161:STM32F4xx_LIB/periph/src/stm32f4xx_sdio.c **** /* Private typedef -----------------------------------------------------------*/
 162:STM32F4xx_LIB/periph/src/stm32f4xx_sdio.c **** /* Private define ------------------------------------------------------------*/
 163:STM32F4xx_LIB/periph/src/stm32f4xx_sdio.c **** 
 164:STM32F4xx_LIB/periph/src/stm32f4xx_sdio.c **** /* ------------ SDIO registers bit address in the alias region ----------- */
 165:STM32F4xx_LIB/periph/src/stm32f4xx_sdio.c **** #define SDIO_OFFSET                (SDIO_BASE - PERIPH_BASE)
 166:STM32F4xx_LIB/periph/src/stm32f4xx_sdio.c **** 
 167:STM32F4xx_LIB/periph/src/stm32f4xx_sdio.c **** /* --- CLKCR Register ---*/
 168:STM32F4xx_LIB/periph/src/stm32f4xx_sdio.c **** /* Alias word address of CLKEN bit */
 169:STM32F4xx_LIB/periph/src/stm32f4xx_sdio.c **** #define CLKCR_OFFSET              (SDIO_OFFSET + 0x04)
 170:STM32F4xx_LIB/periph/src/stm32f4xx_sdio.c **** #define CLKEN_BitNumber           0x08
 171:STM32F4xx_LIB/periph/src/stm32f4xx_sdio.c **** #define CLKCR_CLKEN_BB            (PERIPH_BB_BASE + (CLKCR_OFFSET * 32) + (CLKEN_BitNumber * 4))
 172:STM32F4xx_LIB/periph/src/stm32f4xx_sdio.c **** 
 173:STM32F4xx_LIB/periph/src/stm32f4xx_sdio.c **** /* --- CMD Register ---*/
 174:STM32F4xx_LIB/periph/src/stm32f4xx_sdio.c **** /* Alias word address of SDIOSUSPEND bit */
 175:STM32F4xx_LIB/periph/src/stm32f4xx_sdio.c **** #define CMD_OFFSET                (SDIO_OFFSET + 0x0C)
 176:STM32F4xx_LIB/periph/src/stm32f4xx_sdio.c **** #define SDIOSUSPEND_BitNumber     0x0B
 177:STM32F4xx_LIB/periph/src/stm32f4xx_sdio.c **** #define CMD_SDIOSUSPEND_BB        (PERIPH_BB_BASE + (CMD_OFFSET * 32) + (SDIOSUSPEND_BitNumber * 4)
 178:STM32F4xx_LIB/periph/src/stm32f4xx_sdio.c **** 
 179:STM32F4xx_LIB/periph/src/stm32f4xx_sdio.c **** /* Alias word address of ENCMDCOMPL bit */
 180:STM32F4xx_LIB/periph/src/stm32f4xx_sdio.c **** #define ENCMDCOMPL_BitNumber      0x0C
 181:STM32F4xx_LIB/periph/src/stm32f4xx_sdio.c **** #define CMD_ENCMDCOMPL_BB         (PERIPH_BB_BASE + (CMD_OFFSET * 32) + (ENCMDCOMPL_BitNumber * 4))
 182:STM32F4xx_LIB/periph/src/stm32f4xx_sdio.c **** 
 183:STM32F4xx_LIB/periph/src/stm32f4xx_sdio.c **** /* Alias word address of NIEN bit */
 184:STM32F4xx_LIB/periph/src/stm32f4xx_sdio.c **** #define NIEN_BitNumber            0x0D
 185:STM32F4xx_LIB/periph/src/stm32f4xx_sdio.c **** #define CMD_NIEN_BB               (PERIPH_BB_BASE + (CMD_OFFSET * 32) + (NIEN_BitNumber * 4))
 186:STM32F4xx_LIB/periph/src/stm32f4xx_sdio.c **** 
 187:STM32F4xx_LIB/periph/src/stm32f4xx_sdio.c **** /* Alias word address of ATACMD bit */
 188:STM32F4xx_LIB/periph/src/stm32f4xx_sdio.c **** #define ATACMD_BitNumber          0x0E
 189:STM32F4xx_LIB/periph/src/stm32f4xx_sdio.c **** #define CMD_ATACMD_BB             (PERIPH_BB_BASE + (CMD_OFFSET * 32) + (ATACMD_BitNumber * 4))
 190:STM32F4xx_LIB/periph/src/stm32f4xx_sdio.c **** 
 191:STM32F4xx_LIB/periph/src/stm32f4xx_sdio.c **** /* --- DCTRL Register ---*/
 192:STM32F4xx_LIB/periph/src/stm32f4xx_sdio.c **** /* Alias word address of DMAEN bit */
 193:STM32F4xx_LIB/periph/src/stm32f4xx_sdio.c **** #define DCTRL_OFFSET              (SDIO_OFFSET + 0x2C)
 194:STM32F4xx_LIB/periph/src/stm32f4xx_sdio.c **** #define DMAEN_BitNumber           0x03
 195:STM32F4xx_LIB/periph/src/stm32f4xx_sdio.c **** #define DCTRL_DMAEN_BB            (PERIPH_BB_BASE + (DCTRL_OFFSET * 32) + (DMAEN_BitNumber * 4))
 196:STM32F4xx_LIB/periph/src/stm32f4xx_sdio.c **** 
 197:STM32F4xx_LIB/periph/src/stm32f4xx_sdio.c **** /* Alias word address of RWSTART bit */
 198:STM32F4xx_LIB/periph/src/stm32f4xx_sdio.c **** #define RWSTART_BitNumber         0x08
 199:STM32F4xx_LIB/periph/src/stm32f4xx_sdio.c **** #define DCTRL_RWSTART_BB          (PERIPH_BB_BASE + (DCTRL_OFFSET * 32) + (RWSTART_BitNumber * 4))
 200:STM32F4xx_LIB/periph/src/stm32f4xx_sdio.c **** 
 201:STM32F4xx_LIB/periph/src/stm32f4xx_sdio.c **** /* Alias word address of RWSTOP bit */
ARM GAS  C:\Users\京垓\AppData\Local\Temp\ccmTZYge.s 			page 5


 202:STM32F4xx_LIB/periph/src/stm32f4xx_sdio.c **** #define RWSTOP_BitNumber          0x09
 203:STM32F4xx_LIB/periph/src/stm32f4xx_sdio.c **** #define DCTRL_RWSTOP_BB           (PERIPH_BB_BASE + (DCTRL_OFFSET * 32) + (RWSTOP_BitNumber * 4))
 204:STM32F4xx_LIB/periph/src/stm32f4xx_sdio.c **** 
 205:STM32F4xx_LIB/periph/src/stm32f4xx_sdio.c **** /* Alias word address of RWMOD bit */
 206:STM32F4xx_LIB/periph/src/stm32f4xx_sdio.c **** #define RWMOD_BitNumber           0x0A
 207:STM32F4xx_LIB/periph/src/stm32f4xx_sdio.c **** #define DCTRL_RWMOD_BB            (PERIPH_BB_BASE + (DCTRL_OFFSET * 32) + (RWMOD_BitNumber * 4))
 208:STM32F4xx_LIB/periph/src/stm32f4xx_sdio.c **** 
 209:STM32F4xx_LIB/periph/src/stm32f4xx_sdio.c **** /* Alias word address of SDIOEN bit */
 210:STM32F4xx_LIB/periph/src/stm32f4xx_sdio.c **** #define SDIOEN_BitNumber          0x0B
 211:STM32F4xx_LIB/periph/src/stm32f4xx_sdio.c **** #define DCTRL_SDIOEN_BB           (PERIPH_BB_BASE + (DCTRL_OFFSET * 32) + (SDIOEN_BitNumber * 4))
 212:STM32F4xx_LIB/periph/src/stm32f4xx_sdio.c **** 
 213:STM32F4xx_LIB/periph/src/stm32f4xx_sdio.c **** /* ---------------------- SDIO registers bit mask ------------------------ */
 214:STM32F4xx_LIB/periph/src/stm32f4xx_sdio.c **** /* --- CLKCR Register ---*/
 215:STM32F4xx_LIB/periph/src/stm32f4xx_sdio.c **** /* CLKCR register clear mask */
 216:STM32F4xx_LIB/periph/src/stm32f4xx_sdio.c **** #define CLKCR_CLEAR_MASK         ((uint32_t)0xFFFF8100) 
 217:STM32F4xx_LIB/periph/src/stm32f4xx_sdio.c **** 
 218:STM32F4xx_LIB/periph/src/stm32f4xx_sdio.c **** /* --- PWRCTRL Register ---*/
 219:STM32F4xx_LIB/periph/src/stm32f4xx_sdio.c **** /* SDIO PWRCTRL Mask */
 220:STM32F4xx_LIB/periph/src/stm32f4xx_sdio.c **** #define PWR_PWRCTRL_MASK         ((uint32_t)0xFFFFFFFC)
 221:STM32F4xx_LIB/periph/src/stm32f4xx_sdio.c **** 
 222:STM32F4xx_LIB/periph/src/stm32f4xx_sdio.c **** /* --- DCTRL Register ---*/
 223:STM32F4xx_LIB/periph/src/stm32f4xx_sdio.c **** /* SDIO DCTRL Clear Mask */
 224:STM32F4xx_LIB/periph/src/stm32f4xx_sdio.c **** #define DCTRL_CLEAR_MASK         ((uint32_t)0xFFFFFF08)
 225:STM32F4xx_LIB/periph/src/stm32f4xx_sdio.c **** 
 226:STM32F4xx_LIB/periph/src/stm32f4xx_sdio.c **** /* --- CMD Register ---*/
 227:STM32F4xx_LIB/periph/src/stm32f4xx_sdio.c **** /* CMD Register clear mask */
 228:STM32F4xx_LIB/periph/src/stm32f4xx_sdio.c **** #define CMD_CLEAR_MASK           ((uint32_t)0xFFFFF800)
 229:STM32F4xx_LIB/periph/src/stm32f4xx_sdio.c **** 
 230:STM32F4xx_LIB/periph/src/stm32f4xx_sdio.c **** /* SDIO RESP Registers Address */
 231:STM32F4xx_LIB/periph/src/stm32f4xx_sdio.c **** #define SDIO_RESP_ADDR           ((uint32_t)(SDIO_BASE + 0x14))
 232:STM32F4xx_LIB/periph/src/stm32f4xx_sdio.c **** 
 233:STM32F4xx_LIB/periph/src/stm32f4xx_sdio.c **** /* Private macro -------------------------------------------------------------*/
 234:STM32F4xx_LIB/periph/src/stm32f4xx_sdio.c **** /* Private variables ---------------------------------------------------------*/
 235:STM32F4xx_LIB/periph/src/stm32f4xx_sdio.c **** /* Private function prototypes -----------------------------------------------*/
 236:STM32F4xx_LIB/periph/src/stm32f4xx_sdio.c **** /* Private functions ---------------------------------------------------------*/
 237:STM32F4xx_LIB/periph/src/stm32f4xx_sdio.c **** 
 238:STM32F4xx_LIB/periph/src/stm32f4xx_sdio.c **** /** @defgroup SDIO_Private_Functions
 239:STM32F4xx_LIB/periph/src/stm32f4xx_sdio.c ****   * @{
 240:STM32F4xx_LIB/periph/src/stm32f4xx_sdio.c ****   */
 241:STM32F4xx_LIB/periph/src/stm32f4xx_sdio.c **** 
 242:STM32F4xx_LIB/periph/src/stm32f4xx_sdio.c **** /** @defgroup SDIO_Group1 Initialization and Configuration functions
 243:STM32F4xx_LIB/periph/src/stm32f4xx_sdio.c ****  *  @brief   Initialization and Configuration functions 
 244:STM32F4xx_LIB/periph/src/stm32f4xx_sdio.c ****  *
 245:STM32F4xx_LIB/periph/src/stm32f4xx_sdio.c **** @verbatim   
 246:STM32F4xx_LIB/periph/src/stm32f4xx_sdio.c ****  ===============================================================================
 247:STM32F4xx_LIB/periph/src/stm32f4xx_sdio.c ****               ##### Initialization and Configuration functions #####
 248:STM32F4xx_LIB/periph/src/stm32f4xx_sdio.c ****  ===============================================================================
 249:STM32F4xx_LIB/periph/src/stm32f4xx_sdio.c **** 
 250:STM32F4xx_LIB/periph/src/stm32f4xx_sdio.c **** @endverbatim
 251:STM32F4xx_LIB/periph/src/stm32f4xx_sdio.c ****   * @{
 252:STM32F4xx_LIB/periph/src/stm32f4xx_sdio.c ****   */
 253:STM32F4xx_LIB/periph/src/stm32f4xx_sdio.c **** 
 254:STM32F4xx_LIB/periph/src/stm32f4xx_sdio.c **** /**
 255:STM32F4xx_LIB/periph/src/stm32f4xx_sdio.c ****   * @brief  Deinitializes the SDIO peripheral registers to their default reset values.
 256:STM32F4xx_LIB/periph/src/stm32f4xx_sdio.c ****   * @param  None
 257:STM32F4xx_LIB/periph/src/stm32f4xx_sdio.c ****   * @retval None
 258:STM32F4xx_LIB/periph/src/stm32f4xx_sdio.c ****   */
ARM GAS  C:\Users\京垓\AppData\Local\Temp\ccmTZYge.s 			page 6


 259:STM32F4xx_LIB/periph/src/stm32f4xx_sdio.c **** void SDIO_DeInit(void)
 260:STM32F4xx_LIB/periph/src/stm32f4xx_sdio.c **** {
  29              		.loc 1 260 1 view -0
  30              		.cfi_startproc
  31              		@ args = 0, pretend = 0, frame = 0
  32              		@ frame_needed = 0, uses_anonymous_args = 0
  33 0000 08B5     		push	{r3, lr}
  34              	.LCFI0:
  35              		.cfi_def_cfa_offset 8
  36              		.cfi_offset 3, -8
  37              		.cfi_offset 14, -4
 261:STM32F4xx_LIB/periph/src/stm32f4xx_sdio.c ****   RCC_APB2PeriphResetCmd(RCC_APB2Periph_SDIO, ENABLE);
  38              		.loc 1 261 3 view .LVU1
  39 0002 0121     		movs	r1, #1
  40 0004 4FF40060 		mov	r0, #2048
  41 0008 FFF7FEFF 		bl	RCC_APB2PeriphResetCmd
  42              	.LVL0:
 262:STM32F4xx_LIB/periph/src/stm32f4xx_sdio.c ****   RCC_APB2PeriphResetCmd(RCC_APB2Periph_SDIO, DISABLE);
  43              		.loc 1 262 3 view .LVU2
  44 000c 0021     		movs	r1, #0
  45 000e 4FF40060 		mov	r0, #2048
  46 0012 FFF7FEFF 		bl	RCC_APB2PeriphResetCmd
  47              	.LVL1:
 263:STM32F4xx_LIB/periph/src/stm32f4xx_sdio.c **** }
  48              		.loc 1 263 1 is_stmt 0 view .LVU3
  49 0016 08BD     		pop	{r3, pc}
  50              		.cfi_endproc
  51              	.LFE123:
  53              		.section	.text.SDIO_Init,"ax",%progbits
  54              		.align	1
  55              		.global	SDIO_Init
  56              		.syntax unified
  57              		.thumb
  58              		.thumb_func
  59              		.fpu fpv4-sp-d16
  61              	SDIO_Init:
  62              	.LVL2:
  63              	.LFB124:
 264:STM32F4xx_LIB/periph/src/stm32f4xx_sdio.c **** 
 265:STM32F4xx_LIB/periph/src/stm32f4xx_sdio.c **** /**
 266:STM32F4xx_LIB/periph/src/stm32f4xx_sdio.c ****   * @brief  Initializes the SDIO peripheral according to the specified 
 267:STM32F4xx_LIB/periph/src/stm32f4xx_sdio.c ****   *         parameters in the SDIO_InitStruct.
 268:STM32F4xx_LIB/periph/src/stm32f4xx_sdio.c ****   * @param  SDIO_InitStruct : pointer to a SDIO_InitTypeDef structure 
 269:STM32F4xx_LIB/periph/src/stm32f4xx_sdio.c ****   *         that contains the configuration information for the SDIO peripheral.
 270:STM32F4xx_LIB/periph/src/stm32f4xx_sdio.c ****   * @retval None
 271:STM32F4xx_LIB/periph/src/stm32f4xx_sdio.c ****   */
 272:STM32F4xx_LIB/periph/src/stm32f4xx_sdio.c **** void SDIO_Init(SDIO_InitTypeDef* SDIO_InitStruct)
 273:STM32F4xx_LIB/periph/src/stm32f4xx_sdio.c **** {
  64              		.loc 1 273 1 is_stmt 1 view -0
  65              		.cfi_startproc
  66              		@ args = 0, pretend = 0, frame = 0
  67              		@ frame_needed = 0, uses_anonymous_args = 0
  68              		@ link register save eliminated.
  69              		.loc 1 273 1 is_stmt 0 view .LVU5
  70 0000 10B4     		push	{r4}
  71              	.LCFI1:
  72              		.cfi_def_cfa_offset 4
ARM GAS  C:\Users\京垓\AppData\Local\Temp\ccmTZYge.s 			page 7


  73              		.cfi_offset 4, -4
 274:STM32F4xx_LIB/periph/src/stm32f4xx_sdio.c ****   uint32_t tmpreg = 0;
  74              		.loc 1 274 3 is_stmt 1 view .LVU6
  75              	.LVL3:
 275:STM32F4xx_LIB/periph/src/stm32f4xx_sdio.c ****     
 276:STM32F4xx_LIB/periph/src/stm32f4xx_sdio.c ****   /* Check the parameters */
 277:STM32F4xx_LIB/periph/src/stm32f4xx_sdio.c ****   assert_param(IS_SDIO_CLOCK_EDGE(SDIO_InitStruct->SDIO_ClockEdge));
  76              		.loc 1 277 3 view .LVU7
 278:STM32F4xx_LIB/periph/src/stm32f4xx_sdio.c ****   assert_param(IS_SDIO_CLOCK_BYPASS(SDIO_InitStruct->SDIO_ClockBypass));
  77              		.loc 1 278 3 view .LVU8
 279:STM32F4xx_LIB/periph/src/stm32f4xx_sdio.c ****   assert_param(IS_SDIO_CLOCK_POWER_SAVE(SDIO_InitStruct->SDIO_ClockPowerSave));
  78              		.loc 1 279 3 view .LVU9
 280:STM32F4xx_LIB/periph/src/stm32f4xx_sdio.c ****   assert_param(IS_SDIO_BUS_WIDE(SDIO_InitStruct->SDIO_BusWide));
  79              		.loc 1 280 3 view .LVU10
 281:STM32F4xx_LIB/periph/src/stm32f4xx_sdio.c ****   assert_param(IS_SDIO_HARDWARE_FLOW_CONTROL(SDIO_InitStruct->SDIO_HardwareFlowControl)); 
  80              		.loc 1 281 3 view .LVU11
 282:STM32F4xx_LIB/periph/src/stm32f4xx_sdio.c ****    
 283:STM32F4xx_LIB/periph/src/stm32f4xx_sdio.c **** /*---------------------------- SDIO CLKCR Configuration ------------------------*/  
 284:STM32F4xx_LIB/periph/src/stm32f4xx_sdio.c ****   /* Get the SDIO CLKCR value */
 285:STM32F4xx_LIB/periph/src/stm32f4xx_sdio.c ****   tmpreg = SDIO->CLKCR;
  81              		.loc 1 285 3 view .LVU12
  82              		.loc 1 285 10 is_stmt 0 view .LVU13
  83 0002 0B49     		ldr	r1, .L5
  84 0004 4A68     		ldr	r2, [r1, #4]
  85              	.LVL4:
 286:STM32F4xx_LIB/periph/src/stm32f4xx_sdio.c ****   
 287:STM32F4xx_LIB/periph/src/stm32f4xx_sdio.c ****   /* Clear CLKDIV, PWRSAV, BYPASS, WIDBUS, NEGEDGE, HWFC_EN bits */
 288:STM32F4xx_LIB/periph/src/stm32f4xx_sdio.c ****   tmpreg &= CLKCR_CLEAR_MASK;
  86              		.loc 1 288 3 is_stmt 1 view .LVU14
  87              		.loc 1 288 10 is_stmt 0 view .LVU15
  88 0006 22F4FD42 		bic	r2, r2, #32384
  89              	.LVL5:
  90              		.loc 1 288 10 view .LVU16
  91 000a 22F07F02 		bic	r2, r2, #127
  92              	.LVL6:
 289:STM32F4xx_LIB/periph/src/stm32f4xx_sdio.c ****   
 290:STM32F4xx_LIB/periph/src/stm32f4xx_sdio.c ****   /* Set CLKDIV bits according to SDIO_ClockDiv value */
 291:STM32F4xx_LIB/periph/src/stm32f4xx_sdio.c ****   /* Set PWRSAV bit according to SDIO_ClockPowerSave value */
 292:STM32F4xx_LIB/periph/src/stm32f4xx_sdio.c ****   /* Set BYPASS bit according to SDIO_ClockBypass value */
 293:STM32F4xx_LIB/periph/src/stm32f4xx_sdio.c ****   /* Set WIDBUS bits according to SDIO_BusWide value */
 294:STM32F4xx_LIB/periph/src/stm32f4xx_sdio.c ****   /* Set NEGEDGE bits according to SDIO_ClockEdge value */
 295:STM32F4xx_LIB/periph/src/stm32f4xx_sdio.c ****   /* Set HWFC_EN bits according to SDIO_HardwareFlowControl value */
 296:STM32F4xx_LIB/periph/src/stm32f4xx_sdio.c ****   tmpreg |= (SDIO_InitStruct->SDIO_ClockDiv  | SDIO_InitStruct->SDIO_ClockPowerSave |
  93              		.loc 1 296 3 is_stmt 1 view .LVU17
  94              		.loc 1 296 29 is_stmt 0 view .LVU18
  95 000e 037D     		ldrb	r3, [r0, #20]	@ zero_extendqisi2
  96              		.loc 1 296 63 view .LVU19
  97 0010 8468     		ldr	r4, [r0, #8]
  98              		.loc 1 296 46 view .LVU20
  99 0012 2343     		orrs	r3, r3, r4
 297:STM32F4xx_LIB/periph/src/stm32f4xx_sdio.c ****              SDIO_InitStruct->SDIO_ClockBypass | SDIO_InitStruct->SDIO_BusWide |
 100              		.loc 1 297 29 view .LVU21
 101 0014 4468     		ldr	r4, [r0, #4]
 296:STM32F4xx_LIB/periph/src/stm32f4xx_sdio.c ****              SDIO_InitStruct->SDIO_ClockBypass | SDIO_InitStruct->SDIO_BusWide |
 102              		.loc 1 296 85 view .LVU22
 103 0016 2343     		orrs	r3, r3, r4
 104              		.loc 1 297 65 view .LVU23
ARM GAS  C:\Users\京垓\AppData\Local\Temp\ccmTZYge.s 			page 8


 105 0018 C468     		ldr	r4, [r0, #12]
 106              		.loc 1 297 48 view .LVU24
 107 001a 2343     		orrs	r3, r3, r4
 298:STM32F4xx_LIB/periph/src/stm32f4xx_sdio.c ****              SDIO_InitStruct->SDIO_ClockEdge | SDIO_InitStruct->SDIO_HardwareFlowControl); 
 108              		.loc 1 298 29 view .LVU25
 109 001c 0468     		ldr	r4, [r0]
 297:STM32F4xx_LIB/periph/src/stm32f4xx_sdio.c ****              SDIO_InitStruct->SDIO_ClockBypass | SDIO_InitStruct->SDIO_BusWide |
 110              		.loc 1 297 80 view .LVU26
 111 001e 2343     		orrs	r3, r3, r4
 112              		.loc 1 298 63 view .LVU27
 113 0020 0069     		ldr	r0, [r0, #16]
 114              	.LVL7:
 115              		.loc 1 298 46 view .LVU28
 116 0022 0343     		orrs	r3, r3, r0
 296:STM32F4xx_LIB/periph/src/stm32f4xx_sdio.c ****              SDIO_InitStruct->SDIO_ClockBypass | SDIO_InitStruct->SDIO_BusWide |
 117              		.loc 1 296 10 view .LVU29
 118 0024 1343     		orrs	r3, r3, r2
 119              	.LVL8:
 299:STM32F4xx_LIB/periph/src/stm32f4xx_sdio.c ****   
 300:STM32F4xx_LIB/periph/src/stm32f4xx_sdio.c ****   /* Write to SDIO CLKCR */
 301:STM32F4xx_LIB/periph/src/stm32f4xx_sdio.c ****   SDIO->CLKCR = tmpreg;
 120              		.loc 1 301 3 is_stmt 1 view .LVU30
 121              		.loc 1 301 15 is_stmt 0 view .LVU31
 122 0026 4B60     		str	r3, [r1, #4]
 302:STM32F4xx_LIB/periph/src/stm32f4xx_sdio.c **** }
 123              		.loc 1 302 1 view .LVU32
 124 0028 5DF8044B 		ldr	r4, [sp], #4
 125              	.LCFI2:
 126              		.cfi_restore 4
 127              		.cfi_def_cfa_offset 0
 128 002c 7047     		bx	lr
 129              	.L6:
 130 002e 00BF     		.align	2
 131              	.L5:
 132 0030 002C0140 		.word	1073818624
 133              		.cfi_endproc
 134              	.LFE124:
 136              		.section	.text.SDIO_StructInit,"ax",%progbits
 137              		.align	1
 138              		.global	SDIO_StructInit
 139              		.syntax unified
 140              		.thumb
 141              		.thumb_func
 142              		.fpu fpv4-sp-d16
 144              	SDIO_StructInit:
 145              	.LVL9:
 146              	.LFB125:
 303:STM32F4xx_LIB/periph/src/stm32f4xx_sdio.c **** 
 304:STM32F4xx_LIB/periph/src/stm32f4xx_sdio.c **** /**
 305:STM32F4xx_LIB/periph/src/stm32f4xx_sdio.c ****   * @brief  Fills each SDIO_InitStruct member with its default value.
 306:STM32F4xx_LIB/periph/src/stm32f4xx_sdio.c ****   * @param  SDIO_InitStruct: pointer to an SDIO_InitTypeDef structure which 
 307:STM32F4xx_LIB/periph/src/stm32f4xx_sdio.c ****   *         will be initialized.
 308:STM32F4xx_LIB/periph/src/stm32f4xx_sdio.c ****   * @retval None
 309:STM32F4xx_LIB/periph/src/stm32f4xx_sdio.c ****   */
 310:STM32F4xx_LIB/periph/src/stm32f4xx_sdio.c **** void SDIO_StructInit(SDIO_InitTypeDef* SDIO_InitStruct)
 311:STM32F4xx_LIB/periph/src/stm32f4xx_sdio.c **** {
 147              		.loc 1 311 1 is_stmt 1 view -0
ARM GAS  C:\Users\京垓\AppData\Local\Temp\ccmTZYge.s 			page 9


 148              		.cfi_startproc
 149              		@ args = 0, pretend = 0, frame = 0
 150              		@ frame_needed = 0, uses_anonymous_args = 0
 151              		@ link register save eliminated.
 312:STM32F4xx_LIB/periph/src/stm32f4xx_sdio.c ****   /* SDIO_InitStruct members default value */
 313:STM32F4xx_LIB/periph/src/stm32f4xx_sdio.c ****   SDIO_InitStruct->SDIO_ClockDiv = 0x00;
 152              		.loc 1 313 3 view .LVU34
 153              		.loc 1 313 34 is_stmt 0 view .LVU35
 154 0000 0023     		movs	r3, #0
 155 0002 0375     		strb	r3, [r0, #20]
 314:STM32F4xx_LIB/periph/src/stm32f4xx_sdio.c ****   SDIO_InitStruct->SDIO_ClockEdge = SDIO_ClockEdge_Rising;
 156              		.loc 1 314 3 is_stmt 1 view .LVU36
 157              		.loc 1 314 35 is_stmt 0 view .LVU37
 158 0004 0360     		str	r3, [r0]
 315:STM32F4xx_LIB/periph/src/stm32f4xx_sdio.c ****   SDIO_InitStruct->SDIO_ClockBypass = SDIO_ClockBypass_Disable;
 159              		.loc 1 315 3 is_stmt 1 view .LVU38
 160              		.loc 1 315 37 is_stmt 0 view .LVU39
 161 0006 4360     		str	r3, [r0, #4]
 316:STM32F4xx_LIB/periph/src/stm32f4xx_sdio.c ****   SDIO_InitStruct->SDIO_ClockPowerSave = SDIO_ClockPowerSave_Disable;
 162              		.loc 1 316 3 is_stmt 1 view .LVU40
 163              		.loc 1 316 40 is_stmt 0 view .LVU41
 164 0008 8360     		str	r3, [r0, #8]
 317:STM32F4xx_LIB/periph/src/stm32f4xx_sdio.c ****   SDIO_InitStruct->SDIO_BusWide = SDIO_BusWide_1b;
 165              		.loc 1 317 3 is_stmt 1 view .LVU42
 166              		.loc 1 317 33 is_stmt 0 view .LVU43
 167 000a C360     		str	r3, [r0, #12]
 318:STM32F4xx_LIB/periph/src/stm32f4xx_sdio.c ****   SDIO_InitStruct->SDIO_HardwareFlowControl = SDIO_HardwareFlowControl_Disable;
 168              		.loc 1 318 3 is_stmt 1 view .LVU44
 169              		.loc 1 318 45 is_stmt 0 view .LVU45
 170 000c 0361     		str	r3, [r0, #16]
 319:STM32F4xx_LIB/periph/src/stm32f4xx_sdio.c **** }
 171              		.loc 1 319 1 view .LVU46
 172 000e 7047     		bx	lr
 173              		.cfi_endproc
 174              	.LFE125:
 176              		.section	.text.SDIO_ClockCmd,"ax",%progbits
 177              		.align	1
 178              		.global	SDIO_ClockCmd
 179              		.syntax unified
 180              		.thumb
 181              		.thumb_func
 182              		.fpu fpv4-sp-d16
 184              	SDIO_ClockCmd:
 185              	.LVL10:
 186              	.LFB126:
 320:STM32F4xx_LIB/periph/src/stm32f4xx_sdio.c **** 
 321:STM32F4xx_LIB/periph/src/stm32f4xx_sdio.c **** /**
 322:STM32F4xx_LIB/periph/src/stm32f4xx_sdio.c ****   * @brief  Enables or disables the SDIO Clock.
 323:STM32F4xx_LIB/periph/src/stm32f4xx_sdio.c ****   * @param  NewState: new state of the SDIO Clock. 
 324:STM32F4xx_LIB/periph/src/stm32f4xx_sdio.c ****   *         This parameter can be: ENABLE or DISABLE.
 325:STM32F4xx_LIB/periph/src/stm32f4xx_sdio.c ****   * @retval None
 326:STM32F4xx_LIB/periph/src/stm32f4xx_sdio.c ****   */
 327:STM32F4xx_LIB/periph/src/stm32f4xx_sdio.c **** void SDIO_ClockCmd(FunctionalState NewState)
 328:STM32F4xx_LIB/periph/src/stm32f4xx_sdio.c **** {
 187              		.loc 1 328 1 is_stmt 1 view -0
 188              		.cfi_startproc
 189              		@ args = 0, pretend = 0, frame = 0
ARM GAS  C:\Users\京垓\AppData\Local\Temp\ccmTZYge.s 			page 10


 190              		@ frame_needed = 0, uses_anonymous_args = 0
 191              		@ link register save eliminated.
 329:STM32F4xx_LIB/periph/src/stm32f4xx_sdio.c ****   /* Check the parameters */
 330:STM32F4xx_LIB/periph/src/stm32f4xx_sdio.c ****   assert_param(IS_FUNCTIONAL_STATE(NewState));
 192              		.loc 1 330 3 view .LVU48
 331:STM32F4xx_LIB/periph/src/stm32f4xx_sdio.c ****   
 332:STM32F4xx_LIB/periph/src/stm32f4xx_sdio.c ****   *(__IO uint32_t *) CLKCR_CLKEN_BB = (uint32_t)NewState;
 193              		.loc 1 332 3 view .LVU49
 194              		.loc 1 332 37 is_stmt 0 view .LVU50
 195 0000 014B     		ldr	r3, .L9
 196 0002 1860     		str	r0, [r3]
 333:STM32F4xx_LIB/periph/src/stm32f4xx_sdio.c **** }
 197              		.loc 1 333 1 view .LVU51
 198 0004 7047     		bx	lr
 199              	.L10:
 200 0006 00BF     		.align	2
 201              	.L9:
 202 0008 A0802542 		.word	1109754016
 203              		.cfi_endproc
 204              	.LFE126:
 206              		.section	.text.SDIO_SetPowerState,"ax",%progbits
 207              		.align	1
 208              		.global	SDIO_SetPowerState
 209              		.syntax unified
 210              		.thumb
 211              		.thumb_func
 212              		.fpu fpv4-sp-d16
 214              	SDIO_SetPowerState:
 215              	.LVL11:
 216              	.LFB127:
 334:STM32F4xx_LIB/periph/src/stm32f4xx_sdio.c **** 
 335:STM32F4xx_LIB/periph/src/stm32f4xx_sdio.c **** /**
 336:STM32F4xx_LIB/periph/src/stm32f4xx_sdio.c ****   * @brief  Sets the power status of the controller.
 337:STM32F4xx_LIB/periph/src/stm32f4xx_sdio.c ****   * @param  SDIO_PowerState: new state of the Power state. 
 338:STM32F4xx_LIB/periph/src/stm32f4xx_sdio.c ****   *          This parameter can be one of the following values:
 339:STM32F4xx_LIB/periph/src/stm32f4xx_sdio.c ****   *            @arg SDIO_PowerState_OFF: SDIO Power OFF
 340:STM32F4xx_LIB/periph/src/stm32f4xx_sdio.c ****   *            @arg SDIO_PowerState_ON: SDIO Power ON
 341:STM32F4xx_LIB/periph/src/stm32f4xx_sdio.c ****   * @retval None
 342:STM32F4xx_LIB/periph/src/stm32f4xx_sdio.c ****   */
 343:STM32F4xx_LIB/periph/src/stm32f4xx_sdio.c **** void SDIO_SetPowerState(uint32_t SDIO_PowerState)
 344:STM32F4xx_LIB/periph/src/stm32f4xx_sdio.c **** {
 217              		.loc 1 344 1 is_stmt 1 view -0
 218              		.cfi_startproc
 219              		@ args = 0, pretend = 0, frame = 0
 220              		@ frame_needed = 0, uses_anonymous_args = 0
 221              		@ link register save eliminated.
 345:STM32F4xx_LIB/periph/src/stm32f4xx_sdio.c ****   /* Check the parameters */
 346:STM32F4xx_LIB/periph/src/stm32f4xx_sdio.c ****   assert_param(IS_SDIO_POWER_STATE(SDIO_PowerState));
 222              		.loc 1 346 3 view .LVU53
 347:STM32F4xx_LIB/periph/src/stm32f4xx_sdio.c ****   
 348:STM32F4xx_LIB/periph/src/stm32f4xx_sdio.c ****   SDIO->POWER = SDIO_PowerState;
 223              		.loc 1 348 3 view .LVU54
 224              		.loc 1 348 15 is_stmt 0 view .LVU55
 225 0000 014B     		ldr	r3, .L12
 226 0002 1860     		str	r0, [r3]
 349:STM32F4xx_LIB/periph/src/stm32f4xx_sdio.c **** }
 227              		.loc 1 349 1 view .LVU56
ARM GAS  C:\Users\京垓\AppData\Local\Temp\ccmTZYge.s 			page 11


 228 0004 7047     		bx	lr
 229              	.L13:
 230 0006 00BF     		.align	2
 231              	.L12:
 232 0008 002C0140 		.word	1073818624
 233              		.cfi_endproc
 234              	.LFE127:
 236              		.section	.text.SDIO_GetPowerState,"ax",%progbits
 237              		.align	1
 238              		.global	SDIO_GetPowerState
 239              		.syntax unified
 240              		.thumb
 241              		.thumb_func
 242              		.fpu fpv4-sp-d16
 244              	SDIO_GetPowerState:
 245              	.LFB128:
 350:STM32F4xx_LIB/periph/src/stm32f4xx_sdio.c **** 
 351:STM32F4xx_LIB/periph/src/stm32f4xx_sdio.c **** /**
 352:STM32F4xx_LIB/periph/src/stm32f4xx_sdio.c ****   * @brief  Gets the power status of the controller.
 353:STM32F4xx_LIB/periph/src/stm32f4xx_sdio.c ****   * @param  None
 354:STM32F4xx_LIB/periph/src/stm32f4xx_sdio.c ****   * @retval Power status of the controller. The returned value can be one of the 
 355:STM32F4xx_LIB/periph/src/stm32f4xx_sdio.c ****   *         following values:
 356:STM32F4xx_LIB/periph/src/stm32f4xx_sdio.c ****   *            - 0x00: Power OFF
 357:STM32F4xx_LIB/periph/src/stm32f4xx_sdio.c ****   *            - 0x02: Power UP
 358:STM32F4xx_LIB/periph/src/stm32f4xx_sdio.c ****   *            - 0x03: Power ON 
 359:STM32F4xx_LIB/periph/src/stm32f4xx_sdio.c ****   */
 360:STM32F4xx_LIB/periph/src/stm32f4xx_sdio.c **** uint32_t SDIO_GetPowerState(void)
 361:STM32F4xx_LIB/periph/src/stm32f4xx_sdio.c **** {
 246              		.loc 1 361 1 is_stmt 1 view -0
 247              		.cfi_startproc
 248              		@ args = 0, pretend = 0, frame = 0
 249              		@ frame_needed = 0, uses_anonymous_args = 0
 250              		@ link register save eliminated.
 362:STM32F4xx_LIB/periph/src/stm32f4xx_sdio.c ****   return (SDIO->POWER & (~PWR_PWRCTRL_MASK));
 251              		.loc 1 362 3 view .LVU58
 252              		.loc 1 362 15 is_stmt 0 view .LVU59
 253 0000 024B     		ldr	r3, .L15
 254 0002 1868     		ldr	r0, [r3]
 363:STM32F4xx_LIB/periph/src/stm32f4xx_sdio.c **** }
 255              		.loc 1 363 1 view .LVU60
 256 0004 00F00300 		and	r0, r0, #3
 257 0008 7047     		bx	lr
 258              	.L16:
 259 000a 00BF     		.align	2
 260              	.L15:
 261 000c 002C0140 		.word	1073818624
 262              		.cfi_endproc
 263              	.LFE128:
 265              		.section	.text.SDIO_SendCommand,"ax",%progbits
 266              		.align	1
 267              		.global	SDIO_SendCommand
 268              		.syntax unified
 269              		.thumb
 270              		.thumb_func
 271              		.fpu fpv4-sp-d16
 273              	SDIO_SendCommand:
 274              	.LVL12:
ARM GAS  C:\Users\京垓\AppData\Local\Temp\ccmTZYge.s 			page 12


 275              	.LFB129:
 364:STM32F4xx_LIB/periph/src/stm32f4xx_sdio.c **** 
 365:STM32F4xx_LIB/periph/src/stm32f4xx_sdio.c **** /**
 366:STM32F4xx_LIB/periph/src/stm32f4xx_sdio.c ****   * @}
 367:STM32F4xx_LIB/periph/src/stm32f4xx_sdio.c ****   */
 368:STM32F4xx_LIB/periph/src/stm32f4xx_sdio.c **** 
 369:STM32F4xx_LIB/periph/src/stm32f4xx_sdio.c **** /** @defgroup SDIO_Group2 Command path state machine (CPSM) management functions
 370:STM32F4xx_LIB/periph/src/stm32f4xx_sdio.c ****  *  @brief   Command path state machine (CPSM) management functions 
 371:STM32F4xx_LIB/periph/src/stm32f4xx_sdio.c ****  *
 372:STM32F4xx_LIB/periph/src/stm32f4xx_sdio.c **** @verbatim   
 373:STM32F4xx_LIB/periph/src/stm32f4xx_sdio.c ****  ===============================================================================
 374:STM32F4xx_LIB/periph/src/stm32f4xx_sdio.c ****         ##### Command path state machine (CPSM) management functions #####
 375:STM32F4xx_LIB/periph/src/stm32f4xx_sdio.c ****  ===============================================================================  
 376:STM32F4xx_LIB/periph/src/stm32f4xx_sdio.c **** 
 377:STM32F4xx_LIB/periph/src/stm32f4xx_sdio.c ****   This section provide functions allowing to program and read the Command path 
 378:STM32F4xx_LIB/periph/src/stm32f4xx_sdio.c ****   state machine (CPSM).
 379:STM32F4xx_LIB/periph/src/stm32f4xx_sdio.c **** 
 380:STM32F4xx_LIB/periph/src/stm32f4xx_sdio.c **** @endverbatim
 381:STM32F4xx_LIB/periph/src/stm32f4xx_sdio.c ****   * @{
 382:STM32F4xx_LIB/periph/src/stm32f4xx_sdio.c ****   */
 383:STM32F4xx_LIB/periph/src/stm32f4xx_sdio.c **** 
 384:STM32F4xx_LIB/periph/src/stm32f4xx_sdio.c **** /**
 385:STM32F4xx_LIB/periph/src/stm32f4xx_sdio.c ****   * @brief  Initializes the SDIO Command according to the specified 
 386:STM32F4xx_LIB/periph/src/stm32f4xx_sdio.c ****   *         parameters in the SDIO_CmdInitStruct and send the command.
 387:STM32F4xx_LIB/periph/src/stm32f4xx_sdio.c ****   * @param  SDIO_CmdInitStruct : pointer to a SDIO_CmdInitTypeDef 
 388:STM32F4xx_LIB/periph/src/stm32f4xx_sdio.c ****   *         structure that contains the configuration information for the SDIO 
 389:STM32F4xx_LIB/periph/src/stm32f4xx_sdio.c ****   *         command.
 390:STM32F4xx_LIB/periph/src/stm32f4xx_sdio.c ****   * @retval None
 391:STM32F4xx_LIB/periph/src/stm32f4xx_sdio.c ****   */
 392:STM32F4xx_LIB/periph/src/stm32f4xx_sdio.c **** void SDIO_SendCommand(SDIO_CmdInitTypeDef *SDIO_CmdInitStruct)
 393:STM32F4xx_LIB/periph/src/stm32f4xx_sdio.c **** {
 276              		.loc 1 393 1 is_stmt 1 view -0
 277              		.cfi_startproc
 278              		@ args = 0, pretend = 0, frame = 0
 279              		@ frame_needed = 0, uses_anonymous_args = 0
 280              		@ link register save eliminated.
 281              		.loc 1 393 1 is_stmt 0 view .LVU62
 282 0000 10B4     		push	{r4}
 283              	.LCFI3:
 284              		.cfi_def_cfa_offset 4
 285              		.cfi_offset 4, -4
 394:STM32F4xx_LIB/periph/src/stm32f4xx_sdio.c ****   uint32_t tmpreg = 0;
 286              		.loc 1 394 3 is_stmt 1 view .LVU63
 287              	.LVL13:
 395:STM32F4xx_LIB/periph/src/stm32f4xx_sdio.c ****   
 396:STM32F4xx_LIB/periph/src/stm32f4xx_sdio.c ****   /* Check the parameters */
 397:STM32F4xx_LIB/periph/src/stm32f4xx_sdio.c ****   assert_param(IS_SDIO_CMD_INDEX(SDIO_CmdInitStruct->SDIO_CmdIndex));
 288              		.loc 1 397 3 view .LVU64
 398:STM32F4xx_LIB/periph/src/stm32f4xx_sdio.c ****   assert_param(IS_SDIO_RESPONSE(SDIO_CmdInitStruct->SDIO_Response));
 289              		.loc 1 398 3 view .LVU65
 399:STM32F4xx_LIB/periph/src/stm32f4xx_sdio.c ****   assert_param(IS_SDIO_WAIT(SDIO_CmdInitStruct->SDIO_Wait));
 290              		.loc 1 399 3 view .LVU66
 400:STM32F4xx_LIB/periph/src/stm32f4xx_sdio.c ****   assert_param(IS_SDIO_CPSM(SDIO_CmdInitStruct->SDIO_CPSM));
 291              		.loc 1 400 3 view .LVU67
 401:STM32F4xx_LIB/periph/src/stm32f4xx_sdio.c ****   
 402:STM32F4xx_LIB/periph/src/stm32f4xx_sdio.c **** /*---------------------------- SDIO ARG Configuration ------------------------*/
 403:STM32F4xx_LIB/periph/src/stm32f4xx_sdio.c ****   /* Set the SDIO Argument value */
ARM GAS  C:\Users\京垓\AppData\Local\Temp\ccmTZYge.s 			page 13


 404:STM32F4xx_LIB/periph/src/stm32f4xx_sdio.c ****   SDIO->ARG = SDIO_CmdInitStruct->SDIO_Argument;
 292              		.loc 1 404 3 view .LVU68
 293              		.loc 1 404 33 is_stmt 0 view .LVU69
 294 0002 0368     		ldr	r3, [r0]
 295              		.loc 1 404 13 view .LVU70
 296 0004 0949     		ldr	r1, .L19
 297 0006 8B60     		str	r3, [r1, #8]
 405:STM32F4xx_LIB/periph/src/stm32f4xx_sdio.c ****   
 406:STM32F4xx_LIB/periph/src/stm32f4xx_sdio.c **** /*---------------------------- SDIO CMD Configuration ------------------------*/  
 407:STM32F4xx_LIB/periph/src/stm32f4xx_sdio.c ****   /* Get the SDIO CMD value */
 408:STM32F4xx_LIB/periph/src/stm32f4xx_sdio.c ****   tmpreg = SDIO->CMD;
 298              		.loc 1 408 3 is_stmt 1 view .LVU71
 299              		.loc 1 408 10 is_stmt 0 view .LVU72
 300 0008 CA68     		ldr	r2, [r1, #12]
 301              	.LVL14:
 409:STM32F4xx_LIB/periph/src/stm32f4xx_sdio.c ****   /* Clear CMDINDEX, WAITRESP, WAITINT, WAITPEND, CPSMEN bits */
 410:STM32F4xx_LIB/periph/src/stm32f4xx_sdio.c ****   tmpreg &= CMD_CLEAR_MASK;
 302              		.loc 1 410 3 is_stmt 1 view .LVU73
 303              		.loc 1 410 10 is_stmt 0 view .LVU74
 304 000a 22F4FF62 		bic	r2, r2, #2040
 305              	.LVL15:
 306              		.loc 1 410 10 view .LVU75
 307 000e 22F00702 		bic	r2, r2, #7
 308              	.LVL16:
 411:STM32F4xx_LIB/periph/src/stm32f4xx_sdio.c ****   /* Set CMDINDEX bits according to SDIO_CmdIndex value */
 412:STM32F4xx_LIB/periph/src/stm32f4xx_sdio.c ****   /* Set WAITRESP bits according to SDIO_Response value */
 413:STM32F4xx_LIB/periph/src/stm32f4xx_sdio.c ****   /* Set WAITINT and WAITPEND bits according to SDIO_Wait value */
 414:STM32F4xx_LIB/periph/src/stm32f4xx_sdio.c ****   /* Set CPSMEN bits according to SDIO_CPSM value */
 415:STM32F4xx_LIB/periph/src/stm32f4xx_sdio.c ****   tmpreg |= (uint32_t)SDIO_CmdInitStruct->SDIO_CmdIndex | SDIO_CmdInitStruct->SDIO_Response
 309              		.loc 1 415 3 is_stmt 1 view .LVU76
 310              		.loc 1 415 41 is_stmt 0 view .LVU77
 311 0012 4368     		ldr	r3, [r0, #4]
 312              		.loc 1 415 77 view .LVU78
 313 0014 8468     		ldr	r4, [r0, #8]
 314              		.loc 1 415 57 view .LVU79
 315 0016 2343     		orrs	r3, r3, r4
 416:STM32F4xx_LIB/periph/src/stm32f4xx_sdio.c ****            | SDIO_CmdInitStruct->SDIO_Wait | SDIO_CmdInitStruct->SDIO_CPSM;
 316              		.loc 1 416 32 view .LVU80
 317 0018 C468     		ldr	r4, [r0, #12]
 318              		.loc 1 416 12 view .LVU81
 319 001a 2343     		orrs	r3, r3, r4
 320              		.loc 1 416 64 view .LVU82
 321 001c 0069     		ldr	r0, [r0, #16]
 322              	.LVL17:
 323              		.loc 1 416 44 view .LVU83
 324 001e 0343     		orrs	r3, r3, r0
 415:STM32F4xx_LIB/periph/src/stm32f4xx_sdio.c ****            | SDIO_CmdInitStruct->SDIO_Wait | SDIO_CmdInitStruct->SDIO_CPSM;
 325              		.loc 1 415 10 view .LVU84
 326 0020 1343     		orrs	r3, r3, r2
 327              	.LVL18:
 417:STM32F4xx_LIB/periph/src/stm32f4xx_sdio.c ****   
 418:STM32F4xx_LIB/periph/src/stm32f4xx_sdio.c ****   /* Write to SDIO CMD */
 419:STM32F4xx_LIB/periph/src/stm32f4xx_sdio.c ****   SDIO->CMD = tmpreg;
 328              		.loc 1 419 3 is_stmt 1 view .LVU85
 329              		.loc 1 419 13 is_stmt 0 view .LVU86
 330 0022 CB60     		str	r3, [r1, #12]
 420:STM32F4xx_LIB/periph/src/stm32f4xx_sdio.c **** }
ARM GAS  C:\Users\京垓\AppData\Local\Temp\ccmTZYge.s 			page 14


 331              		.loc 1 420 1 view .LVU87
 332 0024 5DF8044B 		ldr	r4, [sp], #4
 333              	.LCFI4:
 334              		.cfi_restore 4
 335              		.cfi_def_cfa_offset 0
 336 0028 7047     		bx	lr
 337              	.L20:
 338 002a 00BF     		.align	2
 339              	.L19:
 340 002c 002C0140 		.word	1073818624
 341              		.cfi_endproc
 342              	.LFE129:
 344              		.section	.text.SDIO_CmdStructInit,"ax",%progbits
 345              		.align	1
 346              		.global	SDIO_CmdStructInit
 347              		.syntax unified
 348              		.thumb
 349              		.thumb_func
 350              		.fpu fpv4-sp-d16
 352              	SDIO_CmdStructInit:
 353              	.LVL19:
 354              	.LFB130:
 421:STM32F4xx_LIB/periph/src/stm32f4xx_sdio.c **** 
 422:STM32F4xx_LIB/periph/src/stm32f4xx_sdio.c **** /**
 423:STM32F4xx_LIB/periph/src/stm32f4xx_sdio.c ****   * @brief  Fills each SDIO_CmdInitStruct member with its default value.
 424:STM32F4xx_LIB/periph/src/stm32f4xx_sdio.c ****   * @param  SDIO_CmdInitStruct: pointer to an SDIO_CmdInitTypeDef 
 425:STM32F4xx_LIB/periph/src/stm32f4xx_sdio.c ****   *         structure which will be initialized.
 426:STM32F4xx_LIB/periph/src/stm32f4xx_sdio.c ****   * @retval None
 427:STM32F4xx_LIB/periph/src/stm32f4xx_sdio.c ****   */
 428:STM32F4xx_LIB/periph/src/stm32f4xx_sdio.c **** void SDIO_CmdStructInit(SDIO_CmdInitTypeDef* SDIO_CmdInitStruct)
 429:STM32F4xx_LIB/periph/src/stm32f4xx_sdio.c **** {
 355              		.loc 1 429 1 is_stmt 1 view -0
 356              		.cfi_startproc
 357              		@ args = 0, pretend = 0, frame = 0
 358              		@ frame_needed = 0, uses_anonymous_args = 0
 359              		@ link register save eliminated.
 430:STM32F4xx_LIB/periph/src/stm32f4xx_sdio.c ****   /* SDIO_CmdInitStruct members default value */
 431:STM32F4xx_LIB/periph/src/stm32f4xx_sdio.c ****   SDIO_CmdInitStruct->SDIO_Argument = 0x00;
 360              		.loc 1 431 3 view .LVU89
 361              		.loc 1 431 37 is_stmt 0 view .LVU90
 362 0000 0023     		movs	r3, #0
 363 0002 0360     		str	r3, [r0]
 432:STM32F4xx_LIB/periph/src/stm32f4xx_sdio.c ****   SDIO_CmdInitStruct->SDIO_CmdIndex = 0x00;
 364              		.loc 1 432 3 is_stmt 1 view .LVU91
 365              		.loc 1 432 37 is_stmt 0 view .LVU92
 366 0004 4360     		str	r3, [r0, #4]
 433:STM32F4xx_LIB/periph/src/stm32f4xx_sdio.c ****   SDIO_CmdInitStruct->SDIO_Response = SDIO_Response_No;
 367              		.loc 1 433 3 is_stmt 1 view .LVU93
 368              		.loc 1 433 37 is_stmt 0 view .LVU94
 369 0006 8360     		str	r3, [r0, #8]
 434:STM32F4xx_LIB/periph/src/stm32f4xx_sdio.c ****   SDIO_CmdInitStruct->SDIO_Wait = SDIO_Wait_No;
 370              		.loc 1 434 3 is_stmt 1 view .LVU95
 371              		.loc 1 434 33 is_stmt 0 view .LVU96
 372 0008 C360     		str	r3, [r0, #12]
 435:STM32F4xx_LIB/periph/src/stm32f4xx_sdio.c ****   SDIO_CmdInitStruct->SDIO_CPSM = SDIO_CPSM_Disable;
 373              		.loc 1 435 3 is_stmt 1 view .LVU97
 374              		.loc 1 435 33 is_stmt 0 view .LVU98
ARM GAS  C:\Users\京垓\AppData\Local\Temp\ccmTZYge.s 			page 15


 375 000a 0361     		str	r3, [r0, #16]
 436:STM32F4xx_LIB/periph/src/stm32f4xx_sdio.c **** }
 376              		.loc 1 436 1 view .LVU99
 377 000c 7047     		bx	lr
 378              		.cfi_endproc
 379              	.LFE130:
 381              		.section	.text.SDIO_GetCommandResponse,"ax",%progbits
 382              		.align	1
 383              		.global	SDIO_GetCommandResponse
 384              		.syntax unified
 385              		.thumb
 386              		.thumb_func
 387              		.fpu fpv4-sp-d16
 389              	SDIO_GetCommandResponse:
 390              	.LFB131:
 437:STM32F4xx_LIB/periph/src/stm32f4xx_sdio.c **** 
 438:STM32F4xx_LIB/periph/src/stm32f4xx_sdio.c **** /**
 439:STM32F4xx_LIB/periph/src/stm32f4xx_sdio.c ****   * @brief  Returns command index of last command for which response received.
 440:STM32F4xx_LIB/periph/src/stm32f4xx_sdio.c ****   * @param  None
 441:STM32F4xx_LIB/periph/src/stm32f4xx_sdio.c ****   * @retval Returns the command index of the last command response received.
 442:STM32F4xx_LIB/periph/src/stm32f4xx_sdio.c ****   */
 443:STM32F4xx_LIB/periph/src/stm32f4xx_sdio.c **** uint8_t SDIO_GetCommandResponse(void)
 444:STM32F4xx_LIB/periph/src/stm32f4xx_sdio.c **** {
 391              		.loc 1 444 1 is_stmt 1 view -0
 392              		.cfi_startproc
 393              		@ args = 0, pretend = 0, frame = 0
 394              		@ frame_needed = 0, uses_anonymous_args = 0
 395              		@ link register save eliminated.
 445:STM32F4xx_LIB/periph/src/stm32f4xx_sdio.c ****   return (uint8_t)(SDIO->RESPCMD);
 396              		.loc 1 445 3 view .LVU101
 397              		.loc 1 445 24 is_stmt 0 view .LVU102
 398 0000 014B     		ldr	r3, .L23
 399 0002 1869     		ldr	r0, [r3, #16]
 446:STM32F4xx_LIB/periph/src/stm32f4xx_sdio.c **** }
 400              		.loc 1 446 1 view .LVU103
 401 0004 C0B2     		uxtb	r0, r0
 402 0006 7047     		bx	lr
 403              	.L24:
 404              		.align	2
 405              	.L23:
 406 0008 002C0140 		.word	1073818624
 407              		.cfi_endproc
 408              	.LFE131:
 410              		.section	.text.SDIO_GetResponse,"ax",%progbits
 411              		.align	1
 412              		.global	SDIO_GetResponse
 413              		.syntax unified
 414              		.thumb
 415              		.thumb_func
 416              		.fpu fpv4-sp-d16
 418              	SDIO_GetResponse:
 419              	.LVL20:
 420              	.LFB132:
 447:STM32F4xx_LIB/periph/src/stm32f4xx_sdio.c **** 
 448:STM32F4xx_LIB/periph/src/stm32f4xx_sdio.c **** /**
 449:STM32F4xx_LIB/periph/src/stm32f4xx_sdio.c ****   * @brief  Returns response received from the card for the last command.
 450:STM32F4xx_LIB/periph/src/stm32f4xx_sdio.c ****   * @param  SDIO_RESP: Specifies the SDIO response register. 
ARM GAS  C:\Users\京垓\AppData\Local\Temp\ccmTZYge.s 			page 16


 451:STM32F4xx_LIB/periph/src/stm32f4xx_sdio.c ****   *          This parameter can be one of the following values:
 452:STM32F4xx_LIB/periph/src/stm32f4xx_sdio.c ****   *            @arg SDIO_RESP1: Response Register 1
 453:STM32F4xx_LIB/periph/src/stm32f4xx_sdio.c ****   *            @arg SDIO_RESP2: Response Register 2
 454:STM32F4xx_LIB/periph/src/stm32f4xx_sdio.c ****   *            @arg SDIO_RESP3: Response Register 3
 455:STM32F4xx_LIB/periph/src/stm32f4xx_sdio.c ****   *            @arg SDIO_RESP4: Response Register 4
 456:STM32F4xx_LIB/periph/src/stm32f4xx_sdio.c ****   * @retval The Corresponding response register value.
 457:STM32F4xx_LIB/periph/src/stm32f4xx_sdio.c ****   */
 458:STM32F4xx_LIB/periph/src/stm32f4xx_sdio.c **** uint32_t SDIO_GetResponse(uint32_t SDIO_RESP)
 459:STM32F4xx_LIB/periph/src/stm32f4xx_sdio.c **** {
 421              		.loc 1 459 1 is_stmt 1 view -0
 422              		.cfi_startproc
 423              		@ args = 0, pretend = 0, frame = 8
 424              		@ frame_needed = 0, uses_anonymous_args = 0
 425              		@ link register save eliminated.
 426              		.loc 1 459 1 is_stmt 0 view .LVU105
 427 0000 82B0     		sub	sp, sp, #8
 428              	.LCFI5:
 429              		.cfi_def_cfa_offset 8
 460:STM32F4xx_LIB/periph/src/stm32f4xx_sdio.c ****   __IO uint32_t tmp = 0;
 430              		.loc 1 460 3 is_stmt 1 view .LVU106
 431              		.loc 1 460 17 is_stmt 0 view .LVU107
 432 0002 0023     		movs	r3, #0
 433 0004 0193     		str	r3, [sp, #4]
 461:STM32F4xx_LIB/periph/src/stm32f4xx_sdio.c **** 
 462:STM32F4xx_LIB/periph/src/stm32f4xx_sdio.c ****   /* Check the parameters */
 463:STM32F4xx_LIB/periph/src/stm32f4xx_sdio.c ****   assert_param(IS_SDIO_RESP(SDIO_RESP));
 434              		.loc 1 463 3 is_stmt 1 view .LVU108
 464:STM32F4xx_LIB/periph/src/stm32f4xx_sdio.c **** 
 465:STM32F4xx_LIB/periph/src/stm32f4xx_sdio.c ****   tmp = SDIO_RESP_ADDR + SDIO_RESP;
 435              		.loc 1 465 3 view .LVU109
 436              		.loc 1 465 24 is_stmt 0 view .LVU110
 437 0006 034B     		ldr	r3, .L27
 438 0008 0344     		add	r3, r3, r0
 439              		.loc 1 465 7 view .LVU111
 440 000a 0193     		str	r3, [sp, #4]
 466:STM32F4xx_LIB/periph/src/stm32f4xx_sdio.c ****   
 467:STM32F4xx_LIB/periph/src/stm32f4xx_sdio.c ****   return (*(__IO uint32_t *) tmp); 
 441              		.loc 1 467 3 is_stmt 1 view .LVU112
 442              		.loc 1 467 12 is_stmt 0 view .LVU113
 443 000c 019B     		ldr	r3, [sp, #4]
 444              		.loc 1 467 11 view .LVU114
 445 000e 1868     		ldr	r0, [r3]
 446              	.LVL21:
 468:STM32F4xx_LIB/periph/src/stm32f4xx_sdio.c **** }
 447              		.loc 1 468 1 view .LVU115
 448 0010 02B0     		add	sp, sp, #8
 449              	.LCFI6:
 450              		.cfi_def_cfa_offset 0
 451              		@ sp needed
 452 0012 7047     		bx	lr
 453              	.L28:
 454              		.align	2
 455              	.L27:
 456 0014 142C0140 		.word	1073818644
 457              		.cfi_endproc
 458              	.LFE132:
 460              		.section	.text.SDIO_DataConfig,"ax",%progbits
ARM GAS  C:\Users\京垓\AppData\Local\Temp\ccmTZYge.s 			page 17


 461              		.align	1
 462              		.global	SDIO_DataConfig
 463              		.syntax unified
 464              		.thumb
 465              		.thumb_func
 466              		.fpu fpv4-sp-d16
 468              	SDIO_DataConfig:
 469              	.LVL22:
 470              	.LFB133:
 469:STM32F4xx_LIB/periph/src/stm32f4xx_sdio.c **** 
 470:STM32F4xx_LIB/periph/src/stm32f4xx_sdio.c **** /**
 471:STM32F4xx_LIB/periph/src/stm32f4xx_sdio.c ****   * @}
 472:STM32F4xx_LIB/periph/src/stm32f4xx_sdio.c ****   */
 473:STM32F4xx_LIB/periph/src/stm32f4xx_sdio.c **** 
 474:STM32F4xx_LIB/periph/src/stm32f4xx_sdio.c **** /** @defgroup SDIO_Group3 Data path state machine (DPSM) management functions
 475:STM32F4xx_LIB/periph/src/stm32f4xx_sdio.c ****  *  @brief   Data path state machine (DPSM) management functions
 476:STM32F4xx_LIB/periph/src/stm32f4xx_sdio.c ****  *
 477:STM32F4xx_LIB/periph/src/stm32f4xx_sdio.c **** @verbatim   
 478:STM32F4xx_LIB/periph/src/stm32f4xx_sdio.c ****  ===============================================================================
 479:STM32F4xx_LIB/periph/src/stm32f4xx_sdio.c ****          ##### Data path state machine (DPSM) management functions #####
 480:STM32F4xx_LIB/periph/src/stm32f4xx_sdio.c ****  ===============================================================================  
 481:STM32F4xx_LIB/periph/src/stm32f4xx_sdio.c **** 
 482:STM32F4xx_LIB/periph/src/stm32f4xx_sdio.c ****   This section provide functions allowing to program and read the Data path 
 483:STM32F4xx_LIB/periph/src/stm32f4xx_sdio.c ****   state machine (DPSM).
 484:STM32F4xx_LIB/periph/src/stm32f4xx_sdio.c **** 
 485:STM32F4xx_LIB/periph/src/stm32f4xx_sdio.c **** @endverbatim
 486:STM32F4xx_LIB/periph/src/stm32f4xx_sdio.c ****   * @{
 487:STM32F4xx_LIB/periph/src/stm32f4xx_sdio.c ****   */
 488:STM32F4xx_LIB/periph/src/stm32f4xx_sdio.c **** 
 489:STM32F4xx_LIB/periph/src/stm32f4xx_sdio.c **** /**
 490:STM32F4xx_LIB/periph/src/stm32f4xx_sdio.c ****   * @brief  Initializes the SDIO data path according to the specified 
 491:STM32F4xx_LIB/periph/src/stm32f4xx_sdio.c ****   *         parameters in the SDIO_DataInitStruct.
 492:STM32F4xx_LIB/periph/src/stm32f4xx_sdio.c ****   * @param  SDIO_DataInitStruct : pointer to a SDIO_DataInitTypeDef structure 
 493:STM32F4xx_LIB/periph/src/stm32f4xx_sdio.c ****   *         that contains the configuration information for the SDIO command.
 494:STM32F4xx_LIB/periph/src/stm32f4xx_sdio.c ****   * @retval None
 495:STM32F4xx_LIB/periph/src/stm32f4xx_sdio.c ****   */
 496:STM32F4xx_LIB/periph/src/stm32f4xx_sdio.c **** void SDIO_DataConfig(SDIO_DataInitTypeDef* SDIO_DataInitStruct)
 497:STM32F4xx_LIB/periph/src/stm32f4xx_sdio.c **** {
 471              		.loc 1 497 1 is_stmt 1 view -0
 472              		.cfi_startproc
 473              		@ args = 0, pretend = 0, frame = 0
 474              		@ frame_needed = 0, uses_anonymous_args = 0
 475              		@ link register save eliminated.
 476              		.loc 1 497 1 is_stmt 0 view .LVU117
 477 0000 10B4     		push	{r4}
 478              	.LCFI7:
 479              		.cfi_def_cfa_offset 4
 480              		.cfi_offset 4, -4
 498:STM32F4xx_LIB/periph/src/stm32f4xx_sdio.c ****   uint32_t tmpreg = 0;
 481              		.loc 1 498 3 is_stmt 1 view .LVU118
 482              	.LVL23:
 499:STM32F4xx_LIB/periph/src/stm32f4xx_sdio.c ****   
 500:STM32F4xx_LIB/periph/src/stm32f4xx_sdio.c ****   /* Check the parameters */
 501:STM32F4xx_LIB/periph/src/stm32f4xx_sdio.c ****   assert_param(IS_SDIO_DATA_LENGTH(SDIO_DataInitStruct->SDIO_DataLength));
 483              		.loc 1 501 3 view .LVU119
 502:STM32F4xx_LIB/periph/src/stm32f4xx_sdio.c ****   assert_param(IS_SDIO_BLOCK_SIZE(SDIO_DataInitStruct->SDIO_DataBlockSize));
 484              		.loc 1 502 3 view .LVU120
ARM GAS  C:\Users\京垓\AppData\Local\Temp\ccmTZYge.s 			page 18


 503:STM32F4xx_LIB/periph/src/stm32f4xx_sdio.c ****   assert_param(IS_SDIO_TRANSFER_DIR(SDIO_DataInitStruct->SDIO_TransferDir));
 485              		.loc 1 503 3 view .LVU121
 504:STM32F4xx_LIB/periph/src/stm32f4xx_sdio.c ****   assert_param(IS_SDIO_TRANSFER_MODE(SDIO_DataInitStruct->SDIO_TransferMode));
 486              		.loc 1 504 3 view .LVU122
 505:STM32F4xx_LIB/periph/src/stm32f4xx_sdio.c ****   assert_param(IS_SDIO_DPSM(SDIO_DataInitStruct->SDIO_DPSM));
 487              		.loc 1 505 3 view .LVU123
 506:STM32F4xx_LIB/periph/src/stm32f4xx_sdio.c **** 
 507:STM32F4xx_LIB/periph/src/stm32f4xx_sdio.c **** /*---------------------------- SDIO DTIMER Configuration ---------------------*/
 508:STM32F4xx_LIB/periph/src/stm32f4xx_sdio.c ****   /* Set the SDIO Data TimeOut value */
 509:STM32F4xx_LIB/periph/src/stm32f4xx_sdio.c ****   SDIO->DTIMER = SDIO_DataInitStruct->SDIO_DataTimeOut;
 488              		.loc 1 509 3 view .LVU124
 489              		.loc 1 509 37 is_stmt 0 view .LVU125
 490 0002 0368     		ldr	r3, [r0]
 491              		.loc 1 509 16 view .LVU126
 492 0004 094A     		ldr	r2, .L31
 493 0006 5362     		str	r3, [r2, #36]
 510:STM32F4xx_LIB/periph/src/stm32f4xx_sdio.c **** 
 511:STM32F4xx_LIB/periph/src/stm32f4xx_sdio.c **** /*---------------------------- SDIO DLEN Configuration -----------------------*/
 512:STM32F4xx_LIB/periph/src/stm32f4xx_sdio.c ****   /* Set the SDIO DataLength value */
 513:STM32F4xx_LIB/periph/src/stm32f4xx_sdio.c ****   SDIO->DLEN = SDIO_DataInitStruct->SDIO_DataLength;
 494              		.loc 1 513 3 is_stmt 1 view .LVU127
 495              		.loc 1 513 35 is_stmt 0 view .LVU128
 496 0008 4368     		ldr	r3, [r0, #4]
 497              		.loc 1 513 14 view .LVU129
 498 000a 9362     		str	r3, [r2, #40]
 514:STM32F4xx_LIB/periph/src/stm32f4xx_sdio.c **** 
 515:STM32F4xx_LIB/periph/src/stm32f4xx_sdio.c **** /*---------------------------- SDIO DCTRL Configuration ----------------------*/  
 516:STM32F4xx_LIB/periph/src/stm32f4xx_sdio.c ****   /* Get the SDIO DCTRL value */
 517:STM32F4xx_LIB/periph/src/stm32f4xx_sdio.c ****   tmpreg = SDIO->DCTRL;
 499              		.loc 1 517 3 is_stmt 1 view .LVU130
 500              		.loc 1 517 10 is_stmt 0 view .LVU131
 501 000c D16A     		ldr	r1, [r2, #44]
 502              	.LVL24:
 518:STM32F4xx_LIB/periph/src/stm32f4xx_sdio.c ****   /* Clear DEN, DTMODE, DTDIR and DBCKSIZE bits */
 519:STM32F4xx_LIB/periph/src/stm32f4xx_sdio.c ****   tmpreg &= DCTRL_CLEAR_MASK;
 503              		.loc 1 519 3 is_stmt 1 view .LVU132
 504              		.loc 1 519 10 is_stmt 0 view .LVU133
 505 000e 21F0F701 		bic	r1, r1, #247
 506              	.LVL25:
 520:STM32F4xx_LIB/periph/src/stm32f4xx_sdio.c ****   /* Set DEN bit according to SDIO_DPSM value */
 521:STM32F4xx_LIB/periph/src/stm32f4xx_sdio.c ****   /* Set DTMODE bit according to SDIO_TransferMode value */
 522:STM32F4xx_LIB/periph/src/stm32f4xx_sdio.c ****   /* Set DTDIR bit according to SDIO_TransferDir value */
 523:STM32F4xx_LIB/periph/src/stm32f4xx_sdio.c ****   /* Set DBCKSIZE bits according to SDIO_DataBlockSize value */
 524:STM32F4xx_LIB/periph/src/stm32f4xx_sdio.c ****   tmpreg |= (uint32_t)SDIO_DataInitStruct->SDIO_DataBlockSize | SDIO_DataInitStruct->SDIO_TransferD
 507              		.loc 1 524 3 is_stmt 1 view .LVU134
 508              		.loc 1 524 42 is_stmt 0 view .LVU135
 509 0012 8368     		ldr	r3, [r0, #8]
 510              		.loc 1 524 84 view .LVU136
 511 0014 C468     		ldr	r4, [r0, #12]
 512              		.loc 1 524 63 view .LVU137
 513 0016 2343     		orrs	r3, r3, r4
 525:STM32F4xx_LIB/periph/src/stm32f4xx_sdio.c ****            | SDIO_DataInitStruct->SDIO_TransferMode | SDIO_DataInitStruct->SDIO_DPSM;
 514              		.loc 1 525 33 view .LVU138
 515 0018 0469     		ldr	r4, [r0, #16]
 516              		.loc 1 525 12 view .LVU139
 517 001a 2343     		orrs	r3, r3, r4
 518              		.loc 1 525 74 view .LVU140
ARM GAS  C:\Users\京垓\AppData\Local\Temp\ccmTZYge.s 			page 19


 519 001c 4069     		ldr	r0, [r0, #20]
 520              	.LVL26:
 521              		.loc 1 525 53 view .LVU141
 522 001e 0343     		orrs	r3, r3, r0
 524:STM32F4xx_LIB/periph/src/stm32f4xx_sdio.c ****            | SDIO_DataInitStruct->SDIO_TransferMode | SDIO_DataInitStruct->SDIO_DPSM;
 523              		.loc 1 524 10 view .LVU142
 524 0020 0B43     		orrs	r3, r3, r1
 525              	.LVL27:
 526:STM32F4xx_LIB/periph/src/stm32f4xx_sdio.c **** 
 527:STM32F4xx_LIB/periph/src/stm32f4xx_sdio.c ****   /* Write to SDIO DCTRL */
 528:STM32F4xx_LIB/periph/src/stm32f4xx_sdio.c ****   SDIO->DCTRL = tmpreg;
 526              		.loc 1 528 3 is_stmt 1 view .LVU143
 527              		.loc 1 528 15 is_stmt 0 view .LVU144
 528 0022 D362     		str	r3, [r2, #44]
 529:STM32F4xx_LIB/periph/src/stm32f4xx_sdio.c **** }
 529              		.loc 1 529 1 view .LVU145
 530 0024 5DF8044B 		ldr	r4, [sp], #4
 531              	.LCFI8:
 532              		.cfi_restore 4
 533              		.cfi_def_cfa_offset 0
 534 0028 7047     		bx	lr
 535              	.L32:
 536 002a 00BF     		.align	2
 537              	.L31:
 538 002c 002C0140 		.word	1073818624
 539              		.cfi_endproc
 540              	.LFE133:
 542              		.section	.text.SDIO_DataStructInit,"ax",%progbits
 543              		.align	1
 544              		.global	SDIO_DataStructInit
 545              		.syntax unified
 546              		.thumb
 547              		.thumb_func
 548              		.fpu fpv4-sp-d16
 550              	SDIO_DataStructInit:
 551              	.LVL28:
 552              	.LFB134:
 530:STM32F4xx_LIB/periph/src/stm32f4xx_sdio.c **** 
 531:STM32F4xx_LIB/periph/src/stm32f4xx_sdio.c **** /**
 532:STM32F4xx_LIB/periph/src/stm32f4xx_sdio.c ****   * @brief  Fills each SDIO_DataInitStruct member with its default value.
 533:STM32F4xx_LIB/periph/src/stm32f4xx_sdio.c ****   * @param  SDIO_DataInitStruct: pointer to an SDIO_DataInitTypeDef structure 
 534:STM32F4xx_LIB/periph/src/stm32f4xx_sdio.c ****   *         which will be initialized.
 535:STM32F4xx_LIB/periph/src/stm32f4xx_sdio.c ****   * @retval None
 536:STM32F4xx_LIB/periph/src/stm32f4xx_sdio.c ****   */
 537:STM32F4xx_LIB/periph/src/stm32f4xx_sdio.c **** void SDIO_DataStructInit(SDIO_DataInitTypeDef* SDIO_DataInitStruct)
 538:STM32F4xx_LIB/periph/src/stm32f4xx_sdio.c **** {
 553              		.loc 1 538 1 is_stmt 1 view -0
 554              		.cfi_startproc
 555              		@ args = 0, pretend = 0, frame = 0
 556              		@ frame_needed = 0, uses_anonymous_args = 0
 557              		@ link register save eliminated.
 539:STM32F4xx_LIB/periph/src/stm32f4xx_sdio.c ****   /* SDIO_DataInitStruct members default value */
 540:STM32F4xx_LIB/periph/src/stm32f4xx_sdio.c ****   SDIO_DataInitStruct->SDIO_DataTimeOut = 0xFFFFFFFF;
 558              		.loc 1 540 3 view .LVU147
 559              		.loc 1 540 41 is_stmt 0 view .LVU148
 560 0000 4FF0FF33 		mov	r3, #-1
 561 0004 0360     		str	r3, [r0]
ARM GAS  C:\Users\京垓\AppData\Local\Temp\ccmTZYge.s 			page 20


 541:STM32F4xx_LIB/periph/src/stm32f4xx_sdio.c ****   SDIO_DataInitStruct->SDIO_DataLength = 0x00;
 562              		.loc 1 541 3 is_stmt 1 view .LVU149
 563              		.loc 1 541 40 is_stmt 0 view .LVU150
 564 0006 0023     		movs	r3, #0
 565 0008 4360     		str	r3, [r0, #4]
 542:STM32F4xx_LIB/periph/src/stm32f4xx_sdio.c ****   SDIO_DataInitStruct->SDIO_DataBlockSize = SDIO_DataBlockSize_1b;
 566              		.loc 1 542 3 is_stmt 1 view .LVU151
 567              		.loc 1 542 43 is_stmt 0 view .LVU152
 568 000a 8360     		str	r3, [r0, #8]
 543:STM32F4xx_LIB/periph/src/stm32f4xx_sdio.c ****   SDIO_DataInitStruct->SDIO_TransferDir = SDIO_TransferDir_ToCard;
 569              		.loc 1 543 3 is_stmt 1 view .LVU153
 570              		.loc 1 543 41 is_stmt 0 view .LVU154
 571 000c C360     		str	r3, [r0, #12]
 544:STM32F4xx_LIB/periph/src/stm32f4xx_sdio.c ****   SDIO_DataInitStruct->SDIO_TransferMode = SDIO_TransferMode_Block;  
 572              		.loc 1 544 3 is_stmt 1 view .LVU155
 573              		.loc 1 544 42 is_stmt 0 view .LVU156
 574 000e 0361     		str	r3, [r0, #16]
 545:STM32F4xx_LIB/periph/src/stm32f4xx_sdio.c ****   SDIO_DataInitStruct->SDIO_DPSM = SDIO_DPSM_Disable;
 575              		.loc 1 545 3 is_stmt 1 view .LVU157
 576              		.loc 1 545 34 is_stmt 0 view .LVU158
 577 0010 4361     		str	r3, [r0, #20]
 546:STM32F4xx_LIB/periph/src/stm32f4xx_sdio.c **** }
 578              		.loc 1 546 1 view .LVU159
 579 0012 7047     		bx	lr
 580              		.cfi_endproc
 581              	.LFE134:
 583              		.section	.text.SDIO_GetDataCounter,"ax",%progbits
 584              		.align	1
 585              		.global	SDIO_GetDataCounter
 586              		.syntax unified
 587              		.thumb
 588              		.thumb_func
 589              		.fpu fpv4-sp-d16
 591              	SDIO_GetDataCounter:
 592              	.LFB135:
 547:STM32F4xx_LIB/periph/src/stm32f4xx_sdio.c **** 
 548:STM32F4xx_LIB/periph/src/stm32f4xx_sdio.c **** /**
 549:STM32F4xx_LIB/periph/src/stm32f4xx_sdio.c ****   * @brief  Returns number of remaining data bytes to be transferred.
 550:STM32F4xx_LIB/periph/src/stm32f4xx_sdio.c ****   * @param  None
 551:STM32F4xx_LIB/periph/src/stm32f4xx_sdio.c ****   * @retval Number of remaining data bytes to be transferred
 552:STM32F4xx_LIB/periph/src/stm32f4xx_sdio.c ****   */
 553:STM32F4xx_LIB/periph/src/stm32f4xx_sdio.c **** uint32_t SDIO_GetDataCounter(void)
 554:STM32F4xx_LIB/periph/src/stm32f4xx_sdio.c **** { 
 593              		.loc 1 554 1 is_stmt 1 view -0
 594              		.cfi_startproc
 595              		@ args = 0, pretend = 0, frame = 0
 596              		@ frame_needed = 0, uses_anonymous_args = 0
 597              		@ link register save eliminated.
 555:STM32F4xx_LIB/periph/src/stm32f4xx_sdio.c ****   return SDIO->DCOUNT;
 598              		.loc 1 555 3 view .LVU161
 599              		.loc 1 555 14 is_stmt 0 view .LVU162
 600 0000 014B     		ldr	r3, .L35
 601 0002 186B     		ldr	r0, [r3, #48]
 556:STM32F4xx_LIB/periph/src/stm32f4xx_sdio.c **** }
 602              		.loc 1 556 1 view .LVU163
 603 0004 7047     		bx	lr
 604              	.L36:
ARM GAS  C:\Users\京垓\AppData\Local\Temp\ccmTZYge.s 			page 21


 605 0006 00BF     		.align	2
 606              	.L35:
 607 0008 002C0140 		.word	1073818624
 608              		.cfi_endproc
 609              	.LFE135:
 611              		.section	.text.SDIO_ReadData,"ax",%progbits
 612              		.align	1
 613              		.global	SDIO_ReadData
 614              		.syntax unified
 615              		.thumb
 616              		.thumb_func
 617              		.fpu fpv4-sp-d16
 619              	SDIO_ReadData:
 620              	.LFB136:
 557:STM32F4xx_LIB/periph/src/stm32f4xx_sdio.c **** 
 558:STM32F4xx_LIB/periph/src/stm32f4xx_sdio.c **** /**
 559:STM32F4xx_LIB/periph/src/stm32f4xx_sdio.c ****   * @brief  Read one data word from Rx FIFO.
 560:STM32F4xx_LIB/periph/src/stm32f4xx_sdio.c ****   * @param  None
 561:STM32F4xx_LIB/periph/src/stm32f4xx_sdio.c ****   * @retval Data received
 562:STM32F4xx_LIB/periph/src/stm32f4xx_sdio.c ****   */
 563:STM32F4xx_LIB/periph/src/stm32f4xx_sdio.c **** uint32_t SDIO_ReadData(void)
 564:STM32F4xx_LIB/periph/src/stm32f4xx_sdio.c **** { 
 621              		.loc 1 564 1 is_stmt 1 view -0
 622              		.cfi_startproc
 623              		@ args = 0, pretend = 0, frame = 0
 624              		@ frame_needed = 0, uses_anonymous_args = 0
 625              		@ link register save eliminated.
 565:STM32F4xx_LIB/periph/src/stm32f4xx_sdio.c ****   return SDIO->FIFO;
 626              		.loc 1 565 3 view .LVU165
 627              		.loc 1 565 14 is_stmt 0 view .LVU166
 628 0000 014B     		ldr	r3, .L38
 629 0002 D3F88000 		ldr	r0, [r3, #128]
 566:STM32F4xx_LIB/periph/src/stm32f4xx_sdio.c **** }
 630              		.loc 1 566 1 view .LVU167
 631 0006 7047     		bx	lr
 632              	.L39:
 633              		.align	2
 634              	.L38:
 635 0008 002C0140 		.word	1073818624
 636              		.cfi_endproc
 637              	.LFE136:
 639              		.section	.text.SDIO_WriteData,"ax",%progbits
 640              		.align	1
 641              		.global	SDIO_WriteData
 642              		.syntax unified
 643              		.thumb
 644              		.thumb_func
 645              		.fpu fpv4-sp-d16
 647              	SDIO_WriteData:
 648              	.LVL29:
 649              	.LFB137:
 567:STM32F4xx_LIB/periph/src/stm32f4xx_sdio.c **** 
 568:STM32F4xx_LIB/periph/src/stm32f4xx_sdio.c **** /**
 569:STM32F4xx_LIB/periph/src/stm32f4xx_sdio.c ****   * @brief  Write one data word to Tx FIFO.
 570:STM32F4xx_LIB/periph/src/stm32f4xx_sdio.c ****   * @param  Data: 32-bit data word to write.
 571:STM32F4xx_LIB/periph/src/stm32f4xx_sdio.c ****   * @retval None
 572:STM32F4xx_LIB/periph/src/stm32f4xx_sdio.c ****   */
ARM GAS  C:\Users\京垓\AppData\Local\Temp\ccmTZYge.s 			page 22


 573:STM32F4xx_LIB/periph/src/stm32f4xx_sdio.c **** void SDIO_WriteData(uint32_t Data)
 574:STM32F4xx_LIB/periph/src/stm32f4xx_sdio.c **** { 
 650              		.loc 1 574 1 is_stmt 1 view -0
 651              		.cfi_startproc
 652              		@ args = 0, pretend = 0, frame = 0
 653              		@ frame_needed = 0, uses_anonymous_args = 0
 654              		@ link register save eliminated.
 575:STM32F4xx_LIB/periph/src/stm32f4xx_sdio.c ****   SDIO->FIFO = Data;
 655              		.loc 1 575 3 view .LVU169
 656              		.loc 1 575 14 is_stmt 0 view .LVU170
 657 0000 014B     		ldr	r3, .L41
 658 0002 C3F88000 		str	r0, [r3, #128]
 576:STM32F4xx_LIB/periph/src/stm32f4xx_sdio.c **** }
 659              		.loc 1 576 1 view .LVU171
 660 0006 7047     		bx	lr
 661              	.L42:
 662              		.align	2
 663              	.L41:
 664 0008 002C0140 		.word	1073818624
 665              		.cfi_endproc
 666              	.LFE137:
 668              		.section	.text.SDIO_GetFIFOCount,"ax",%progbits
 669              		.align	1
 670              		.global	SDIO_GetFIFOCount
 671              		.syntax unified
 672              		.thumb
 673              		.thumb_func
 674              		.fpu fpv4-sp-d16
 676              	SDIO_GetFIFOCount:
 677              	.LFB138:
 577:STM32F4xx_LIB/periph/src/stm32f4xx_sdio.c **** 
 578:STM32F4xx_LIB/periph/src/stm32f4xx_sdio.c **** /**
 579:STM32F4xx_LIB/periph/src/stm32f4xx_sdio.c ****   * @brief  Returns the number of words left to be written to or read from FIFO.	
 580:STM32F4xx_LIB/periph/src/stm32f4xx_sdio.c ****   * @param  None
 581:STM32F4xx_LIB/periph/src/stm32f4xx_sdio.c ****   * @retval Remaining number of words.
 582:STM32F4xx_LIB/periph/src/stm32f4xx_sdio.c ****   */
 583:STM32F4xx_LIB/periph/src/stm32f4xx_sdio.c **** uint32_t SDIO_GetFIFOCount(void)
 584:STM32F4xx_LIB/periph/src/stm32f4xx_sdio.c **** { 
 678              		.loc 1 584 1 is_stmt 1 view -0
 679              		.cfi_startproc
 680              		@ args = 0, pretend = 0, frame = 0
 681              		@ frame_needed = 0, uses_anonymous_args = 0
 682              		@ link register save eliminated.
 585:STM32F4xx_LIB/periph/src/stm32f4xx_sdio.c ****   return SDIO->FIFOCNT;
 683              		.loc 1 585 3 view .LVU173
 684              		.loc 1 585 14 is_stmt 0 view .LVU174
 685 0000 014B     		ldr	r3, .L44
 686 0002 986C     		ldr	r0, [r3, #72]
 586:STM32F4xx_LIB/periph/src/stm32f4xx_sdio.c **** }
 687              		.loc 1 586 1 view .LVU175
 688 0004 7047     		bx	lr
 689              	.L45:
 690 0006 00BF     		.align	2
 691              	.L44:
 692 0008 002C0140 		.word	1073818624
 693              		.cfi_endproc
 694              	.LFE138:
ARM GAS  C:\Users\京垓\AppData\Local\Temp\ccmTZYge.s 			page 23


 696              		.section	.text.SDIO_StartSDIOReadWait,"ax",%progbits
 697              		.align	1
 698              		.global	SDIO_StartSDIOReadWait
 699              		.syntax unified
 700              		.thumb
 701              		.thumb_func
 702              		.fpu fpv4-sp-d16
 704              	SDIO_StartSDIOReadWait:
 705              	.LVL30:
 706              	.LFB139:
 587:STM32F4xx_LIB/periph/src/stm32f4xx_sdio.c **** 
 588:STM32F4xx_LIB/periph/src/stm32f4xx_sdio.c **** /**
 589:STM32F4xx_LIB/periph/src/stm32f4xx_sdio.c ****   * @}
 590:STM32F4xx_LIB/periph/src/stm32f4xx_sdio.c ****   */
 591:STM32F4xx_LIB/periph/src/stm32f4xx_sdio.c **** 
 592:STM32F4xx_LIB/periph/src/stm32f4xx_sdio.c **** /** @defgroup SDIO_Group4 SDIO IO Cards mode management functions
 593:STM32F4xx_LIB/periph/src/stm32f4xx_sdio.c ****  *  @brief   SDIO IO Cards mode management functions
 594:STM32F4xx_LIB/periph/src/stm32f4xx_sdio.c ****  *
 595:STM32F4xx_LIB/periph/src/stm32f4xx_sdio.c **** @verbatim   
 596:STM32F4xx_LIB/periph/src/stm32f4xx_sdio.c ****  ===============================================================================
 597:STM32F4xx_LIB/periph/src/stm32f4xx_sdio.c ****                ##### SDIO IO Cards mode management functions #####
 598:STM32F4xx_LIB/periph/src/stm32f4xx_sdio.c ****  ===============================================================================  
 599:STM32F4xx_LIB/periph/src/stm32f4xx_sdio.c **** 
 600:STM32F4xx_LIB/periph/src/stm32f4xx_sdio.c ****   This section provide functions allowing to program and read the SDIO IO Cards.
 601:STM32F4xx_LIB/periph/src/stm32f4xx_sdio.c **** 
 602:STM32F4xx_LIB/periph/src/stm32f4xx_sdio.c **** @endverbatim
 603:STM32F4xx_LIB/periph/src/stm32f4xx_sdio.c ****   * @{
 604:STM32F4xx_LIB/periph/src/stm32f4xx_sdio.c ****   */
 605:STM32F4xx_LIB/periph/src/stm32f4xx_sdio.c **** 
 606:STM32F4xx_LIB/periph/src/stm32f4xx_sdio.c **** /**
 607:STM32F4xx_LIB/periph/src/stm32f4xx_sdio.c ****   * @brief  Starts the SD I/O Read Wait operation.	
 608:STM32F4xx_LIB/periph/src/stm32f4xx_sdio.c ****   * @param  NewState: new state of the Start SDIO Read Wait operation. 
 609:STM32F4xx_LIB/periph/src/stm32f4xx_sdio.c ****   *         This parameter can be: ENABLE or DISABLE.
 610:STM32F4xx_LIB/periph/src/stm32f4xx_sdio.c ****   * @retval None
 611:STM32F4xx_LIB/periph/src/stm32f4xx_sdio.c ****   */
 612:STM32F4xx_LIB/periph/src/stm32f4xx_sdio.c **** void SDIO_StartSDIOReadWait(FunctionalState NewState)
 613:STM32F4xx_LIB/periph/src/stm32f4xx_sdio.c **** { 
 707              		.loc 1 613 1 is_stmt 1 view -0
 708              		.cfi_startproc
 709              		@ args = 0, pretend = 0, frame = 0
 710              		@ frame_needed = 0, uses_anonymous_args = 0
 711              		@ link register save eliminated.
 614:STM32F4xx_LIB/periph/src/stm32f4xx_sdio.c ****   /* Check the parameters */
 615:STM32F4xx_LIB/periph/src/stm32f4xx_sdio.c ****   assert_param(IS_FUNCTIONAL_STATE(NewState));
 712              		.loc 1 615 3 view .LVU177
 616:STM32F4xx_LIB/periph/src/stm32f4xx_sdio.c ****   
 617:STM32F4xx_LIB/periph/src/stm32f4xx_sdio.c ****   *(__IO uint32_t *) DCTRL_RWSTART_BB = (uint32_t) NewState;
 713              		.loc 1 617 3 view .LVU178
 714              		.loc 1 617 39 is_stmt 0 view .LVU179
 715 0000 014B     		ldr	r3, .L47
 716 0002 1860     		str	r0, [r3]
 618:STM32F4xx_LIB/periph/src/stm32f4xx_sdio.c **** }
 717              		.loc 1 618 1 view .LVU180
 718 0004 7047     		bx	lr
 719              	.L48:
 720 0006 00BF     		.align	2
 721              	.L47:
ARM GAS  C:\Users\京垓\AppData\Local\Temp\ccmTZYge.s 			page 24


 722 0008 A0852542 		.word	1109755296
 723              		.cfi_endproc
 724              	.LFE139:
 726              		.section	.text.SDIO_StopSDIOReadWait,"ax",%progbits
 727              		.align	1
 728              		.global	SDIO_StopSDIOReadWait
 729              		.syntax unified
 730              		.thumb
 731              		.thumb_func
 732              		.fpu fpv4-sp-d16
 734              	SDIO_StopSDIOReadWait:
 735              	.LVL31:
 736              	.LFB140:
 619:STM32F4xx_LIB/periph/src/stm32f4xx_sdio.c **** 
 620:STM32F4xx_LIB/periph/src/stm32f4xx_sdio.c **** /**
 621:STM32F4xx_LIB/periph/src/stm32f4xx_sdio.c ****   * @brief  Stops the SD I/O Read Wait operation.	
 622:STM32F4xx_LIB/periph/src/stm32f4xx_sdio.c ****   * @param  NewState: new state of the Stop SDIO Read Wait operation. 
 623:STM32F4xx_LIB/periph/src/stm32f4xx_sdio.c ****   *         This parameter can be: ENABLE or DISABLE.
 624:STM32F4xx_LIB/periph/src/stm32f4xx_sdio.c ****   * @retval None
 625:STM32F4xx_LIB/periph/src/stm32f4xx_sdio.c ****   */
 626:STM32F4xx_LIB/periph/src/stm32f4xx_sdio.c **** void SDIO_StopSDIOReadWait(FunctionalState NewState)
 627:STM32F4xx_LIB/periph/src/stm32f4xx_sdio.c **** { 
 737              		.loc 1 627 1 is_stmt 1 view -0
 738              		.cfi_startproc
 739              		@ args = 0, pretend = 0, frame = 0
 740              		@ frame_needed = 0, uses_anonymous_args = 0
 741              		@ link register save eliminated.
 628:STM32F4xx_LIB/periph/src/stm32f4xx_sdio.c ****   /* Check the parameters */
 629:STM32F4xx_LIB/periph/src/stm32f4xx_sdio.c ****   assert_param(IS_FUNCTIONAL_STATE(NewState));
 742              		.loc 1 629 3 view .LVU182
 630:STM32F4xx_LIB/periph/src/stm32f4xx_sdio.c ****   
 631:STM32F4xx_LIB/periph/src/stm32f4xx_sdio.c ****   *(__IO uint32_t *) DCTRL_RWSTOP_BB = (uint32_t) NewState;
 743              		.loc 1 631 3 view .LVU183
 744              		.loc 1 631 38 is_stmt 0 view .LVU184
 745 0000 014B     		ldr	r3, .L50
 746 0002 1860     		str	r0, [r3]
 632:STM32F4xx_LIB/periph/src/stm32f4xx_sdio.c **** }
 747              		.loc 1 632 1 view .LVU185
 748 0004 7047     		bx	lr
 749              	.L51:
 750 0006 00BF     		.align	2
 751              	.L50:
 752 0008 A4852542 		.word	1109755300
 753              		.cfi_endproc
 754              	.LFE140:
 756              		.section	.text.SDIO_SetSDIOReadWaitMode,"ax",%progbits
 757              		.align	1
 758              		.global	SDIO_SetSDIOReadWaitMode
 759              		.syntax unified
 760              		.thumb
 761              		.thumb_func
 762              		.fpu fpv4-sp-d16
 764              	SDIO_SetSDIOReadWaitMode:
 765              	.LVL32:
 766              	.LFB141:
 633:STM32F4xx_LIB/periph/src/stm32f4xx_sdio.c **** 
 634:STM32F4xx_LIB/periph/src/stm32f4xx_sdio.c **** /**
ARM GAS  C:\Users\京垓\AppData\Local\Temp\ccmTZYge.s 			page 25


 635:STM32F4xx_LIB/periph/src/stm32f4xx_sdio.c ****   * @brief  Sets one of the two options of inserting read wait interval.
 636:STM32F4xx_LIB/periph/src/stm32f4xx_sdio.c ****   * @param  SDIO_ReadWaitMode: SD I/O Read Wait operation mode.
 637:STM32F4xx_LIB/periph/src/stm32f4xx_sdio.c ****   *          This parameter can be:
 638:STM32F4xx_LIB/periph/src/stm32f4xx_sdio.c ****   *            @arg SDIO_ReadWaitMode_CLK: Read Wait control by stopping SDIOCLK
 639:STM32F4xx_LIB/periph/src/stm32f4xx_sdio.c ****   *            @arg SDIO_ReadWaitMode_DATA2: Read Wait control using SDIO_DATA2
 640:STM32F4xx_LIB/periph/src/stm32f4xx_sdio.c ****   * @retval None
 641:STM32F4xx_LIB/periph/src/stm32f4xx_sdio.c ****   */
 642:STM32F4xx_LIB/periph/src/stm32f4xx_sdio.c **** void SDIO_SetSDIOReadWaitMode(uint32_t SDIO_ReadWaitMode)
 643:STM32F4xx_LIB/periph/src/stm32f4xx_sdio.c **** {
 767              		.loc 1 643 1 is_stmt 1 view -0
 768              		.cfi_startproc
 769              		@ args = 0, pretend = 0, frame = 0
 770              		@ frame_needed = 0, uses_anonymous_args = 0
 771              		@ link register save eliminated.
 644:STM32F4xx_LIB/periph/src/stm32f4xx_sdio.c ****   /* Check the parameters */
 645:STM32F4xx_LIB/periph/src/stm32f4xx_sdio.c ****   assert_param(IS_SDIO_READWAIT_MODE(SDIO_ReadWaitMode));
 772              		.loc 1 645 3 view .LVU187
 646:STM32F4xx_LIB/periph/src/stm32f4xx_sdio.c ****   
 647:STM32F4xx_LIB/periph/src/stm32f4xx_sdio.c ****   *(__IO uint32_t *) DCTRL_RWMOD_BB = SDIO_ReadWaitMode;
 773              		.loc 1 647 3 view .LVU188
 774              		.loc 1 647 37 is_stmt 0 view .LVU189
 775 0000 014B     		ldr	r3, .L53
 776 0002 1860     		str	r0, [r3]
 648:STM32F4xx_LIB/periph/src/stm32f4xx_sdio.c **** }
 777              		.loc 1 648 1 view .LVU190
 778 0004 7047     		bx	lr
 779              	.L54:
 780 0006 00BF     		.align	2
 781              	.L53:
 782 0008 A8852542 		.word	1109755304
 783              		.cfi_endproc
 784              	.LFE141:
 786              		.section	.text.SDIO_SetSDIOOperation,"ax",%progbits
 787              		.align	1
 788              		.global	SDIO_SetSDIOOperation
 789              		.syntax unified
 790              		.thumb
 791              		.thumb_func
 792              		.fpu fpv4-sp-d16
 794              	SDIO_SetSDIOOperation:
 795              	.LVL33:
 796              	.LFB142:
 649:STM32F4xx_LIB/periph/src/stm32f4xx_sdio.c **** 
 650:STM32F4xx_LIB/periph/src/stm32f4xx_sdio.c **** /**
 651:STM32F4xx_LIB/periph/src/stm32f4xx_sdio.c ****   * @brief  Enables or disables the SD I/O Mode Operation.
 652:STM32F4xx_LIB/periph/src/stm32f4xx_sdio.c ****   * @param  NewState: new state of SDIO specific operation. 
 653:STM32F4xx_LIB/periph/src/stm32f4xx_sdio.c ****   *         This parameter can be: ENABLE or DISABLE.
 654:STM32F4xx_LIB/periph/src/stm32f4xx_sdio.c ****   * @retval None
 655:STM32F4xx_LIB/periph/src/stm32f4xx_sdio.c ****   */
 656:STM32F4xx_LIB/periph/src/stm32f4xx_sdio.c **** void SDIO_SetSDIOOperation(FunctionalState NewState)
 657:STM32F4xx_LIB/periph/src/stm32f4xx_sdio.c **** { 
 797              		.loc 1 657 1 is_stmt 1 view -0
 798              		.cfi_startproc
 799              		@ args = 0, pretend = 0, frame = 0
 800              		@ frame_needed = 0, uses_anonymous_args = 0
 801              		@ link register save eliminated.
 658:STM32F4xx_LIB/periph/src/stm32f4xx_sdio.c ****   /* Check the parameters */
ARM GAS  C:\Users\京垓\AppData\Local\Temp\ccmTZYge.s 			page 26


 659:STM32F4xx_LIB/periph/src/stm32f4xx_sdio.c ****   assert_param(IS_FUNCTIONAL_STATE(NewState));
 802              		.loc 1 659 3 view .LVU192
 660:STM32F4xx_LIB/periph/src/stm32f4xx_sdio.c ****   
 661:STM32F4xx_LIB/periph/src/stm32f4xx_sdio.c ****   *(__IO uint32_t *) DCTRL_SDIOEN_BB = (uint32_t)NewState;
 803              		.loc 1 661 3 view .LVU193
 804              		.loc 1 661 38 is_stmt 0 view .LVU194
 805 0000 014B     		ldr	r3, .L56
 806 0002 1860     		str	r0, [r3]
 662:STM32F4xx_LIB/periph/src/stm32f4xx_sdio.c **** }
 807              		.loc 1 662 1 view .LVU195
 808 0004 7047     		bx	lr
 809              	.L57:
 810 0006 00BF     		.align	2
 811              	.L56:
 812 0008 AC852542 		.word	1109755308
 813              		.cfi_endproc
 814              	.LFE142:
 816              		.section	.text.SDIO_SendSDIOSuspendCmd,"ax",%progbits
 817              		.align	1
 818              		.global	SDIO_SendSDIOSuspendCmd
 819              		.syntax unified
 820              		.thumb
 821              		.thumb_func
 822              		.fpu fpv4-sp-d16
 824              	SDIO_SendSDIOSuspendCmd:
 825              	.LVL34:
 826              	.LFB143:
 663:STM32F4xx_LIB/periph/src/stm32f4xx_sdio.c **** 
 664:STM32F4xx_LIB/periph/src/stm32f4xx_sdio.c **** /**
 665:STM32F4xx_LIB/periph/src/stm32f4xx_sdio.c ****   * @brief  Enables or disables the SD I/O Mode suspend command sending.
 666:STM32F4xx_LIB/periph/src/stm32f4xx_sdio.c ****   * @param  NewState: new state of the SD I/O Mode suspend command.
 667:STM32F4xx_LIB/periph/src/stm32f4xx_sdio.c ****   *         This parameter can be: ENABLE or DISABLE.
 668:STM32F4xx_LIB/periph/src/stm32f4xx_sdio.c ****   * @retval None
 669:STM32F4xx_LIB/periph/src/stm32f4xx_sdio.c ****   */
 670:STM32F4xx_LIB/periph/src/stm32f4xx_sdio.c **** void SDIO_SendSDIOSuspendCmd(FunctionalState NewState)
 671:STM32F4xx_LIB/periph/src/stm32f4xx_sdio.c **** { 
 827              		.loc 1 671 1 is_stmt 1 view -0
 828              		.cfi_startproc
 829              		@ args = 0, pretend = 0, frame = 0
 830              		@ frame_needed = 0, uses_anonymous_args = 0
 831              		@ link register save eliminated.
 672:STM32F4xx_LIB/periph/src/stm32f4xx_sdio.c ****   /* Check the parameters */
 673:STM32F4xx_LIB/periph/src/stm32f4xx_sdio.c ****   assert_param(IS_FUNCTIONAL_STATE(NewState));
 832              		.loc 1 673 3 view .LVU197
 674:STM32F4xx_LIB/periph/src/stm32f4xx_sdio.c ****   
 675:STM32F4xx_LIB/periph/src/stm32f4xx_sdio.c ****   *(__IO uint32_t *) CMD_SDIOSUSPEND_BB = (uint32_t)NewState;
 833              		.loc 1 675 3 view .LVU198
 834              		.loc 1 675 41 is_stmt 0 view .LVU199
 835 0000 014B     		ldr	r3, .L59
 836 0002 1860     		str	r0, [r3]
 676:STM32F4xx_LIB/periph/src/stm32f4xx_sdio.c **** }
 837              		.loc 1 676 1 view .LVU200
 838 0004 7047     		bx	lr
 839              	.L60:
 840 0006 00BF     		.align	2
 841              	.L59:
 842 0008 AC812542 		.word	1109754284
ARM GAS  C:\Users\京垓\AppData\Local\Temp\ccmTZYge.s 			page 27


 843              		.cfi_endproc
 844              	.LFE143:
 846              		.section	.text.SDIO_CommandCompletionCmd,"ax",%progbits
 847              		.align	1
 848              		.global	SDIO_CommandCompletionCmd
 849              		.syntax unified
 850              		.thumb
 851              		.thumb_func
 852              		.fpu fpv4-sp-d16
 854              	SDIO_CommandCompletionCmd:
 855              	.LVL35:
 856              	.LFB144:
 677:STM32F4xx_LIB/periph/src/stm32f4xx_sdio.c **** 
 678:STM32F4xx_LIB/periph/src/stm32f4xx_sdio.c **** /**
 679:STM32F4xx_LIB/periph/src/stm32f4xx_sdio.c ****   * @}
 680:STM32F4xx_LIB/periph/src/stm32f4xx_sdio.c ****   */
 681:STM32F4xx_LIB/periph/src/stm32f4xx_sdio.c **** 
 682:STM32F4xx_LIB/periph/src/stm32f4xx_sdio.c **** /** @defgroup SDIO_Group5 CE-ATA mode management functions
 683:STM32F4xx_LIB/periph/src/stm32f4xx_sdio.c ****  *  @brief   CE-ATA mode management functions
 684:STM32F4xx_LIB/periph/src/stm32f4xx_sdio.c ****  *
 685:STM32F4xx_LIB/periph/src/stm32f4xx_sdio.c **** @verbatim   
 686:STM32F4xx_LIB/periph/src/stm32f4xx_sdio.c ****  ===============================================================================
 687:STM32F4xx_LIB/periph/src/stm32f4xx_sdio.c ****                   ##### CE-ATA mode management functions #####
 688:STM32F4xx_LIB/periph/src/stm32f4xx_sdio.c ****  ===============================================================================  
 689:STM32F4xx_LIB/periph/src/stm32f4xx_sdio.c **** 
 690:STM32F4xx_LIB/periph/src/stm32f4xx_sdio.c ****   This section provide functions allowing to program and read the CE-ATA card.
 691:STM32F4xx_LIB/periph/src/stm32f4xx_sdio.c **** 
 692:STM32F4xx_LIB/periph/src/stm32f4xx_sdio.c **** @endverbatim
 693:STM32F4xx_LIB/periph/src/stm32f4xx_sdio.c ****   * @{
 694:STM32F4xx_LIB/periph/src/stm32f4xx_sdio.c ****   */
 695:STM32F4xx_LIB/periph/src/stm32f4xx_sdio.c **** 
 696:STM32F4xx_LIB/periph/src/stm32f4xx_sdio.c **** /**
 697:STM32F4xx_LIB/periph/src/stm32f4xx_sdio.c ****   * @brief  Enables or disables the command completion signal.
 698:STM32F4xx_LIB/periph/src/stm32f4xx_sdio.c ****   * @param  NewState: new state of command completion signal. 
 699:STM32F4xx_LIB/periph/src/stm32f4xx_sdio.c ****   *         This parameter can be: ENABLE or DISABLE.
 700:STM32F4xx_LIB/periph/src/stm32f4xx_sdio.c ****   * @retval None
 701:STM32F4xx_LIB/periph/src/stm32f4xx_sdio.c ****   */
 702:STM32F4xx_LIB/periph/src/stm32f4xx_sdio.c **** void SDIO_CommandCompletionCmd(FunctionalState NewState)
 703:STM32F4xx_LIB/periph/src/stm32f4xx_sdio.c **** { 
 857              		.loc 1 703 1 is_stmt 1 view -0
 858              		.cfi_startproc
 859              		@ args = 0, pretend = 0, frame = 0
 860              		@ frame_needed = 0, uses_anonymous_args = 0
 861              		@ link register save eliminated.
 704:STM32F4xx_LIB/periph/src/stm32f4xx_sdio.c ****   /* Check the parameters */
 705:STM32F4xx_LIB/periph/src/stm32f4xx_sdio.c ****   assert_param(IS_FUNCTIONAL_STATE(NewState));
 862              		.loc 1 705 3 view .LVU202
 706:STM32F4xx_LIB/periph/src/stm32f4xx_sdio.c ****   
 707:STM32F4xx_LIB/periph/src/stm32f4xx_sdio.c ****   *(__IO uint32_t *) CMD_ENCMDCOMPL_BB = (uint32_t)NewState;
 863              		.loc 1 707 3 view .LVU203
 864              		.loc 1 707 40 is_stmt 0 view .LVU204
 865 0000 014B     		ldr	r3, .L62
 866 0002 1860     		str	r0, [r3]
 708:STM32F4xx_LIB/periph/src/stm32f4xx_sdio.c **** }
 867              		.loc 1 708 1 view .LVU205
 868 0004 7047     		bx	lr
 869              	.L63:
ARM GAS  C:\Users\京垓\AppData\Local\Temp\ccmTZYge.s 			page 28


 870 0006 00BF     		.align	2
 871              	.L62:
 872 0008 B0812542 		.word	1109754288
 873              		.cfi_endproc
 874              	.LFE144:
 876              		.section	.text.SDIO_CEATAITCmd,"ax",%progbits
 877              		.align	1
 878              		.global	SDIO_CEATAITCmd
 879              		.syntax unified
 880              		.thumb
 881              		.thumb_func
 882              		.fpu fpv4-sp-d16
 884              	SDIO_CEATAITCmd:
 885              	.LVL36:
 886              	.LFB145:
 709:STM32F4xx_LIB/periph/src/stm32f4xx_sdio.c **** 
 710:STM32F4xx_LIB/periph/src/stm32f4xx_sdio.c **** /**
 711:STM32F4xx_LIB/periph/src/stm32f4xx_sdio.c ****   * @brief  Enables or disables the CE-ATA interrupt.
 712:STM32F4xx_LIB/periph/src/stm32f4xx_sdio.c ****   * @param  NewState: new state of CE-ATA interrupt. 
 713:STM32F4xx_LIB/periph/src/stm32f4xx_sdio.c ****   *         This parameter can be: ENABLE or DISABLE.
 714:STM32F4xx_LIB/periph/src/stm32f4xx_sdio.c ****   * @retval None
 715:STM32F4xx_LIB/periph/src/stm32f4xx_sdio.c ****   */
 716:STM32F4xx_LIB/periph/src/stm32f4xx_sdio.c **** void SDIO_CEATAITCmd(FunctionalState NewState)
 717:STM32F4xx_LIB/periph/src/stm32f4xx_sdio.c **** { 
 887              		.loc 1 717 1 is_stmt 1 view -0
 888              		.cfi_startproc
 889              		@ args = 0, pretend = 0, frame = 0
 890              		@ frame_needed = 0, uses_anonymous_args = 0
 891              		@ link register save eliminated.
 718:STM32F4xx_LIB/periph/src/stm32f4xx_sdio.c ****   /* Check the parameters */
 719:STM32F4xx_LIB/periph/src/stm32f4xx_sdio.c ****   assert_param(IS_FUNCTIONAL_STATE(NewState));
 892              		.loc 1 719 3 view .LVU207
 720:STM32F4xx_LIB/periph/src/stm32f4xx_sdio.c ****   
 721:STM32F4xx_LIB/periph/src/stm32f4xx_sdio.c ****   *(__IO uint32_t *) CMD_NIEN_BB = (uint32_t)((~((uint32_t)NewState)) & ((uint32_t)0x1));
 893              		.loc 1 721 3 view .LVU208
 894              		.loc 1 721 36 is_stmt 0 view .LVU209
 895 0000 80F00100 		eor	r0, r0, #1
 896              	.LVL37:
 897              		.loc 1 721 36 view .LVU210
 898 0004 00F00100 		and	r0, r0, #1
 899              		.loc 1 721 34 view .LVU211
 900 0008 014B     		ldr	r3, .L65
 901 000a 1860     		str	r0, [r3]
 722:STM32F4xx_LIB/periph/src/stm32f4xx_sdio.c **** }
 902              		.loc 1 722 1 view .LVU212
 903 000c 7047     		bx	lr
 904              	.L66:
 905 000e 00BF     		.align	2
 906              	.L65:
 907 0010 B4812542 		.word	1109754292
 908              		.cfi_endproc
 909              	.LFE145:
 911              		.section	.text.SDIO_SendCEATACmd,"ax",%progbits
 912              		.align	1
 913              		.global	SDIO_SendCEATACmd
 914              		.syntax unified
 915              		.thumb
ARM GAS  C:\Users\京垓\AppData\Local\Temp\ccmTZYge.s 			page 29


 916              		.thumb_func
 917              		.fpu fpv4-sp-d16
 919              	SDIO_SendCEATACmd:
 920              	.LVL38:
 921              	.LFB146:
 723:STM32F4xx_LIB/periph/src/stm32f4xx_sdio.c **** 
 724:STM32F4xx_LIB/periph/src/stm32f4xx_sdio.c **** /**
 725:STM32F4xx_LIB/periph/src/stm32f4xx_sdio.c ****   * @brief  Sends CE-ATA command (CMD61).
 726:STM32F4xx_LIB/periph/src/stm32f4xx_sdio.c ****   * @param  NewState: new state of CE-ATA command. 
 727:STM32F4xx_LIB/periph/src/stm32f4xx_sdio.c ****   *         This parameter can be: ENABLE or DISABLE.
 728:STM32F4xx_LIB/periph/src/stm32f4xx_sdio.c ****   * @retval None
 729:STM32F4xx_LIB/periph/src/stm32f4xx_sdio.c ****   */
 730:STM32F4xx_LIB/periph/src/stm32f4xx_sdio.c **** void SDIO_SendCEATACmd(FunctionalState NewState)
 731:STM32F4xx_LIB/periph/src/stm32f4xx_sdio.c **** { 
 922              		.loc 1 731 1 is_stmt 1 view -0
 923              		.cfi_startproc
 924              		@ args = 0, pretend = 0, frame = 0
 925              		@ frame_needed = 0, uses_anonymous_args = 0
 926              		@ link register save eliminated.
 732:STM32F4xx_LIB/periph/src/stm32f4xx_sdio.c ****   /* Check the parameters */
 733:STM32F4xx_LIB/periph/src/stm32f4xx_sdio.c ****   assert_param(IS_FUNCTIONAL_STATE(NewState));
 927              		.loc 1 733 3 view .LVU214
 734:STM32F4xx_LIB/periph/src/stm32f4xx_sdio.c ****   
 735:STM32F4xx_LIB/periph/src/stm32f4xx_sdio.c ****   *(__IO uint32_t *) CMD_ATACMD_BB = (uint32_t)NewState;
 928              		.loc 1 735 3 view .LVU215
 929              		.loc 1 735 36 is_stmt 0 view .LVU216
 930 0000 014B     		ldr	r3, .L68
 931 0002 1860     		str	r0, [r3]
 736:STM32F4xx_LIB/periph/src/stm32f4xx_sdio.c **** }
 932              		.loc 1 736 1 view .LVU217
 933 0004 7047     		bx	lr
 934              	.L69:
 935 0006 00BF     		.align	2
 936              	.L68:
 937 0008 B8812542 		.word	1109754296
 938              		.cfi_endproc
 939              	.LFE146:
 941              		.section	.text.SDIO_DMACmd,"ax",%progbits
 942              		.align	1
 943              		.global	SDIO_DMACmd
 944              		.syntax unified
 945              		.thumb
 946              		.thumb_func
 947              		.fpu fpv4-sp-d16
 949              	SDIO_DMACmd:
 950              	.LVL39:
 951              	.LFB147:
 737:STM32F4xx_LIB/periph/src/stm32f4xx_sdio.c **** 
 738:STM32F4xx_LIB/periph/src/stm32f4xx_sdio.c **** /**
 739:STM32F4xx_LIB/periph/src/stm32f4xx_sdio.c ****   * @}
 740:STM32F4xx_LIB/periph/src/stm32f4xx_sdio.c ****   */
 741:STM32F4xx_LIB/periph/src/stm32f4xx_sdio.c **** 
 742:STM32F4xx_LIB/periph/src/stm32f4xx_sdio.c **** /** @defgroup SDIO_Group6 DMA transfers management functions
 743:STM32F4xx_LIB/periph/src/stm32f4xx_sdio.c ****  *  @brief   DMA transfers management functions
 744:STM32F4xx_LIB/periph/src/stm32f4xx_sdio.c ****  *
 745:STM32F4xx_LIB/periph/src/stm32f4xx_sdio.c **** @verbatim   
 746:STM32F4xx_LIB/periph/src/stm32f4xx_sdio.c ****  ===============================================================================
ARM GAS  C:\Users\京垓\AppData\Local\Temp\ccmTZYge.s 			page 30


 747:STM32F4xx_LIB/periph/src/stm32f4xx_sdio.c ****                   ##### DMA transfers management functions #####
 748:STM32F4xx_LIB/periph/src/stm32f4xx_sdio.c ****  ===============================================================================  
 749:STM32F4xx_LIB/periph/src/stm32f4xx_sdio.c **** 
 750:STM32F4xx_LIB/periph/src/stm32f4xx_sdio.c ****   This section provide functions allowing to program SDIO DMA transfer.
 751:STM32F4xx_LIB/periph/src/stm32f4xx_sdio.c **** 
 752:STM32F4xx_LIB/periph/src/stm32f4xx_sdio.c **** @endverbatim
 753:STM32F4xx_LIB/periph/src/stm32f4xx_sdio.c ****   * @{
 754:STM32F4xx_LIB/periph/src/stm32f4xx_sdio.c ****   */
 755:STM32F4xx_LIB/periph/src/stm32f4xx_sdio.c **** 
 756:STM32F4xx_LIB/periph/src/stm32f4xx_sdio.c **** /**
 757:STM32F4xx_LIB/periph/src/stm32f4xx_sdio.c ****   * @brief  Enables or disables the SDIO DMA request.
 758:STM32F4xx_LIB/periph/src/stm32f4xx_sdio.c ****   * @param  NewState: new state of the selected SDIO DMA request.
 759:STM32F4xx_LIB/periph/src/stm32f4xx_sdio.c ****   *          This parameter can be: ENABLE or DISABLE.
 760:STM32F4xx_LIB/periph/src/stm32f4xx_sdio.c ****   * @retval None
 761:STM32F4xx_LIB/periph/src/stm32f4xx_sdio.c ****   */
 762:STM32F4xx_LIB/periph/src/stm32f4xx_sdio.c **** void SDIO_DMACmd(FunctionalState NewState)
 763:STM32F4xx_LIB/periph/src/stm32f4xx_sdio.c **** {
 952              		.loc 1 763 1 is_stmt 1 view -0
 953              		.cfi_startproc
 954              		@ args = 0, pretend = 0, frame = 0
 955              		@ frame_needed = 0, uses_anonymous_args = 0
 956              		@ link register save eliminated.
 764:STM32F4xx_LIB/periph/src/stm32f4xx_sdio.c ****   /* Check the parameters */
 765:STM32F4xx_LIB/periph/src/stm32f4xx_sdio.c ****   assert_param(IS_FUNCTIONAL_STATE(NewState));
 957              		.loc 1 765 3 view .LVU219
 766:STM32F4xx_LIB/periph/src/stm32f4xx_sdio.c ****   
 767:STM32F4xx_LIB/periph/src/stm32f4xx_sdio.c ****   *(__IO uint32_t *) DCTRL_DMAEN_BB = (uint32_t)NewState;
 958              		.loc 1 767 3 view .LVU220
 959              		.loc 1 767 37 is_stmt 0 view .LVU221
 960 0000 014B     		ldr	r3, .L71
 961 0002 1860     		str	r0, [r3]
 768:STM32F4xx_LIB/periph/src/stm32f4xx_sdio.c **** }
 962              		.loc 1 768 1 view .LVU222
 963 0004 7047     		bx	lr
 964              	.L72:
 965 0006 00BF     		.align	2
 966              	.L71:
 967 0008 8C852542 		.word	1109755276
 968              		.cfi_endproc
 969              	.LFE147:
 971              		.section	.text.SDIO_ITConfig,"ax",%progbits
 972              		.align	1
 973              		.global	SDIO_ITConfig
 974              		.syntax unified
 975              		.thumb
 976              		.thumb_func
 977              		.fpu fpv4-sp-d16
 979              	SDIO_ITConfig:
 980              	.LVL40:
 981              	.LFB148:
 769:STM32F4xx_LIB/periph/src/stm32f4xx_sdio.c **** 
 770:STM32F4xx_LIB/periph/src/stm32f4xx_sdio.c **** /**
 771:STM32F4xx_LIB/periph/src/stm32f4xx_sdio.c ****   * @}
 772:STM32F4xx_LIB/periph/src/stm32f4xx_sdio.c ****   */
 773:STM32F4xx_LIB/periph/src/stm32f4xx_sdio.c **** 
 774:STM32F4xx_LIB/periph/src/stm32f4xx_sdio.c **** /** @defgroup SDIO_Group7 Interrupts and flags management functions
 775:STM32F4xx_LIB/periph/src/stm32f4xx_sdio.c ****  *  @brief   Interrupts and flags management functions  
ARM GAS  C:\Users\京垓\AppData\Local\Temp\ccmTZYge.s 			page 31


 776:STM32F4xx_LIB/periph/src/stm32f4xx_sdio.c ****  *
 777:STM32F4xx_LIB/periph/src/stm32f4xx_sdio.c **** @verbatim   
 778:STM32F4xx_LIB/periph/src/stm32f4xx_sdio.c ****  ===============================================================================
 779:STM32F4xx_LIB/periph/src/stm32f4xx_sdio.c ****               ##### Interrupts and flags management functions #####
 780:STM32F4xx_LIB/periph/src/stm32f4xx_sdio.c ****  ===============================================================================  
 781:STM32F4xx_LIB/periph/src/stm32f4xx_sdio.c **** 
 782:STM32F4xx_LIB/periph/src/stm32f4xx_sdio.c **** 
 783:STM32F4xx_LIB/periph/src/stm32f4xx_sdio.c **** @endverbatim
 784:STM32F4xx_LIB/periph/src/stm32f4xx_sdio.c ****   * @{
 785:STM32F4xx_LIB/periph/src/stm32f4xx_sdio.c ****   */
 786:STM32F4xx_LIB/periph/src/stm32f4xx_sdio.c **** 
 787:STM32F4xx_LIB/periph/src/stm32f4xx_sdio.c **** /**
 788:STM32F4xx_LIB/periph/src/stm32f4xx_sdio.c ****   * @brief  Enables or disables the SDIO interrupts.
 789:STM32F4xx_LIB/periph/src/stm32f4xx_sdio.c ****   * @param  SDIO_IT: specifies the SDIO interrupt sources to be enabled or disabled.
 790:STM32F4xx_LIB/periph/src/stm32f4xx_sdio.c ****   *          This parameter can be one or a combination of the following values:
 791:STM32F4xx_LIB/periph/src/stm32f4xx_sdio.c ****   *            @arg SDIO_IT_CCRCFAIL: Command response received (CRC check failed) interrupt
 792:STM32F4xx_LIB/periph/src/stm32f4xx_sdio.c ****   *            @arg SDIO_IT_DCRCFAIL: Data block sent/received (CRC check failed) interrupt
 793:STM32F4xx_LIB/periph/src/stm32f4xx_sdio.c ****   *            @arg SDIO_IT_CTIMEOUT: Command response timeout interrupt
 794:STM32F4xx_LIB/periph/src/stm32f4xx_sdio.c ****   *            @arg SDIO_IT_DTIMEOUT: Data timeout interrupt
 795:STM32F4xx_LIB/periph/src/stm32f4xx_sdio.c ****   *            @arg SDIO_IT_TXUNDERR: Transmit FIFO underrun error interrupt
 796:STM32F4xx_LIB/periph/src/stm32f4xx_sdio.c ****   *            @arg SDIO_IT_RXOVERR:  Received FIFO overrun error interrupt
 797:STM32F4xx_LIB/periph/src/stm32f4xx_sdio.c ****   *            @arg SDIO_IT_CMDREND:  Command response received (CRC check passed) interrupt
 798:STM32F4xx_LIB/periph/src/stm32f4xx_sdio.c ****   *            @arg SDIO_IT_CMDSENT:  Command sent (no response required) interrupt
 799:STM32F4xx_LIB/periph/src/stm32f4xx_sdio.c ****   *            @arg SDIO_IT_DATAEND:  Data end (data counter, SDIDCOUNT, is zero) interrupt
 800:STM32F4xx_LIB/periph/src/stm32f4xx_sdio.c ****   *            @arg SDIO_IT_STBITERR: Start bit not detected on all data signals in wide 
 801:STM32F4xx_LIB/periph/src/stm32f4xx_sdio.c ****   *                                   bus mode interrupt
 802:STM32F4xx_LIB/periph/src/stm32f4xx_sdio.c ****   *            @arg SDIO_IT_DBCKEND:  Data block sent/received (CRC check passed) interrupt
 803:STM32F4xx_LIB/periph/src/stm32f4xx_sdio.c ****   *            @arg SDIO_IT_CMDACT:   Command transfer in progress interrupt
 804:STM32F4xx_LIB/periph/src/stm32f4xx_sdio.c ****   *            @arg SDIO_IT_TXACT:    Data transmit in progress interrupt
 805:STM32F4xx_LIB/periph/src/stm32f4xx_sdio.c ****   *            @arg SDIO_IT_RXACT:    Data receive in progress interrupt
 806:STM32F4xx_LIB/periph/src/stm32f4xx_sdio.c ****   *            @arg SDIO_IT_TXFIFOHE: Transmit FIFO Half Empty interrupt
 807:STM32F4xx_LIB/periph/src/stm32f4xx_sdio.c ****   *            @arg SDIO_IT_RXFIFOHF: Receive FIFO Half Full interrupt
 808:STM32F4xx_LIB/periph/src/stm32f4xx_sdio.c ****   *            @arg SDIO_IT_TXFIFOF:  Transmit FIFO full interrupt
 809:STM32F4xx_LIB/periph/src/stm32f4xx_sdio.c ****   *            @arg SDIO_IT_RXFIFOF:  Receive FIFO full interrupt
 810:STM32F4xx_LIB/periph/src/stm32f4xx_sdio.c ****   *            @arg SDIO_IT_TXFIFOE:  Transmit FIFO empty interrupt
 811:STM32F4xx_LIB/periph/src/stm32f4xx_sdio.c ****   *            @arg SDIO_IT_RXFIFOE:  Receive FIFO empty interrupt
 812:STM32F4xx_LIB/periph/src/stm32f4xx_sdio.c ****   *            @arg SDIO_IT_TXDAVL:   Data available in transmit FIFO interrupt
 813:STM32F4xx_LIB/periph/src/stm32f4xx_sdio.c ****   *            @arg SDIO_IT_RXDAVL:   Data available in receive FIFO interrupt
 814:STM32F4xx_LIB/periph/src/stm32f4xx_sdio.c ****   *            @arg SDIO_IT_SDIOIT:   SD I/O interrupt received interrupt
 815:STM32F4xx_LIB/periph/src/stm32f4xx_sdio.c ****   *            @arg SDIO_IT_CEATAEND: CE-ATA command completion signal received for CMD61 interrupt
 816:STM32F4xx_LIB/periph/src/stm32f4xx_sdio.c ****   * @param  NewState: new state of the specified SDIO interrupts.
 817:STM32F4xx_LIB/periph/src/stm32f4xx_sdio.c ****   *          This parameter can be: ENABLE or DISABLE.
 818:STM32F4xx_LIB/periph/src/stm32f4xx_sdio.c ****   * @retval None 
 819:STM32F4xx_LIB/periph/src/stm32f4xx_sdio.c ****   */
 820:STM32F4xx_LIB/periph/src/stm32f4xx_sdio.c **** void SDIO_ITConfig(uint32_t SDIO_IT, FunctionalState NewState)
 821:STM32F4xx_LIB/periph/src/stm32f4xx_sdio.c **** {
 982              		.loc 1 821 1 is_stmt 1 view -0
 983              		.cfi_startproc
 984              		@ args = 0, pretend = 0, frame = 0
 985              		@ frame_needed = 0, uses_anonymous_args = 0
 986              		@ link register save eliminated.
 822:STM32F4xx_LIB/periph/src/stm32f4xx_sdio.c ****   /* Check the parameters */
 823:STM32F4xx_LIB/periph/src/stm32f4xx_sdio.c ****   assert_param(IS_SDIO_IT(SDIO_IT));
 987              		.loc 1 823 3 view .LVU224
 824:STM32F4xx_LIB/periph/src/stm32f4xx_sdio.c ****   assert_param(IS_FUNCTIONAL_STATE(NewState));
 988              		.loc 1 824 3 view .LVU225
 825:STM32F4xx_LIB/periph/src/stm32f4xx_sdio.c ****   
ARM GAS  C:\Users\京垓\AppData\Local\Temp\ccmTZYge.s 			page 32


 826:STM32F4xx_LIB/periph/src/stm32f4xx_sdio.c ****   if (NewState != DISABLE)
 989              		.loc 1 826 3 view .LVU226
 990              		.loc 1 826 6 is_stmt 0 view .LVU227
 991 0000 21B1     		cbz	r1, .L74
 827:STM32F4xx_LIB/periph/src/stm32f4xx_sdio.c ****   {
 828:STM32F4xx_LIB/periph/src/stm32f4xx_sdio.c ****     /* Enable the SDIO interrupts */
 829:STM32F4xx_LIB/periph/src/stm32f4xx_sdio.c ****     SDIO->MASK |= SDIO_IT;
 992              		.loc 1 829 5 is_stmt 1 view .LVU228
 993              		.loc 1 829 16 is_stmt 0 view .LVU229
 994 0002 054A     		ldr	r2, .L76
 995 0004 D36B     		ldr	r3, [r2, #60]
 996 0006 1843     		orrs	r0, r0, r3
 997              	.LVL41:
 998              		.loc 1 829 16 view .LVU230
 999 0008 D063     		str	r0, [r2, #60]
 1000 000a 7047     		bx	lr
 1001              	.LVL42:
 1002              	.L74:
 830:STM32F4xx_LIB/periph/src/stm32f4xx_sdio.c ****   }
 831:STM32F4xx_LIB/periph/src/stm32f4xx_sdio.c ****   else
 832:STM32F4xx_LIB/periph/src/stm32f4xx_sdio.c ****   {
 833:STM32F4xx_LIB/periph/src/stm32f4xx_sdio.c ****     /* Disable the SDIO interrupts */
 834:STM32F4xx_LIB/periph/src/stm32f4xx_sdio.c ****     SDIO->MASK &= ~SDIO_IT;
 1003              		.loc 1 834 5 is_stmt 1 view .LVU231
 1004              		.loc 1 834 16 is_stmt 0 view .LVU232
 1005 000c 024A     		ldr	r2, .L76
 1006 000e D36B     		ldr	r3, [r2, #60]
 1007 0010 23EA0000 		bic	r0, r3, r0
 1008              	.LVL43:
 1009              		.loc 1 834 16 view .LVU233
 1010 0014 D063     		str	r0, [r2, #60]
 835:STM32F4xx_LIB/periph/src/stm32f4xx_sdio.c ****   } 
 836:STM32F4xx_LIB/periph/src/stm32f4xx_sdio.c **** }
 1011              		.loc 1 836 1 view .LVU234
 1012 0016 7047     		bx	lr
 1013              	.L77:
 1014              		.align	2
 1015              	.L76:
 1016 0018 002C0140 		.word	1073818624
 1017              		.cfi_endproc
 1018              	.LFE148:
 1020              		.section	.text.SDIO_GetFlagStatus,"ax",%progbits
 1021              		.align	1
 1022              		.global	SDIO_GetFlagStatus
 1023              		.syntax unified
 1024              		.thumb
 1025              		.thumb_func
 1026              		.fpu fpv4-sp-d16
 1028              	SDIO_GetFlagStatus:
 1029              	.LVL44:
 1030              	.LFB149:
 837:STM32F4xx_LIB/periph/src/stm32f4xx_sdio.c **** 
 838:STM32F4xx_LIB/periph/src/stm32f4xx_sdio.c **** /**
 839:STM32F4xx_LIB/periph/src/stm32f4xx_sdio.c ****   * @brief  Checks whether the specified SDIO flag is set or not.
 840:STM32F4xx_LIB/periph/src/stm32f4xx_sdio.c ****   * @param  SDIO_FLAG: specifies the flag to check. 
 841:STM32F4xx_LIB/periph/src/stm32f4xx_sdio.c ****   *          This parameter can be one of the following values:
 842:STM32F4xx_LIB/periph/src/stm32f4xx_sdio.c ****   *            @arg SDIO_FLAG_CCRCFAIL: Command response received (CRC check failed)
ARM GAS  C:\Users\京垓\AppData\Local\Temp\ccmTZYge.s 			page 33


 843:STM32F4xx_LIB/periph/src/stm32f4xx_sdio.c ****   *            @arg SDIO_FLAG_DCRCFAIL: Data block sent/received (CRC check failed)
 844:STM32F4xx_LIB/periph/src/stm32f4xx_sdio.c ****   *            @arg SDIO_FLAG_CTIMEOUT: Command response timeout
 845:STM32F4xx_LIB/periph/src/stm32f4xx_sdio.c ****   *            @arg SDIO_FLAG_DTIMEOUT: Data timeout
 846:STM32F4xx_LIB/periph/src/stm32f4xx_sdio.c ****   *            @arg SDIO_FLAG_TXUNDERR: Transmit FIFO underrun error
 847:STM32F4xx_LIB/periph/src/stm32f4xx_sdio.c ****   *            @arg SDIO_FLAG_RXOVERR:  Received FIFO overrun error
 848:STM32F4xx_LIB/periph/src/stm32f4xx_sdio.c ****   *            @arg SDIO_FLAG_CMDREND:  Command response received (CRC check passed)
 849:STM32F4xx_LIB/periph/src/stm32f4xx_sdio.c ****   *            @arg SDIO_FLAG_CMDSENT:  Command sent (no response required)
 850:STM32F4xx_LIB/periph/src/stm32f4xx_sdio.c ****   *            @arg SDIO_FLAG_DATAEND:  Data end (data counter, SDIDCOUNT, is zero)
 851:STM32F4xx_LIB/periph/src/stm32f4xx_sdio.c ****   *            @arg SDIO_FLAG_STBITERR: Start bit not detected on all data signals in wide bus mode
 852:STM32F4xx_LIB/periph/src/stm32f4xx_sdio.c ****   *            @arg SDIO_FLAG_DBCKEND:  Data block sent/received (CRC check passed)
 853:STM32F4xx_LIB/periph/src/stm32f4xx_sdio.c ****   *            @arg SDIO_FLAG_CMDACT:   Command transfer in progress
 854:STM32F4xx_LIB/periph/src/stm32f4xx_sdio.c ****   *            @arg SDIO_FLAG_TXACT:    Data transmit in progress
 855:STM32F4xx_LIB/periph/src/stm32f4xx_sdio.c ****   *            @arg SDIO_FLAG_RXACT:    Data receive in progress
 856:STM32F4xx_LIB/periph/src/stm32f4xx_sdio.c ****   *            @arg SDIO_FLAG_TXFIFOHE: Transmit FIFO Half Empty
 857:STM32F4xx_LIB/periph/src/stm32f4xx_sdio.c ****   *            @arg SDIO_FLAG_RXFIFOHF: Receive FIFO Half Full
 858:STM32F4xx_LIB/periph/src/stm32f4xx_sdio.c ****   *            @arg SDIO_FLAG_TXFIFOF:  Transmit FIFO full
 859:STM32F4xx_LIB/periph/src/stm32f4xx_sdio.c ****   *            @arg SDIO_FLAG_RXFIFOF:  Receive FIFO full
 860:STM32F4xx_LIB/periph/src/stm32f4xx_sdio.c ****   *            @arg SDIO_FLAG_TXFIFOE:  Transmit FIFO empty
 861:STM32F4xx_LIB/periph/src/stm32f4xx_sdio.c ****   *            @arg SDIO_FLAG_RXFIFOE:  Receive FIFO empty
 862:STM32F4xx_LIB/periph/src/stm32f4xx_sdio.c ****   *            @arg SDIO_FLAG_TXDAVL:   Data available in transmit FIFO
 863:STM32F4xx_LIB/periph/src/stm32f4xx_sdio.c ****   *            @arg SDIO_FLAG_RXDAVL:   Data available in receive FIFO
 864:STM32F4xx_LIB/periph/src/stm32f4xx_sdio.c ****   *            @arg SDIO_FLAG_SDIOIT:   SD I/O interrupt received
 865:STM32F4xx_LIB/periph/src/stm32f4xx_sdio.c ****   *            @arg SDIO_FLAG_CEATAEND: CE-ATA command completion signal received for CMD61
 866:STM32F4xx_LIB/periph/src/stm32f4xx_sdio.c ****   * @retval The new state of SDIO_FLAG (SET or RESET).
 867:STM32F4xx_LIB/periph/src/stm32f4xx_sdio.c ****   */
 868:STM32F4xx_LIB/periph/src/stm32f4xx_sdio.c **** FlagStatus SDIO_GetFlagStatus(uint32_t SDIO_FLAG)
 869:STM32F4xx_LIB/periph/src/stm32f4xx_sdio.c **** { 
 1031              		.loc 1 869 1 is_stmt 1 view -0
 1032              		.cfi_startproc
 1033              		@ args = 0, pretend = 0, frame = 0
 1034              		@ frame_needed = 0, uses_anonymous_args = 0
 1035              		@ link register save eliminated.
 870:STM32F4xx_LIB/periph/src/stm32f4xx_sdio.c ****   FlagStatus bitstatus = RESET;
 1036              		.loc 1 870 3 view .LVU236
 871:STM32F4xx_LIB/periph/src/stm32f4xx_sdio.c ****   
 872:STM32F4xx_LIB/periph/src/stm32f4xx_sdio.c ****   /* Check the parameters */
 873:STM32F4xx_LIB/periph/src/stm32f4xx_sdio.c ****   assert_param(IS_SDIO_FLAG(SDIO_FLAG));
 1037              		.loc 1 873 3 view .LVU237
 874:STM32F4xx_LIB/periph/src/stm32f4xx_sdio.c ****   
 875:STM32F4xx_LIB/periph/src/stm32f4xx_sdio.c ****   if ((SDIO->STA & SDIO_FLAG) != (uint32_t)RESET)
 1038              		.loc 1 875 3 view .LVU238
 1039              		.loc 1 875 12 is_stmt 0 view .LVU239
 1040 0000 034B     		ldr	r3, .L81
 1041 0002 5B6B     		ldr	r3, [r3, #52]
 1042              		.loc 1 875 6 view .LVU240
 1043 0004 0342     		tst	r3, r0
 1044 0006 01D0     		beq	.L80
 876:STM32F4xx_LIB/periph/src/stm32f4xx_sdio.c ****   {
 877:STM32F4xx_LIB/periph/src/stm32f4xx_sdio.c ****     bitstatus = SET;
 1045              		.loc 1 877 15 view .LVU241
 1046 0008 0120     		movs	r0, #1
 1047              	.LVL45:
 1048              		.loc 1 877 15 view .LVU242
 1049 000a 7047     		bx	lr
 1050              	.LVL46:
 1051              	.L80:
 878:STM32F4xx_LIB/periph/src/stm32f4xx_sdio.c ****   }
ARM GAS  C:\Users\京垓\AppData\Local\Temp\ccmTZYge.s 			page 34


 879:STM32F4xx_LIB/periph/src/stm32f4xx_sdio.c ****   else
 880:STM32F4xx_LIB/periph/src/stm32f4xx_sdio.c ****   {
 881:STM32F4xx_LIB/periph/src/stm32f4xx_sdio.c ****     bitstatus = RESET;
 1052              		.loc 1 881 15 view .LVU243
 1053 000c 0020     		movs	r0, #0
 1054              	.LVL47:
 882:STM32F4xx_LIB/periph/src/stm32f4xx_sdio.c ****   }
 883:STM32F4xx_LIB/periph/src/stm32f4xx_sdio.c ****   return bitstatus;
 1055              		.loc 1 883 3 is_stmt 1 view .LVU244
 884:STM32F4xx_LIB/periph/src/stm32f4xx_sdio.c **** }
 1056              		.loc 1 884 1 is_stmt 0 view .LVU245
 1057 000e 7047     		bx	lr
 1058              	.L82:
 1059              		.align	2
 1060              	.L81:
 1061 0010 002C0140 		.word	1073818624
 1062              		.cfi_endproc
 1063              	.LFE149:
 1065              		.section	.text.SDIO_ClearFlag,"ax",%progbits
 1066              		.align	1
 1067              		.global	SDIO_ClearFlag
 1068              		.syntax unified
 1069              		.thumb
 1070              		.thumb_func
 1071              		.fpu fpv4-sp-d16
 1073              	SDIO_ClearFlag:
 1074              	.LVL48:
 1075              	.LFB150:
 885:STM32F4xx_LIB/periph/src/stm32f4xx_sdio.c **** 
 886:STM32F4xx_LIB/periph/src/stm32f4xx_sdio.c **** /**
 887:STM32F4xx_LIB/periph/src/stm32f4xx_sdio.c ****   * @brief  Clears the SDIO's pending flags.
 888:STM32F4xx_LIB/periph/src/stm32f4xx_sdio.c ****   * @param  SDIO_FLAG: specifies the flag to clear.  
 889:STM32F4xx_LIB/periph/src/stm32f4xx_sdio.c ****   *          This parameter can be one or a combination of the following values:
 890:STM32F4xx_LIB/periph/src/stm32f4xx_sdio.c ****   *            @arg SDIO_FLAG_CCRCFAIL: Command response received (CRC check failed)
 891:STM32F4xx_LIB/periph/src/stm32f4xx_sdio.c ****   *            @arg SDIO_FLAG_DCRCFAIL: Data block sent/received (CRC check failed)
 892:STM32F4xx_LIB/periph/src/stm32f4xx_sdio.c ****   *            @arg SDIO_FLAG_CTIMEOUT: Command response timeout
 893:STM32F4xx_LIB/periph/src/stm32f4xx_sdio.c ****   *            @arg SDIO_FLAG_DTIMEOUT: Data timeout
 894:STM32F4xx_LIB/periph/src/stm32f4xx_sdio.c ****   *            @arg SDIO_FLAG_TXUNDERR: Transmit FIFO underrun error
 895:STM32F4xx_LIB/periph/src/stm32f4xx_sdio.c ****   *            @arg SDIO_FLAG_RXOVERR:  Received FIFO overrun error
 896:STM32F4xx_LIB/periph/src/stm32f4xx_sdio.c ****   *            @arg SDIO_FLAG_CMDREND:  Command response received (CRC check passed)
 897:STM32F4xx_LIB/periph/src/stm32f4xx_sdio.c ****   *            @arg SDIO_FLAG_CMDSENT:  Command sent (no response required)
 898:STM32F4xx_LIB/periph/src/stm32f4xx_sdio.c ****   *            @arg SDIO_FLAG_DATAEND:  Data end (data counter, SDIDCOUNT, is zero)
 899:STM32F4xx_LIB/periph/src/stm32f4xx_sdio.c ****   *            @arg SDIO_FLAG_STBITERR: Start bit not detected on all data signals in wide bus mode
 900:STM32F4xx_LIB/periph/src/stm32f4xx_sdio.c ****   *            @arg SDIO_FLAG_DBCKEND:  Data block sent/received (CRC check passed)
 901:STM32F4xx_LIB/periph/src/stm32f4xx_sdio.c ****   *            @arg SDIO_FLAG_SDIOIT:   SD I/O interrupt received
 902:STM32F4xx_LIB/periph/src/stm32f4xx_sdio.c ****   *            @arg SDIO_FLAG_CEATAEND: CE-ATA command completion signal received for CMD61
 903:STM32F4xx_LIB/periph/src/stm32f4xx_sdio.c ****   * @retval None
 904:STM32F4xx_LIB/periph/src/stm32f4xx_sdio.c ****   */
 905:STM32F4xx_LIB/periph/src/stm32f4xx_sdio.c **** void SDIO_ClearFlag(uint32_t SDIO_FLAG)
 906:STM32F4xx_LIB/periph/src/stm32f4xx_sdio.c **** { 
 1076              		.loc 1 906 1 is_stmt 1 view -0
 1077              		.cfi_startproc
 1078              		@ args = 0, pretend = 0, frame = 0
 1079              		@ frame_needed = 0, uses_anonymous_args = 0
 1080              		@ link register save eliminated.
 907:STM32F4xx_LIB/periph/src/stm32f4xx_sdio.c ****   /* Check the parameters */
 908:STM32F4xx_LIB/periph/src/stm32f4xx_sdio.c ****   assert_param(IS_SDIO_CLEAR_FLAG(SDIO_FLAG));
ARM GAS  C:\Users\京垓\AppData\Local\Temp\ccmTZYge.s 			page 35


 1081              		.loc 1 908 3 view .LVU247
 909:STM32F4xx_LIB/periph/src/stm32f4xx_sdio.c ****    
 910:STM32F4xx_LIB/periph/src/stm32f4xx_sdio.c ****   SDIO->ICR = SDIO_FLAG;
 1082              		.loc 1 910 3 view .LVU248
 1083              		.loc 1 910 13 is_stmt 0 view .LVU249
 1084 0000 014B     		ldr	r3, .L84
 1085 0002 9863     		str	r0, [r3, #56]
 911:STM32F4xx_LIB/periph/src/stm32f4xx_sdio.c **** }
 1086              		.loc 1 911 1 view .LVU250
 1087 0004 7047     		bx	lr
 1088              	.L85:
 1089 0006 00BF     		.align	2
 1090              	.L84:
 1091 0008 002C0140 		.word	1073818624
 1092              		.cfi_endproc
 1093              	.LFE150:
 1095              		.section	.text.SDIO_GetITStatus,"ax",%progbits
 1096              		.align	1
 1097              		.global	SDIO_GetITStatus
 1098              		.syntax unified
 1099              		.thumb
 1100              		.thumb_func
 1101              		.fpu fpv4-sp-d16
 1103              	SDIO_GetITStatus:
 1104              	.LVL49:
 1105              	.LFB151:
 912:STM32F4xx_LIB/periph/src/stm32f4xx_sdio.c **** 
 913:STM32F4xx_LIB/periph/src/stm32f4xx_sdio.c **** /**
 914:STM32F4xx_LIB/periph/src/stm32f4xx_sdio.c ****   * @brief  Checks whether the specified SDIO interrupt has occurred or not.
 915:STM32F4xx_LIB/periph/src/stm32f4xx_sdio.c ****   * @param  SDIO_IT: specifies the SDIO interrupt source to check. 
 916:STM32F4xx_LIB/periph/src/stm32f4xx_sdio.c ****   *          This parameter can be one of the following values:
 917:STM32F4xx_LIB/periph/src/stm32f4xx_sdio.c ****   *            @arg SDIO_IT_CCRCFAIL: Command response received (CRC check failed) interrupt
 918:STM32F4xx_LIB/periph/src/stm32f4xx_sdio.c ****   *            @arg SDIO_IT_DCRCFAIL: Data block sent/received (CRC check failed) interrupt
 919:STM32F4xx_LIB/periph/src/stm32f4xx_sdio.c ****   *            @arg SDIO_IT_CTIMEOUT: Command response timeout interrupt
 920:STM32F4xx_LIB/periph/src/stm32f4xx_sdio.c ****   *            @arg SDIO_IT_DTIMEOUT: Data timeout interrupt
 921:STM32F4xx_LIB/periph/src/stm32f4xx_sdio.c ****   *            @arg SDIO_IT_TXUNDERR: Transmit FIFO underrun error interrupt
 922:STM32F4xx_LIB/periph/src/stm32f4xx_sdio.c ****   *            @arg SDIO_IT_RXOVERR:  Received FIFO overrun error interrupt
 923:STM32F4xx_LIB/periph/src/stm32f4xx_sdio.c ****   *            @arg SDIO_IT_CMDREND:  Command response received (CRC check passed) interrupt
 924:STM32F4xx_LIB/periph/src/stm32f4xx_sdio.c ****   *            @arg SDIO_IT_CMDSENT:  Command sent (no response required) interrupt
 925:STM32F4xx_LIB/periph/src/stm32f4xx_sdio.c ****   *            @arg SDIO_IT_DATAEND:  Data end (data counter, SDIDCOUNT, is zero) interrupt
 926:STM32F4xx_LIB/periph/src/stm32f4xx_sdio.c ****   *            @arg SDIO_IT_STBITERR: Start bit not detected on all data signals in wide 
 927:STM32F4xx_LIB/periph/src/stm32f4xx_sdio.c ****   *                                   bus mode interrupt
 928:STM32F4xx_LIB/periph/src/stm32f4xx_sdio.c ****   *            @arg SDIO_IT_DBCKEND:  Data block sent/received (CRC check passed) interrupt
 929:STM32F4xx_LIB/periph/src/stm32f4xx_sdio.c ****   *            @arg SDIO_IT_CMDACT:   Command transfer in progress interrupt
 930:STM32F4xx_LIB/periph/src/stm32f4xx_sdio.c ****   *            @arg SDIO_IT_TXACT:    Data transmit in progress interrupt
 931:STM32F4xx_LIB/periph/src/stm32f4xx_sdio.c ****   *            @arg SDIO_IT_RXACT:    Data receive in progress interrupt
 932:STM32F4xx_LIB/periph/src/stm32f4xx_sdio.c ****   *            @arg SDIO_IT_TXFIFOHE: Transmit FIFO Half Empty interrupt
 933:STM32F4xx_LIB/periph/src/stm32f4xx_sdio.c ****   *            @arg SDIO_IT_RXFIFOHF: Receive FIFO Half Full interrupt
 934:STM32F4xx_LIB/periph/src/stm32f4xx_sdio.c ****   *            @arg SDIO_IT_TXFIFOF:  Transmit FIFO full interrupt
 935:STM32F4xx_LIB/periph/src/stm32f4xx_sdio.c ****   *            @arg SDIO_IT_RXFIFOF:  Receive FIFO full interrupt
 936:STM32F4xx_LIB/periph/src/stm32f4xx_sdio.c ****   *            @arg SDIO_IT_TXFIFOE:  Transmit FIFO empty interrupt
 937:STM32F4xx_LIB/periph/src/stm32f4xx_sdio.c ****   *            @arg SDIO_IT_RXFIFOE:  Receive FIFO empty interrupt
 938:STM32F4xx_LIB/periph/src/stm32f4xx_sdio.c ****   *            @arg SDIO_IT_TXDAVL:   Data available in transmit FIFO interrupt
 939:STM32F4xx_LIB/periph/src/stm32f4xx_sdio.c ****   *            @arg SDIO_IT_RXDAVL:   Data available in receive FIFO interrupt
 940:STM32F4xx_LIB/periph/src/stm32f4xx_sdio.c ****   *            @arg SDIO_IT_SDIOIT:   SD I/O interrupt received interrupt
 941:STM32F4xx_LIB/periph/src/stm32f4xx_sdio.c ****   *            @arg SDIO_IT_CEATAEND: CE-ATA command completion signal received for CMD61 interrupt
 942:STM32F4xx_LIB/periph/src/stm32f4xx_sdio.c ****   * @retval The new state of SDIO_IT (SET or RESET).
ARM GAS  C:\Users\京垓\AppData\Local\Temp\ccmTZYge.s 			page 36


 943:STM32F4xx_LIB/periph/src/stm32f4xx_sdio.c ****   */
 944:STM32F4xx_LIB/periph/src/stm32f4xx_sdio.c **** ITStatus SDIO_GetITStatus(uint32_t SDIO_IT)
 945:STM32F4xx_LIB/periph/src/stm32f4xx_sdio.c **** { 
 1106              		.loc 1 945 1 is_stmt 1 view -0
 1107              		.cfi_startproc
 1108              		@ args = 0, pretend = 0, frame = 0
 1109              		@ frame_needed = 0, uses_anonymous_args = 0
 1110              		@ link register save eliminated.
 946:STM32F4xx_LIB/periph/src/stm32f4xx_sdio.c ****   ITStatus bitstatus = RESET;
 1111              		.loc 1 946 3 view .LVU252
 947:STM32F4xx_LIB/periph/src/stm32f4xx_sdio.c ****   
 948:STM32F4xx_LIB/periph/src/stm32f4xx_sdio.c ****   /* Check the parameters */
 949:STM32F4xx_LIB/periph/src/stm32f4xx_sdio.c ****   assert_param(IS_SDIO_GET_IT(SDIO_IT));
 1112              		.loc 1 949 3 view .LVU253
 950:STM32F4xx_LIB/periph/src/stm32f4xx_sdio.c ****   if ((SDIO->STA & SDIO_IT) != (uint32_t)RESET)  
 1113              		.loc 1 950 3 view .LVU254
 1114              		.loc 1 950 12 is_stmt 0 view .LVU255
 1115 0000 034B     		ldr	r3, .L89
 1116 0002 5B6B     		ldr	r3, [r3, #52]
 1117              		.loc 1 950 6 view .LVU256
 1118 0004 0342     		tst	r3, r0
 1119 0006 01D0     		beq	.L88
 951:STM32F4xx_LIB/periph/src/stm32f4xx_sdio.c ****   {
 952:STM32F4xx_LIB/periph/src/stm32f4xx_sdio.c ****     bitstatus = SET;
 1120              		.loc 1 952 15 view .LVU257
 1121 0008 0120     		movs	r0, #1
 1122              	.LVL50:
 1123              		.loc 1 952 15 view .LVU258
 1124 000a 7047     		bx	lr
 1125              	.LVL51:
 1126              	.L88:
 953:STM32F4xx_LIB/periph/src/stm32f4xx_sdio.c ****   }
 954:STM32F4xx_LIB/periph/src/stm32f4xx_sdio.c ****   else
 955:STM32F4xx_LIB/periph/src/stm32f4xx_sdio.c ****   {
 956:STM32F4xx_LIB/periph/src/stm32f4xx_sdio.c ****     bitstatus = RESET;
 1127              		.loc 1 956 15 view .LVU259
 1128 000c 0020     		movs	r0, #0
 1129              	.LVL52:
 957:STM32F4xx_LIB/periph/src/stm32f4xx_sdio.c ****   }
 958:STM32F4xx_LIB/periph/src/stm32f4xx_sdio.c ****   return bitstatus;
 1130              		.loc 1 958 3 is_stmt 1 view .LVU260
 959:STM32F4xx_LIB/periph/src/stm32f4xx_sdio.c **** }
 1131              		.loc 1 959 1 is_stmt 0 view .LVU261
 1132 000e 7047     		bx	lr
 1133              	.L90:
 1134              		.align	2
 1135              	.L89:
 1136 0010 002C0140 		.word	1073818624
 1137              		.cfi_endproc
 1138              	.LFE151:
 1140              		.section	.text.SDIO_ClearITPendingBit,"ax",%progbits
 1141              		.align	1
 1142              		.global	SDIO_ClearITPendingBit
 1143              		.syntax unified
 1144              		.thumb
 1145              		.thumb_func
 1146              		.fpu fpv4-sp-d16
ARM GAS  C:\Users\京垓\AppData\Local\Temp\ccmTZYge.s 			page 37


 1148              	SDIO_ClearITPendingBit:
 1149              	.LVL53:
 1150              	.LFB152:
 960:STM32F4xx_LIB/periph/src/stm32f4xx_sdio.c **** 
 961:STM32F4xx_LIB/periph/src/stm32f4xx_sdio.c **** /**
 962:STM32F4xx_LIB/periph/src/stm32f4xx_sdio.c ****   * @brief  Clears the SDIO's interrupt pending bits.
 963:STM32F4xx_LIB/periph/src/stm32f4xx_sdio.c ****   * @param  SDIO_IT: specifies the interrupt pending bit to clear. 
 964:STM32F4xx_LIB/periph/src/stm32f4xx_sdio.c ****   *          This parameter can be one or a combination of the following values:
 965:STM32F4xx_LIB/periph/src/stm32f4xx_sdio.c ****   *            @arg SDIO_IT_CCRCFAIL: Command response received (CRC check failed) interrupt
 966:STM32F4xx_LIB/periph/src/stm32f4xx_sdio.c ****   *            @arg SDIO_IT_DCRCFAIL: Data block sent/received (CRC check failed) interrupt
 967:STM32F4xx_LIB/periph/src/stm32f4xx_sdio.c ****   *            @arg SDIO_IT_CTIMEOUT: Command response timeout interrupt
 968:STM32F4xx_LIB/periph/src/stm32f4xx_sdio.c ****   *            @arg SDIO_IT_DTIMEOUT: Data timeout interrupt
 969:STM32F4xx_LIB/periph/src/stm32f4xx_sdio.c ****   *            @arg SDIO_IT_TXUNDERR: Transmit FIFO underrun error interrupt
 970:STM32F4xx_LIB/periph/src/stm32f4xx_sdio.c ****   *            @arg SDIO_IT_RXOVERR:  Received FIFO overrun error interrupt
 971:STM32F4xx_LIB/periph/src/stm32f4xx_sdio.c ****   *            @arg SDIO_IT_CMDREND:  Command response received (CRC check passed) interrupt
 972:STM32F4xx_LIB/periph/src/stm32f4xx_sdio.c ****   *            @arg SDIO_IT_CMDSENT:  Command sent (no response required) interrupt
 973:STM32F4xx_LIB/periph/src/stm32f4xx_sdio.c ****   *            @arg SDIO_IT_DATAEND:  Data end (data counter, SDIO_DCOUNT, is zero) interrupt
 974:STM32F4xx_LIB/periph/src/stm32f4xx_sdio.c ****   *            @arg SDIO_IT_STBITERR: Start bit not detected on all data signals in wide 
 975:STM32F4xx_LIB/periph/src/stm32f4xx_sdio.c ****   *                                   bus mode interrupt
 976:STM32F4xx_LIB/periph/src/stm32f4xx_sdio.c ****   *            @arg SDIO_IT_SDIOIT:   SD I/O interrupt received interrupt
 977:STM32F4xx_LIB/periph/src/stm32f4xx_sdio.c ****   *            @arg SDIO_IT_CEATAEND: CE-ATA command completion signal received for CMD61
 978:STM32F4xx_LIB/periph/src/stm32f4xx_sdio.c ****   * @retval None
 979:STM32F4xx_LIB/periph/src/stm32f4xx_sdio.c ****   */
 980:STM32F4xx_LIB/periph/src/stm32f4xx_sdio.c **** void SDIO_ClearITPendingBit(uint32_t SDIO_IT)
 981:STM32F4xx_LIB/periph/src/stm32f4xx_sdio.c **** { 
 1151              		.loc 1 981 1 is_stmt 1 view -0
 1152              		.cfi_startproc
 1153              		@ args = 0, pretend = 0, frame = 0
 1154              		@ frame_needed = 0, uses_anonymous_args = 0
 1155              		@ link register save eliminated.
 982:STM32F4xx_LIB/periph/src/stm32f4xx_sdio.c ****   /* Check the parameters */
 983:STM32F4xx_LIB/periph/src/stm32f4xx_sdio.c ****   assert_param(IS_SDIO_CLEAR_IT(SDIO_IT));
 1156              		.loc 1 983 3 view .LVU263
 984:STM32F4xx_LIB/periph/src/stm32f4xx_sdio.c ****    
 985:STM32F4xx_LIB/periph/src/stm32f4xx_sdio.c ****   SDIO->ICR = SDIO_IT;
 1157              		.loc 1 985 3 view .LVU264
 1158              		.loc 1 985 13 is_stmt 0 view .LVU265
 1159 0000 014B     		ldr	r3, .L92
 1160 0002 9863     		str	r0, [r3, #56]
 986:STM32F4xx_LIB/periph/src/stm32f4xx_sdio.c **** }
 1161              		.loc 1 986 1 view .LVU266
 1162 0004 7047     		bx	lr
 1163              	.L93:
 1164 0006 00BF     		.align	2
 1165              	.L92:
 1166 0008 002C0140 		.word	1073818624
 1167              		.cfi_endproc
 1168              	.LFE152:
 1170              		.text
 1171              	.Letext0:
 1172              		.file 2 "d:\\gcc_tool\\gnu_tool_arm_embedded\\arm-none-eabi\\include\\machine\\_default_types.h"
 1173              		.file 3 "d:\\gcc_tool\\gnu_tool_arm_embedded\\arm-none-eabi\\include\\sys\\_stdint.h"
 1174              		.file 4 "STM32F4xx_LIB/core/core_cm4.h"
 1175              		.file 5 "User/system_stm32f4xx.h"
 1176              		.file 6 "User/stm32f4xx.h"
 1177              		.file 7 "STM32F4xx_LIB/periph/inc/stm32f4xx_sdio.h"
 1178              		.file 8 "STM32F4xx_LIB/periph/inc/stm32f4xx_rcc.h"
ARM GAS  C:\Users\京垓\AppData\Local\Temp\ccmTZYge.s 			page 38


ARM GAS  C:\Users\京垓\AppData\Local\Temp\ccmTZYge.s 			page 39

