ARM GAS  C:\Users\京垓\AppData\Local\Temp\ccSDmMXX.s 			page 1


   1              		.cpu cortex-m4
   2              		.eabi_attribute 27, 1
   3              		.eabi_attribute 28, 1
   4              		.eabi_attribute 20, 1
   5              		.eabi_attribute 21, 1
   6              		.eabi_attribute 23, 3
   7              		.eabi_attribute 24, 1
   8              		.eabi_attribute 25, 1
   9              		.eabi_attribute 26, 1
  10              		.eabi_attribute 30, 1
  11              		.eabi_attribute 34, 1
  12              		.eabi_attribute 18, 4
  13              		.file	"stm32f4xx_exti.c"
  14              		.text
  15              	.Ltext0:
  16              		.cfi_sections	.debug_frame
  17              		.section	.text.EXTI_DeInit,"ax",%progbits
  18              		.align	1
  19              		.global	EXTI_DeInit
  20              		.arch armv7e-m
  21              		.syntax unified
  22              		.thumb
  23              		.thumb_func
  24              		.fpu fpv4-sp-d16
  26              	EXTI_DeInit:
  27              	.LFB123:
  28              		.file 1 "STM32F4xx_LIB/periph/src/stm32f4xx_exti.c"
   1:STM32F4xx_LIB/periph/src/stm32f4xx_exti.c **** /**
   2:STM32F4xx_LIB/periph/src/stm32f4xx_exti.c ****   ******************************************************************************
   3:STM32F4xx_LIB/periph/src/stm32f4xx_exti.c ****   * @file    stm32f4xx_exti.c
   4:STM32F4xx_LIB/periph/src/stm32f4xx_exti.c ****   * @author  MCD Application Team
   5:STM32F4xx_LIB/periph/src/stm32f4xx_exti.c ****   * @version V1.8.1
   6:STM32F4xx_LIB/periph/src/stm32f4xx_exti.c ****   * @date    27-January-2022
   7:STM32F4xx_LIB/periph/src/stm32f4xx_exti.c ****   * @brief   This file provides firmware functions to manage the following 
   8:STM32F4xx_LIB/periph/src/stm32f4xx_exti.c ****   *          functionalities of the EXTI peripheral:
   9:STM32F4xx_LIB/periph/src/stm32f4xx_exti.c ****   *           + Initialization and Configuration
  10:STM32F4xx_LIB/periph/src/stm32f4xx_exti.c ****   *           + Interrupts and flags management
  11:STM32F4xx_LIB/periph/src/stm32f4xx_exti.c ****   *
  12:STM32F4xx_LIB/periph/src/stm32f4xx_exti.c **** @verbatim  
  13:STM32F4xx_LIB/periph/src/stm32f4xx_exti.c **** 
  14:STM32F4xx_LIB/periph/src/stm32f4xx_exti.c ****  ===============================================================================
  15:STM32F4xx_LIB/periph/src/stm32f4xx_exti.c ****                               ##### EXTI features #####
  16:STM32F4xx_LIB/periph/src/stm32f4xx_exti.c ****  ===============================================================================
  17:STM32F4xx_LIB/periph/src/stm32f4xx_exti.c **** 
  18:STM32F4xx_LIB/periph/src/stm32f4xx_exti.c ****  [..] External interrupt/event lines are mapped as following:
  19:STM32F4xx_LIB/periph/src/stm32f4xx_exti.c ****    (#) All available GPIO pins are connected to the 16 external 
  20:STM32F4xx_LIB/periph/src/stm32f4xx_exti.c ****        interrupt/event lines from EXTI0 to EXTI15.
  21:STM32F4xx_LIB/periph/src/stm32f4xx_exti.c ****    (#) EXTI line 16 is connected to the PVD Output
  22:STM32F4xx_LIB/periph/src/stm32f4xx_exti.c ****    (#) EXTI line 17 is connected to the RTC Alarm event
  23:STM32F4xx_LIB/periph/src/stm32f4xx_exti.c ****    (#) EXTI line 18 is connected to the USB OTG FS Wakeup from suspend event
  24:STM32F4xx_LIB/periph/src/stm32f4xx_exti.c ****    (#) EXTI line 19 is connected to the Ethernet Wakeup event
  25:STM32F4xx_LIB/periph/src/stm32f4xx_exti.c ****    (#) EXTI line 20 is connected to the USB OTG HS (configured in FS) Wakeup event 
  26:STM32F4xx_LIB/periph/src/stm32f4xx_exti.c ****    (#) EXTI line 21 is connected to the RTC Tamper and Time Stamp events
  27:STM32F4xx_LIB/periph/src/stm32f4xx_exti.c ****    (#) EXTI line 22 is connected to the RTC Wakeup event
  28:STM32F4xx_LIB/periph/src/stm32f4xx_exti.c ****    (#) EXTI line 23 is connected to the LPTIM Wakeup event 
  29:STM32F4xx_LIB/periph/src/stm32f4xx_exti.c **** 
  30:STM32F4xx_LIB/periph/src/stm32f4xx_exti.c ****                        ##### How to use this driver #####
ARM GAS  C:\Users\京垓\AppData\Local\Temp\ccSDmMXX.s 			page 2


  31:STM32F4xx_LIB/periph/src/stm32f4xx_exti.c ****  ===============================================================================
  32:STM32F4xx_LIB/periph/src/stm32f4xx_exti.c ****  
  33:STM32F4xx_LIB/periph/src/stm32f4xx_exti.c ****  [..] In order to use an I/O pin as an external interrupt source, follow steps 
  34:STM32F4xx_LIB/periph/src/stm32f4xx_exti.c ****       below:
  35:STM32F4xx_LIB/periph/src/stm32f4xx_exti.c ****    (#) Configure the I/O in input mode using GPIO_Init()
  36:STM32F4xx_LIB/periph/src/stm32f4xx_exti.c ****    (#) Select the input source pin for the EXTI line using SYSCFG_EXTILineConfig()
  37:STM32F4xx_LIB/periph/src/stm32f4xx_exti.c ****    (#) Select the mode(interrupt, event) and configure the trigger 
  38:STM32F4xx_LIB/periph/src/stm32f4xx_exti.c ****        selection (Rising, falling or both) using EXTI_Init()
  39:STM32F4xx_LIB/periph/src/stm32f4xx_exti.c ****    (#) Configure NVIC IRQ channel mapped to the EXTI line using NVIC_Init()
  40:STM32F4xx_LIB/periph/src/stm32f4xx_exti.c **** 
  41:STM32F4xx_LIB/periph/src/stm32f4xx_exti.c ****  [..]     
  42:STM32F4xx_LIB/periph/src/stm32f4xx_exti.c ****    (@) SYSCFG APB clock must be enabled to get write access to SYSCFG_EXTICRx
  43:STM32F4xx_LIB/periph/src/stm32f4xx_exti.c ****        registers using RCC_APB2PeriphClockCmd(RCC_APB2Periph_SYSCFG, ENABLE);
  44:STM32F4xx_LIB/periph/src/stm32f4xx_exti.c **** 
  45:STM32F4xx_LIB/periph/src/stm32f4xx_exti.c **** @endverbatim
  46:STM32F4xx_LIB/periph/src/stm32f4xx_exti.c ****   *
  47:STM32F4xx_LIB/periph/src/stm32f4xx_exti.c ****   ******************************************************************************
  48:STM32F4xx_LIB/periph/src/stm32f4xx_exti.c ****   * @attention
  49:STM32F4xx_LIB/periph/src/stm32f4xx_exti.c ****   *
  50:STM32F4xx_LIB/periph/src/stm32f4xx_exti.c ****   * Copyright (c) 2016 STMicroelectronics.
  51:STM32F4xx_LIB/periph/src/stm32f4xx_exti.c ****   * All rights reserved.
  52:STM32F4xx_LIB/periph/src/stm32f4xx_exti.c ****   *
  53:STM32F4xx_LIB/periph/src/stm32f4xx_exti.c ****   * This software is licensed under terms that can be found in the LICENSE file
  54:STM32F4xx_LIB/periph/src/stm32f4xx_exti.c ****   * in the root directory of this software component.
  55:STM32F4xx_LIB/periph/src/stm32f4xx_exti.c ****   * If no LICENSE file comes with this software, it is provided AS-IS.
  56:STM32F4xx_LIB/periph/src/stm32f4xx_exti.c ****   *
  57:STM32F4xx_LIB/periph/src/stm32f4xx_exti.c ****   ******************************************************************************
  58:STM32F4xx_LIB/periph/src/stm32f4xx_exti.c ****   */
  59:STM32F4xx_LIB/periph/src/stm32f4xx_exti.c **** 
  60:STM32F4xx_LIB/periph/src/stm32f4xx_exti.c **** /* Includes ------------------------------------------------------------------*/
  61:STM32F4xx_LIB/periph/src/stm32f4xx_exti.c **** #include "stm32f4xx_exti.h"
  62:STM32F4xx_LIB/periph/src/stm32f4xx_exti.c **** 
  63:STM32F4xx_LIB/periph/src/stm32f4xx_exti.c **** /** @addtogroup STM32F4xx_StdPeriph_Driver
  64:STM32F4xx_LIB/periph/src/stm32f4xx_exti.c ****   * @{
  65:STM32F4xx_LIB/periph/src/stm32f4xx_exti.c ****   */
  66:STM32F4xx_LIB/periph/src/stm32f4xx_exti.c **** 
  67:STM32F4xx_LIB/periph/src/stm32f4xx_exti.c **** /** @defgroup EXTI 
  68:STM32F4xx_LIB/periph/src/stm32f4xx_exti.c ****   * @brief EXTI driver modules
  69:STM32F4xx_LIB/periph/src/stm32f4xx_exti.c ****   * @{
  70:STM32F4xx_LIB/periph/src/stm32f4xx_exti.c ****   */
  71:STM32F4xx_LIB/periph/src/stm32f4xx_exti.c **** 
  72:STM32F4xx_LIB/periph/src/stm32f4xx_exti.c **** /* Private typedef -----------------------------------------------------------*/
  73:STM32F4xx_LIB/periph/src/stm32f4xx_exti.c **** /* Private define ------------------------------------------------------------*/
  74:STM32F4xx_LIB/periph/src/stm32f4xx_exti.c **** 
  75:STM32F4xx_LIB/periph/src/stm32f4xx_exti.c **** #define EXTI_LINENONE    ((uint32_t)0x00000)  /* No interrupt selected */
  76:STM32F4xx_LIB/periph/src/stm32f4xx_exti.c **** 
  77:STM32F4xx_LIB/periph/src/stm32f4xx_exti.c **** /* Private macro -------------------------------------------------------------*/
  78:STM32F4xx_LIB/periph/src/stm32f4xx_exti.c **** /* Private variables ---------------------------------------------------------*/
  79:STM32F4xx_LIB/periph/src/stm32f4xx_exti.c **** /* Private function prototypes -----------------------------------------------*/
  80:STM32F4xx_LIB/periph/src/stm32f4xx_exti.c **** /* Private functions ---------------------------------------------------------*/
  81:STM32F4xx_LIB/periph/src/stm32f4xx_exti.c **** 
  82:STM32F4xx_LIB/periph/src/stm32f4xx_exti.c **** /** @defgroup EXTI_Private_Functions
  83:STM32F4xx_LIB/periph/src/stm32f4xx_exti.c ****   * @{
  84:STM32F4xx_LIB/periph/src/stm32f4xx_exti.c ****   */
  85:STM32F4xx_LIB/periph/src/stm32f4xx_exti.c **** 
  86:STM32F4xx_LIB/periph/src/stm32f4xx_exti.c **** /** @defgroup EXTI_Group1 Initialization and Configuration functions
  87:STM32F4xx_LIB/periph/src/stm32f4xx_exti.c ****  *  @brief   Initialization and Configuration functions 
ARM GAS  C:\Users\京垓\AppData\Local\Temp\ccSDmMXX.s 			page 3


  88:STM32F4xx_LIB/periph/src/stm32f4xx_exti.c ****  *
  89:STM32F4xx_LIB/periph/src/stm32f4xx_exti.c **** @verbatim   
  90:STM32F4xx_LIB/periph/src/stm32f4xx_exti.c ****  ===============================================================================
  91:STM32F4xx_LIB/periph/src/stm32f4xx_exti.c ****              ##### Initialization and Configuration functions #####
  92:STM32F4xx_LIB/periph/src/stm32f4xx_exti.c ****  ===============================================================================
  93:STM32F4xx_LIB/periph/src/stm32f4xx_exti.c **** 
  94:STM32F4xx_LIB/periph/src/stm32f4xx_exti.c **** @endverbatim
  95:STM32F4xx_LIB/periph/src/stm32f4xx_exti.c ****   * @{
  96:STM32F4xx_LIB/periph/src/stm32f4xx_exti.c ****   */
  97:STM32F4xx_LIB/periph/src/stm32f4xx_exti.c **** 
  98:STM32F4xx_LIB/periph/src/stm32f4xx_exti.c **** /**
  99:STM32F4xx_LIB/periph/src/stm32f4xx_exti.c ****   * @brief  Deinitializes the EXTI peripheral registers to their default reset values.
 100:STM32F4xx_LIB/periph/src/stm32f4xx_exti.c ****   * @param  None
 101:STM32F4xx_LIB/periph/src/stm32f4xx_exti.c ****   * @retval None
 102:STM32F4xx_LIB/periph/src/stm32f4xx_exti.c ****   */
 103:STM32F4xx_LIB/periph/src/stm32f4xx_exti.c **** void EXTI_DeInit(void)
 104:STM32F4xx_LIB/periph/src/stm32f4xx_exti.c **** {
  29              		.loc 1 104 1 view -0
  30              		.cfi_startproc
  31              		@ args = 0, pretend = 0, frame = 0
  32              		@ frame_needed = 0, uses_anonymous_args = 0
  33              		@ link register save eliminated.
 105:STM32F4xx_LIB/periph/src/stm32f4xx_exti.c ****   EXTI->IMR = 0x00000000;
  34              		.loc 1 105 3 view .LVU1
  35              		.loc 1 105 13 is_stmt 0 view .LVU2
  36 0000 044B     		ldr	r3, .L2
  37 0002 0022     		movs	r2, #0
  38 0004 1A60     		str	r2, [r3]
 106:STM32F4xx_LIB/periph/src/stm32f4xx_exti.c ****   EXTI->EMR = 0x00000000;
  39              		.loc 1 106 3 is_stmt 1 view .LVU3
  40              		.loc 1 106 13 is_stmt 0 view .LVU4
  41 0006 5A60     		str	r2, [r3, #4]
 107:STM32F4xx_LIB/periph/src/stm32f4xx_exti.c ****   EXTI->RTSR = 0x00000000;
  42              		.loc 1 107 3 is_stmt 1 view .LVU5
  43              		.loc 1 107 14 is_stmt 0 view .LVU6
  44 0008 9A60     		str	r2, [r3, #8]
 108:STM32F4xx_LIB/periph/src/stm32f4xx_exti.c ****   EXTI->FTSR = 0x00000000;
  45              		.loc 1 108 3 is_stmt 1 view .LVU7
  46              		.loc 1 108 14 is_stmt 0 view .LVU8
  47 000a DA60     		str	r2, [r3, #12]
 109:STM32F4xx_LIB/periph/src/stm32f4xx_exti.c ****   EXTI->PR = 0x007FFFFF;
  48              		.loc 1 109 3 is_stmt 1 view .LVU9
  49              		.loc 1 109 12 is_stmt 0 view .LVU10
  50 000c 024A     		ldr	r2, .L2+4
  51 000e 5A61     		str	r2, [r3, #20]
 110:STM32F4xx_LIB/periph/src/stm32f4xx_exti.c **** }
  52              		.loc 1 110 1 view .LVU11
  53 0010 7047     		bx	lr
  54              	.L3:
  55 0012 00BF     		.align	2
  56              	.L2:
  57 0014 003C0140 		.word	1073822720
  58 0018 FFFF7F00 		.word	8388607
  59              		.cfi_endproc
  60              	.LFE123:
  62              		.section	.text.EXTI_Init,"ax",%progbits
  63              		.align	1
ARM GAS  C:\Users\京垓\AppData\Local\Temp\ccSDmMXX.s 			page 4


  64              		.global	EXTI_Init
  65              		.syntax unified
  66              		.thumb
  67              		.thumb_func
  68              		.fpu fpv4-sp-d16
  70              	EXTI_Init:
  71              	.LVL0:
  72              	.LFB124:
 111:STM32F4xx_LIB/periph/src/stm32f4xx_exti.c **** 
 112:STM32F4xx_LIB/periph/src/stm32f4xx_exti.c **** /**
 113:STM32F4xx_LIB/periph/src/stm32f4xx_exti.c ****   * @brief  Initializes the EXTI peripheral according to the specified
 114:STM32F4xx_LIB/periph/src/stm32f4xx_exti.c ****   *         parameters in the EXTI_InitStruct.
 115:STM32F4xx_LIB/periph/src/stm32f4xx_exti.c ****   * @param  EXTI_InitStruct: pointer to a EXTI_InitTypeDef structure
 116:STM32F4xx_LIB/periph/src/stm32f4xx_exti.c ****   *         that contains the configuration information for the EXTI peripheral.
 117:STM32F4xx_LIB/periph/src/stm32f4xx_exti.c ****   * @retval None
 118:STM32F4xx_LIB/periph/src/stm32f4xx_exti.c ****   */
 119:STM32F4xx_LIB/periph/src/stm32f4xx_exti.c **** void EXTI_Init(EXTI_InitTypeDef* EXTI_InitStruct)
 120:STM32F4xx_LIB/periph/src/stm32f4xx_exti.c **** {
  73              		.loc 1 120 1 is_stmt 1 view -0
  74              		.cfi_startproc
  75              		@ args = 0, pretend = 0, frame = 0
  76              		@ frame_needed = 0, uses_anonymous_args = 0
  77              		@ link register save eliminated.
 121:STM32F4xx_LIB/periph/src/stm32f4xx_exti.c ****   uint32_t tmp = 0;
  78              		.loc 1 121 3 view .LVU13
 122:STM32F4xx_LIB/periph/src/stm32f4xx_exti.c **** 
 123:STM32F4xx_LIB/periph/src/stm32f4xx_exti.c ****   /* Check the parameters */
 124:STM32F4xx_LIB/periph/src/stm32f4xx_exti.c ****   assert_param(IS_EXTI_MODE(EXTI_InitStruct->EXTI_Mode));
  79              		.loc 1 124 3 view .LVU14
 125:STM32F4xx_LIB/periph/src/stm32f4xx_exti.c ****   assert_param(IS_EXTI_TRIGGER(EXTI_InitStruct->EXTI_Trigger));
  80              		.loc 1 125 3 view .LVU15
 126:STM32F4xx_LIB/periph/src/stm32f4xx_exti.c ****   assert_param(IS_EXTI_LINE(EXTI_InitStruct->EXTI_Line));  
  81              		.loc 1 126 3 view .LVU16
 127:STM32F4xx_LIB/periph/src/stm32f4xx_exti.c ****   assert_param(IS_FUNCTIONAL_STATE(EXTI_InitStruct->EXTI_LineCmd));
  82              		.loc 1 127 3 view .LVU17
 128:STM32F4xx_LIB/periph/src/stm32f4xx_exti.c **** 
 129:STM32F4xx_LIB/periph/src/stm32f4xx_exti.c ****   tmp = (uint32_t)EXTI_BASE;
  83              		.loc 1 129 3 view .LVU18
 130:STM32F4xx_LIB/periph/src/stm32f4xx_exti.c ****      
 131:STM32F4xx_LIB/periph/src/stm32f4xx_exti.c ****   if (EXTI_InitStruct->EXTI_LineCmd != DISABLE)
  84              		.loc 1 131 3 view .LVU19
  85              		.loc 1 131 22 is_stmt 0 view .LVU20
  86 0000 8379     		ldrb	r3, [r0, #6]	@ zero_extendqisi2
  87              		.loc 1 131 6 view .LVU21
  88 0002 002B     		cmp	r3, #0
  89 0004 36D0     		beq	.L5
 120:STM32F4xx_LIB/periph/src/stm32f4xx_exti.c ****   uint32_t tmp = 0;
  90              		.loc 1 120 1 view .LVU22
  91 0006 10B4     		push	{r4}
  92              	.LCFI0:
  93              		.cfi_def_cfa_offset 4
  94              		.cfi_offset 4, -4
 132:STM32F4xx_LIB/periph/src/stm32f4xx_exti.c ****   {
 133:STM32F4xx_LIB/periph/src/stm32f4xx_exti.c ****     /* Clear EXTI line configuration */
 134:STM32F4xx_LIB/periph/src/stm32f4xx_exti.c ****     EXTI->IMR &= ~EXTI_InitStruct->EXTI_Line;
  95              		.loc 1 134 5 is_stmt 1 view .LVU23
  96              		.loc 1 134 15 is_stmt 0 view .LVU24
ARM GAS  C:\Users\京垓\AppData\Local\Temp\ccSDmMXX.s 			page 5


  97 0008 204B     		ldr	r3, .L13
  98 000a 1A68     		ldr	r2, [r3]
  99              		.loc 1 134 34 view .LVU25
 100 000c 0168     		ldr	r1, [r0]
 101              		.loc 1 134 15 view .LVU26
 102 000e 22EA0102 		bic	r2, r2, r1
 103 0012 1A60     		str	r2, [r3]
 135:STM32F4xx_LIB/periph/src/stm32f4xx_exti.c ****     EXTI->EMR &= ~EXTI_InitStruct->EXTI_Line;
 104              		.loc 1 135 5 is_stmt 1 view .LVU27
 105              		.loc 1 135 15 is_stmt 0 view .LVU28
 106 0014 5A68     		ldr	r2, [r3, #4]
 107              		.loc 1 135 34 view .LVU29
 108 0016 0168     		ldr	r1, [r0]
 109              		.loc 1 135 15 view .LVU30
 110 0018 22EA0102 		bic	r2, r2, r1
 111 001c 5A60     		str	r2, [r3, #4]
 136:STM32F4xx_LIB/periph/src/stm32f4xx_exti.c ****     
 137:STM32F4xx_LIB/periph/src/stm32f4xx_exti.c ****     tmp += EXTI_InitStruct->EXTI_Mode;
 112              		.loc 1 137 5 is_stmt 1 view .LVU31
 113              		.loc 1 137 27 is_stmt 0 view .LVU32
 114 001e 0279     		ldrb	r2, [r0, #4]	@ zero_extendqisi2
 115              		.loc 1 137 9 view .LVU33
 116 0020 02F18042 		add	r2, r2, #1073741824
 117 0024 02F59E32 		add	r2, r2, #80896
 118              	.LVL1:
 138:STM32F4xx_LIB/periph/src/stm32f4xx_exti.c **** 
 139:STM32F4xx_LIB/periph/src/stm32f4xx_exti.c ****     *(__IO uint32_t *) tmp |= EXTI_InitStruct->EXTI_Line;
 119              		.loc 1 139 5 is_stmt 1 view .LVU34
 120              		.loc 1 139 28 is_stmt 0 view .LVU35
 121 0028 1168     		ldr	r1, [r2]
 122              		.loc 1 139 46 view .LVU36
 123 002a 0468     		ldr	r4, [r0]
 124              		.loc 1 139 28 view .LVU37
 125 002c 2143     		orrs	r1, r1, r4
 126 002e 1160     		str	r1, [r2]
 140:STM32F4xx_LIB/periph/src/stm32f4xx_exti.c **** 
 141:STM32F4xx_LIB/periph/src/stm32f4xx_exti.c ****     /* Clear Rising Falling edge configuration */
 142:STM32F4xx_LIB/periph/src/stm32f4xx_exti.c ****     EXTI->RTSR &= ~EXTI_InitStruct->EXTI_Line;
 127              		.loc 1 142 5 is_stmt 1 view .LVU38
 128              		.loc 1 142 16 is_stmt 0 view .LVU39
 129 0030 9A68     		ldr	r2, [r3, #8]
 130              	.LVL2:
 131              		.loc 1 142 35 view .LVU40
 132 0032 0168     		ldr	r1, [r0]
 133              		.loc 1 142 16 view .LVU41
 134 0034 22EA0102 		bic	r2, r2, r1
 135 0038 9A60     		str	r2, [r3, #8]
 143:STM32F4xx_LIB/periph/src/stm32f4xx_exti.c ****     EXTI->FTSR &= ~EXTI_InitStruct->EXTI_Line;
 136              		.loc 1 143 5 is_stmt 1 view .LVU42
 137              		.loc 1 143 16 is_stmt 0 view .LVU43
 138 003a DA68     		ldr	r2, [r3, #12]
 139              		.loc 1 143 35 view .LVU44
 140 003c 0168     		ldr	r1, [r0]
 141              		.loc 1 143 16 view .LVU45
 142 003e 22EA0102 		bic	r2, r2, r1
 143 0042 DA60     		str	r2, [r3, #12]
 144:STM32F4xx_LIB/periph/src/stm32f4xx_exti.c ****     
ARM GAS  C:\Users\京垓\AppData\Local\Temp\ccSDmMXX.s 			page 6


 145:STM32F4xx_LIB/periph/src/stm32f4xx_exti.c ****     /* Select the trigger for the selected external interrupts */
 146:STM32F4xx_LIB/periph/src/stm32f4xx_exti.c ****     if (EXTI_InitStruct->EXTI_Trigger == EXTI_Trigger_Rising_Falling)
 144              		.loc 1 146 5 is_stmt 1 view .LVU46
 145              		.loc 1 146 24 is_stmt 0 view .LVU47
 146 0044 4379     		ldrb	r3, [r0, #5]	@ zero_extendqisi2
 147              		.loc 1 146 8 view .LVU48
 148 0046 102B     		cmp	r3, #16
 149 0048 0AD0     		beq	.L12
 147:STM32F4xx_LIB/periph/src/stm32f4xx_exti.c ****     {
 148:STM32F4xx_LIB/periph/src/stm32f4xx_exti.c ****       /* Rising Falling edge */
 149:STM32F4xx_LIB/periph/src/stm32f4xx_exti.c ****       EXTI->RTSR |= EXTI_InitStruct->EXTI_Line;
 150:STM32F4xx_LIB/periph/src/stm32f4xx_exti.c ****       EXTI->FTSR |= EXTI_InitStruct->EXTI_Line;
 151:STM32F4xx_LIB/periph/src/stm32f4xx_exti.c ****     }
 152:STM32F4xx_LIB/periph/src/stm32f4xx_exti.c ****     else
 153:STM32F4xx_LIB/periph/src/stm32f4xx_exti.c ****     {
 154:STM32F4xx_LIB/periph/src/stm32f4xx_exti.c ****       tmp = (uint32_t)EXTI_BASE;
 150              		.loc 1 154 7 is_stmt 1 view .LVU49
 151              	.LVL3:
 155:STM32F4xx_LIB/periph/src/stm32f4xx_exti.c ****       tmp += EXTI_InitStruct->EXTI_Trigger;
 152              		.loc 1 155 7 view .LVU50
 153              		.loc 1 155 11 is_stmt 0 view .LVU51
 154 004a 03F18043 		add	r3, r3, #1073741824
 155 004e 03F59E33 		add	r3, r3, #80896
 156              	.LVL4:
 156:STM32F4xx_LIB/periph/src/stm32f4xx_exti.c **** 
 157:STM32F4xx_LIB/periph/src/stm32f4xx_exti.c ****       *(__IO uint32_t *) tmp |= EXTI_InitStruct->EXTI_Line;
 157              		.loc 1 157 7 is_stmt 1 view .LVU52
 158              		.loc 1 157 30 is_stmt 0 view .LVU53
 159 0052 1A68     		ldr	r2, [r3]
 160              		.loc 1 157 48 view .LVU54
 161 0054 0168     		ldr	r1, [r0]
 162              		.loc 1 157 30 view .LVU55
 163 0056 0A43     		orrs	r2, r2, r1
 164 0058 1A60     		str	r2, [r3]
 165              	.LVL5:
 166              	.L4:
 158:STM32F4xx_LIB/periph/src/stm32f4xx_exti.c ****     }
 159:STM32F4xx_LIB/periph/src/stm32f4xx_exti.c ****   }
 160:STM32F4xx_LIB/periph/src/stm32f4xx_exti.c ****   else
 161:STM32F4xx_LIB/periph/src/stm32f4xx_exti.c ****   {
 162:STM32F4xx_LIB/periph/src/stm32f4xx_exti.c ****     tmp += EXTI_InitStruct->EXTI_Mode;
 163:STM32F4xx_LIB/periph/src/stm32f4xx_exti.c **** 
 164:STM32F4xx_LIB/periph/src/stm32f4xx_exti.c ****     /* Disable the selected external lines */
 165:STM32F4xx_LIB/periph/src/stm32f4xx_exti.c ****     *(__IO uint32_t *) tmp &= ~EXTI_InitStruct->EXTI_Line;
 166:STM32F4xx_LIB/periph/src/stm32f4xx_exti.c ****   }
 167:STM32F4xx_LIB/periph/src/stm32f4xx_exti.c **** }
 167              		.loc 1 167 1 view .LVU56
 168 005a 5DF8044B 		ldr	r4, [sp], #4
 169              	.LCFI1:
 170              		.cfi_remember_state
 171              		.cfi_restore 4
 172              		.cfi_def_cfa_offset 0
 173 005e 7047     		bx	lr
 174              	.L12:
 175              	.LCFI2:
 176              		.cfi_restore_state
 149:STM32F4xx_LIB/periph/src/stm32f4xx_exti.c ****       EXTI->FTSR |= EXTI_InitStruct->EXTI_Line;
ARM GAS  C:\Users\京垓\AppData\Local\Temp\ccSDmMXX.s 			page 7


 177              		.loc 1 149 7 is_stmt 1 view .LVU57
 149:STM32F4xx_LIB/periph/src/stm32f4xx_exti.c ****       EXTI->FTSR |= EXTI_InitStruct->EXTI_Line;
 178              		.loc 1 149 18 is_stmt 0 view .LVU58
 179 0060 0A4B     		ldr	r3, .L13
 180 0062 9A68     		ldr	r2, [r3, #8]
 149:STM32F4xx_LIB/periph/src/stm32f4xx_exti.c ****       EXTI->FTSR |= EXTI_InitStruct->EXTI_Line;
 181              		.loc 1 149 36 view .LVU59
 182 0064 0168     		ldr	r1, [r0]
 149:STM32F4xx_LIB/periph/src/stm32f4xx_exti.c ****       EXTI->FTSR |= EXTI_InitStruct->EXTI_Line;
 183              		.loc 1 149 18 view .LVU60
 184 0066 0A43     		orrs	r2, r2, r1
 185 0068 9A60     		str	r2, [r3, #8]
 150:STM32F4xx_LIB/periph/src/stm32f4xx_exti.c ****     }
 186              		.loc 1 150 7 is_stmt 1 view .LVU61
 150:STM32F4xx_LIB/periph/src/stm32f4xx_exti.c ****     }
 187              		.loc 1 150 18 is_stmt 0 view .LVU62
 188 006a DA68     		ldr	r2, [r3, #12]
 150:STM32F4xx_LIB/periph/src/stm32f4xx_exti.c ****     }
 189              		.loc 1 150 36 view .LVU63
 190 006c 0168     		ldr	r1, [r0]
 150:STM32F4xx_LIB/periph/src/stm32f4xx_exti.c ****     }
 191              		.loc 1 150 18 view .LVU64
 192 006e 0A43     		orrs	r2, r2, r1
 193 0070 DA60     		str	r2, [r3, #12]
 194 0072 F2E7     		b	.L4
 195              	.LVL6:
 196              	.L5:
 197              	.LCFI3:
 198              		.cfi_def_cfa_offset 0
 199              		.cfi_restore 4
 162:STM32F4xx_LIB/periph/src/stm32f4xx_exti.c **** 
 200              		.loc 1 162 5 is_stmt 1 view .LVU65
 162:STM32F4xx_LIB/periph/src/stm32f4xx_exti.c **** 
 201              		.loc 1 162 27 is_stmt 0 view .LVU66
 202 0074 0379     		ldrb	r3, [r0, #4]	@ zero_extendqisi2
 162:STM32F4xx_LIB/periph/src/stm32f4xx_exti.c **** 
 203              		.loc 1 162 9 view .LVU67
 204 0076 03F18043 		add	r3, r3, #1073741824
 205 007a 03F59E33 		add	r3, r3, #80896
 206              	.LVL7:
 165:STM32F4xx_LIB/periph/src/stm32f4xx_exti.c ****   }
 207              		.loc 1 165 5 is_stmt 1 view .LVU68
 165:STM32F4xx_LIB/periph/src/stm32f4xx_exti.c ****   }
 208              		.loc 1 165 28 is_stmt 0 view .LVU69
 209 007e 1A68     		ldr	r2, [r3]
 165:STM32F4xx_LIB/periph/src/stm32f4xx_exti.c ****   }
 210              		.loc 1 165 47 view .LVU70
 211 0080 0168     		ldr	r1, [r0]
 165:STM32F4xx_LIB/periph/src/stm32f4xx_exti.c ****   }
 212              		.loc 1 165 28 view .LVU71
 213 0082 22EA0102 		bic	r2, r2, r1
 214 0086 1A60     		str	r2, [r3]
 215 0088 7047     		bx	lr
 216              	.L14:
 217 008a 00BF     		.align	2
 218              	.L13:
 219 008c 003C0140 		.word	1073822720
ARM GAS  C:\Users\京垓\AppData\Local\Temp\ccSDmMXX.s 			page 8


 220              		.cfi_endproc
 221              	.LFE124:
 223              		.section	.text.EXTI_StructInit,"ax",%progbits
 224              		.align	1
 225              		.global	EXTI_StructInit
 226              		.syntax unified
 227              		.thumb
 228              		.thumb_func
 229              		.fpu fpv4-sp-d16
 231              	EXTI_StructInit:
 232              	.LVL8:
 233              	.LFB125:
 168:STM32F4xx_LIB/periph/src/stm32f4xx_exti.c **** 
 169:STM32F4xx_LIB/periph/src/stm32f4xx_exti.c **** /**
 170:STM32F4xx_LIB/periph/src/stm32f4xx_exti.c ****   * @brief  Fills each EXTI_InitStruct member with its reset value.
 171:STM32F4xx_LIB/periph/src/stm32f4xx_exti.c ****   * @param  EXTI_InitStruct: pointer to a EXTI_InitTypeDef structure which will
 172:STM32F4xx_LIB/periph/src/stm32f4xx_exti.c ****   *         be initialized.
 173:STM32F4xx_LIB/periph/src/stm32f4xx_exti.c ****   * @retval None
 174:STM32F4xx_LIB/periph/src/stm32f4xx_exti.c ****   */
 175:STM32F4xx_LIB/periph/src/stm32f4xx_exti.c **** void EXTI_StructInit(EXTI_InitTypeDef* EXTI_InitStruct)
 176:STM32F4xx_LIB/periph/src/stm32f4xx_exti.c **** {
 234              		.loc 1 176 1 is_stmt 1 view -0
 235              		.cfi_startproc
 236              		@ args = 0, pretend = 0, frame = 0
 237              		@ frame_needed = 0, uses_anonymous_args = 0
 238              		@ link register save eliminated.
 177:STM32F4xx_LIB/periph/src/stm32f4xx_exti.c ****   EXTI_InitStruct->EXTI_Line = EXTI_LINENONE;
 239              		.loc 1 177 3 view .LVU73
 240              		.loc 1 177 30 is_stmt 0 view .LVU74
 241 0000 0023     		movs	r3, #0
 242 0002 0360     		str	r3, [r0]
 178:STM32F4xx_LIB/periph/src/stm32f4xx_exti.c ****   EXTI_InitStruct->EXTI_Mode = EXTI_Mode_Interrupt;
 243              		.loc 1 178 3 is_stmt 1 view .LVU75
 244              		.loc 1 178 30 is_stmt 0 view .LVU76
 245 0004 0371     		strb	r3, [r0, #4]
 179:STM32F4xx_LIB/periph/src/stm32f4xx_exti.c ****   EXTI_InitStruct->EXTI_Trigger = EXTI_Trigger_Falling;
 246              		.loc 1 179 3 is_stmt 1 view .LVU77
 247              		.loc 1 179 33 is_stmt 0 view .LVU78
 248 0006 0C22     		movs	r2, #12
 249 0008 4271     		strb	r2, [r0, #5]
 180:STM32F4xx_LIB/periph/src/stm32f4xx_exti.c ****   EXTI_InitStruct->EXTI_LineCmd = DISABLE;
 250              		.loc 1 180 3 is_stmt 1 view .LVU79
 251              		.loc 1 180 33 is_stmt 0 view .LVU80
 252 000a 8371     		strb	r3, [r0, #6]
 181:STM32F4xx_LIB/periph/src/stm32f4xx_exti.c **** }
 253              		.loc 1 181 1 view .LVU81
 254 000c 7047     		bx	lr
 255              		.cfi_endproc
 256              	.LFE125:
 258              		.section	.text.EXTI_GenerateSWInterrupt,"ax",%progbits
 259              		.align	1
 260              		.global	EXTI_GenerateSWInterrupt
 261              		.syntax unified
 262              		.thumb
 263              		.thumb_func
 264              		.fpu fpv4-sp-d16
 266              	EXTI_GenerateSWInterrupt:
ARM GAS  C:\Users\京垓\AppData\Local\Temp\ccSDmMXX.s 			page 9


 267              	.LVL9:
 268              	.LFB126:
 182:STM32F4xx_LIB/periph/src/stm32f4xx_exti.c **** 
 183:STM32F4xx_LIB/periph/src/stm32f4xx_exti.c **** /**
 184:STM32F4xx_LIB/periph/src/stm32f4xx_exti.c ****   * @brief  Generates a Software interrupt on selected EXTI line.
 185:STM32F4xx_LIB/periph/src/stm32f4xx_exti.c ****   * @param  EXTI_Line: specifies the EXTI line on which the software interrupt
 186:STM32F4xx_LIB/periph/src/stm32f4xx_exti.c ****   *         will be generated.
 187:STM32F4xx_LIB/periph/src/stm32f4xx_exti.c ****   *         This parameter can be any combination of EXTI_Linex where x can be (0..22)
 188:STM32F4xx_LIB/periph/src/stm32f4xx_exti.c ****   * @retval None
 189:STM32F4xx_LIB/periph/src/stm32f4xx_exti.c ****   */
 190:STM32F4xx_LIB/periph/src/stm32f4xx_exti.c **** void EXTI_GenerateSWInterrupt(uint32_t EXTI_Line)
 191:STM32F4xx_LIB/periph/src/stm32f4xx_exti.c **** {
 269              		.loc 1 191 1 is_stmt 1 view -0
 270              		.cfi_startproc
 271              		@ args = 0, pretend = 0, frame = 0
 272              		@ frame_needed = 0, uses_anonymous_args = 0
 273              		@ link register save eliminated.
 192:STM32F4xx_LIB/periph/src/stm32f4xx_exti.c ****   /* Check the parameters */
 193:STM32F4xx_LIB/periph/src/stm32f4xx_exti.c ****   assert_param(IS_EXTI_LINE(EXTI_Line));
 274              		.loc 1 193 3 view .LVU83
 194:STM32F4xx_LIB/periph/src/stm32f4xx_exti.c ****   
 195:STM32F4xx_LIB/periph/src/stm32f4xx_exti.c ****   EXTI->SWIER |= EXTI_Line;
 275              		.loc 1 195 3 view .LVU84
 276              		.loc 1 195 15 is_stmt 0 view .LVU85
 277 0000 024A     		ldr	r2, .L17
 278 0002 1369     		ldr	r3, [r2, #16]
 279 0004 0343     		orrs	r3, r3, r0
 280 0006 1361     		str	r3, [r2, #16]
 196:STM32F4xx_LIB/periph/src/stm32f4xx_exti.c **** }
 281              		.loc 1 196 1 view .LVU86
 282 0008 7047     		bx	lr
 283              	.L18:
 284 000a 00BF     		.align	2
 285              	.L17:
 286 000c 003C0140 		.word	1073822720
 287              		.cfi_endproc
 288              	.LFE126:
 290              		.section	.text.EXTI_GetFlagStatus,"ax",%progbits
 291              		.align	1
 292              		.global	EXTI_GetFlagStatus
 293              		.syntax unified
 294              		.thumb
 295              		.thumb_func
 296              		.fpu fpv4-sp-d16
 298              	EXTI_GetFlagStatus:
 299              	.LVL10:
 300              	.LFB127:
 197:STM32F4xx_LIB/periph/src/stm32f4xx_exti.c **** 
 198:STM32F4xx_LIB/periph/src/stm32f4xx_exti.c **** /**
 199:STM32F4xx_LIB/periph/src/stm32f4xx_exti.c ****   * @}
 200:STM32F4xx_LIB/periph/src/stm32f4xx_exti.c ****   */
 201:STM32F4xx_LIB/periph/src/stm32f4xx_exti.c **** 
 202:STM32F4xx_LIB/periph/src/stm32f4xx_exti.c **** /** @defgroup EXTI_Group2 Interrupts and flags management functions
 203:STM32F4xx_LIB/periph/src/stm32f4xx_exti.c ****  *  @brief   Interrupts and flags management functions 
 204:STM32F4xx_LIB/periph/src/stm32f4xx_exti.c ****  *
 205:STM32F4xx_LIB/periph/src/stm32f4xx_exti.c **** @verbatim   
 206:STM32F4xx_LIB/periph/src/stm32f4xx_exti.c ****  ===============================================================================
ARM GAS  C:\Users\京垓\AppData\Local\Temp\ccSDmMXX.s 			page 10


 207:STM32F4xx_LIB/periph/src/stm32f4xx_exti.c ****              ##### Interrupts and flags management functions #####
 208:STM32F4xx_LIB/periph/src/stm32f4xx_exti.c ****  ===============================================================================
 209:STM32F4xx_LIB/periph/src/stm32f4xx_exti.c **** 
 210:STM32F4xx_LIB/periph/src/stm32f4xx_exti.c **** @endverbatim
 211:STM32F4xx_LIB/periph/src/stm32f4xx_exti.c ****   * @{
 212:STM32F4xx_LIB/periph/src/stm32f4xx_exti.c ****   */
 213:STM32F4xx_LIB/periph/src/stm32f4xx_exti.c **** 
 214:STM32F4xx_LIB/periph/src/stm32f4xx_exti.c **** /**
 215:STM32F4xx_LIB/periph/src/stm32f4xx_exti.c ****   * @brief  Checks whether the specified EXTI line flag is set or not.
 216:STM32F4xx_LIB/periph/src/stm32f4xx_exti.c ****   * @param  EXTI_Line: specifies the EXTI line flag to check.
 217:STM32F4xx_LIB/periph/src/stm32f4xx_exti.c ****   *          This parameter can be EXTI_Linex where x can be(0..22)
 218:STM32F4xx_LIB/periph/src/stm32f4xx_exti.c ****   * @retval The new state of EXTI_Line (SET or RESET).
 219:STM32F4xx_LIB/periph/src/stm32f4xx_exti.c ****   */
 220:STM32F4xx_LIB/periph/src/stm32f4xx_exti.c **** FlagStatus EXTI_GetFlagStatus(uint32_t EXTI_Line)
 221:STM32F4xx_LIB/periph/src/stm32f4xx_exti.c **** {
 301              		.loc 1 221 1 is_stmt 1 view -0
 302              		.cfi_startproc
 303              		@ args = 0, pretend = 0, frame = 0
 304              		@ frame_needed = 0, uses_anonymous_args = 0
 305              		@ link register save eliminated.
 222:STM32F4xx_LIB/periph/src/stm32f4xx_exti.c ****   FlagStatus bitstatus = RESET;
 306              		.loc 1 222 3 view .LVU88
 223:STM32F4xx_LIB/periph/src/stm32f4xx_exti.c ****   /* Check the parameters */
 224:STM32F4xx_LIB/periph/src/stm32f4xx_exti.c ****   assert_param(IS_GET_EXTI_LINE(EXTI_Line));
 307              		.loc 1 224 3 view .LVU89
 225:STM32F4xx_LIB/periph/src/stm32f4xx_exti.c ****   
 226:STM32F4xx_LIB/periph/src/stm32f4xx_exti.c ****   if ((EXTI->PR & EXTI_Line) != (uint32_t)RESET)
 308              		.loc 1 226 3 view .LVU90
 309              		.loc 1 226 12 is_stmt 0 view .LVU91
 310 0000 034B     		ldr	r3, .L22
 311 0002 5B69     		ldr	r3, [r3, #20]
 312              		.loc 1 226 6 view .LVU92
 313 0004 0342     		tst	r3, r0
 314 0006 01D0     		beq	.L21
 227:STM32F4xx_LIB/periph/src/stm32f4xx_exti.c ****   {
 228:STM32F4xx_LIB/periph/src/stm32f4xx_exti.c ****     bitstatus = SET;
 315              		.loc 1 228 15 view .LVU93
 316 0008 0120     		movs	r0, #1
 317              	.LVL11:
 318              		.loc 1 228 15 view .LVU94
 319 000a 7047     		bx	lr
 320              	.LVL12:
 321              	.L21:
 229:STM32F4xx_LIB/periph/src/stm32f4xx_exti.c ****   }
 230:STM32F4xx_LIB/periph/src/stm32f4xx_exti.c ****   else
 231:STM32F4xx_LIB/periph/src/stm32f4xx_exti.c ****   {
 232:STM32F4xx_LIB/periph/src/stm32f4xx_exti.c ****     bitstatus = RESET;
 322              		.loc 1 232 15 view .LVU95
 323 000c 0020     		movs	r0, #0
 324              	.LVL13:
 233:STM32F4xx_LIB/periph/src/stm32f4xx_exti.c ****   }
 234:STM32F4xx_LIB/periph/src/stm32f4xx_exti.c ****   return bitstatus;
 325              		.loc 1 234 3 is_stmt 1 view .LVU96
 235:STM32F4xx_LIB/periph/src/stm32f4xx_exti.c **** }
 326              		.loc 1 235 1 is_stmt 0 view .LVU97
 327 000e 7047     		bx	lr
 328              	.L23:
ARM GAS  C:\Users\京垓\AppData\Local\Temp\ccSDmMXX.s 			page 11


 329              		.align	2
 330              	.L22:
 331 0010 003C0140 		.word	1073822720
 332              		.cfi_endproc
 333              	.LFE127:
 335              		.section	.text.EXTI_ClearFlag,"ax",%progbits
 336              		.align	1
 337              		.global	EXTI_ClearFlag
 338              		.syntax unified
 339              		.thumb
 340              		.thumb_func
 341              		.fpu fpv4-sp-d16
 343              	EXTI_ClearFlag:
 344              	.LVL14:
 345              	.LFB128:
 236:STM32F4xx_LIB/periph/src/stm32f4xx_exti.c **** 
 237:STM32F4xx_LIB/periph/src/stm32f4xx_exti.c **** /**
 238:STM32F4xx_LIB/periph/src/stm32f4xx_exti.c ****   * @brief  Clears the EXTI's line pending flags.
 239:STM32F4xx_LIB/periph/src/stm32f4xx_exti.c ****   * @param  EXTI_Line: specifies the EXTI lines flags to clear.
 240:STM32F4xx_LIB/periph/src/stm32f4xx_exti.c ****   *          This parameter can be any combination of EXTI_Linex where x can be (0..22)
 241:STM32F4xx_LIB/periph/src/stm32f4xx_exti.c ****   * @retval None
 242:STM32F4xx_LIB/periph/src/stm32f4xx_exti.c ****   */
 243:STM32F4xx_LIB/periph/src/stm32f4xx_exti.c **** void EXTI_ClearFlag(uint32_t EXTI_Line)
 244:STM32F4xx_LIB/periph/src/stm32f4xx_exti.c **** {
 346              		.loc 1 244 1 is_stmt 1 view -0
 347              		.cfi_startproc
 348              		@ args = 0, pretend = 0, frame = 0
 349              		@ frame_needed = 0, uses_anonymous_args = 0
 350              		@ link register save eliminated.
 245:STM32F4xx_LIB/periph/src/stm32f4xx_exti.c ****   /* Check the parameters */
 246:STM32F4xx_LIB/periph/src/stm32f4xx_exti.c ****   assert_param(IS_EXTI_LINE(EXTI_Line));
 351              		.loc 1 246 3 view .LVU99
 247:STM32F4xx_LIB/periph/src/stm32f4xx_exti.c ****   
 248:STM32F4xx_LIB/periph/src/stm32f4xx_exti.c ****   EXTI->PR = EXTI_Line;
 352              		.loc 1 248 3 view .LVU100
 353              		.loc 1 248 12 is_stmt 0 view .LVU101
 354 0000 014B     		ldr	r3, .L25
 355 0002 5861     		str	r0, [r3, #20]
 249:STM32F4xx_LIB/periph/src/stm32f4xx_exti.c **** }
 356              		.loc 1 249 1 view .LVU102
 357 0004 7047     		bx	lr
 358              	.L26:
 359 0006 00BF     		.align	2
 360              	.L25:
 361 0008 003C0140 		.word	1073822720
 362              		.cfi_endproc
 363              	.LFE128:
 365              		.section	.text.EXTI_GetITStatus,"ax",%progbits
 366              		.align	1
 367              		.global	EXTI_GetITStatus
 368              		.syntax unified
 369              		.thumb
 370              		.thumb_func
 371              		.fpu fpv4-sp-d16
 373              	EXTI_GetITStatus:
 374              	.LVL15:
 375              	.LFB129:
ARM GAS  C:\Users\京垓\AppData\Local\Temp\ccSDmMXX.s 			page 12


 250:STM32F4xx_LIB/periph/src/stm32f4xx_exti.c **** 
 251:STM32F4xx_LIB/periph/src/stm32f4xx_exti.c **** /**
 252:STM32F4xx_LIB/periph/src/stm32f4xx_exti.c ****   * @brief  Checks whether the specified EXTI line is asserted or not.
 253:STM32F4xx_LIB/periph/src/stm32f4xx_exti.c ****   * @param  EXTI_Line: specifies the EXTI line to check.
 254:STM32F4xx_LIB/periph/src/stm32f4xx_exti.c ****   *          This parameter can be EXTI_Linex where x can be(0..22)
 255:STM32F4xx_LIB/periph/src/stm32f4xx_exti.c ****   * @retval The new state of EXTI_Line (SET or RESET).
 256:STM32F4xx_LIB/periph/src/stm32f4xx_exti.c ****   */
 257:STM32F4xx_LIB/periph/src/stm32f4xx_exti.c **** ITStatus EXTI_GetITStatus(uint32_t EXTI_Line)
 258:STM32F4xx_LIB/periph/src/stm32f4xx_exti.c **** {
 376              		.loc 1 258 1 is_stmt 1 view -0
 377              		.cfi_startproc
 378              		@ args = 0, pretend = 0, frame = 0
 379              		@ frame_needed = 0, uses_anonymous_args = 0
 380              		@ link register save eliminated.
 259:STM32F4xx_LIB/periph/src/stm32f4xx_exti.c ****   FlagStatus bitstatus = RESET;
 381              		.loc 1 259 3 view .LVU104
 260:STM32F4xx_LIB/periph/src/stm32f4xx_exti.c ****   /* Check the parameters */
 261:STM32F4xx_LIB/periph/src/stm32f4xx_exti.c ****   assert_param(IS_GET_EXTI_LINE(EXTI_Line));
 382              		.loc 1 261 3 view .LVU105
 262:STM32F4xx_LIB/periph/src/stm32f4xx_exti.c ****   
 263:STM32F4xx_LIB/periph/src/stm32f4xx_exti.c ****   if ((EXTI->PR & EXTI_Line) != (uint32_t)RESET)
 383              		.loc 1 263 3 view .LVU106
 384              		.loc 1 263 12 is_stmt 0 view .LVU107
 385 0000 034B     		ldr	r3, .L30
 386 0002 5B69     		ldr	r3, [r3, #20]
 387              		.loc 1 263 6 view .LVU108
 388 0004 0342     		tst	r3, r0
 389 0006 01D0     		beq	.L29
 264:STM32F4xx_LIB/periph/src/stm32f4xx_exti.c ****   {
 265:STM32F4xx_LIB/periph/src/stm32f4xx_exti.c ****     bitstatus = SET;
 390              		.loc 1 265 15 view .LVU109
 391 0008 0120     		movs	r0, #1
 392              	.LVL16:
 393              		.loc 1 265 15 view .LVU110
 394 000a 7047     		bx	lr
 395              	.LVL17:
 396              	.L29:
 266:STM32F4xx_LIB/periph/src/stm32f4xx_exti.c ****   }
 267:STM32F4xx_LIB/periph/src/stm32f4xx_exti.c ****   else
 268:STM32F4xx_LIB/periph/src/stm32f4xx_exti.c ****   {
 269:STM32F4xx_LIB/periph/src/stm32f4xx_exti.c ****     bitstatus = RESET;
 397              		.loc 1 269 15 view .LVU111
 398 000c 0020     		movs	r0, #0
 399              	.LVL18:
 270:STM32F4xx_LIB/periph/src/stm32f4xx_exti.c ****   }
 271:STM32F4xx_LIB/periph/src/stm32f4xx_exti.c ****   return bitstatus;
 400              		.loc 1 271 3 is_stmt 1 view .LVU112
 272:STM32F4xx_LIB/periph/src/stm32f4xx_exti.c ****   
 273:STM32F4xx_LIB/periph/src/stm32f4xx_exti.c **** }
 401              		.loc 1 273 1 is_stmt 0 view .LVU113
 402 000e 7047     		bx	lr
 403              	.L31:
 404              		.align	2
 405              	.L30:
 406 0010 003C0140 		.word	1073822720
 407              		.cfi_endproc
 408              	.LFE129:
ARM GAS  C:\Users\京垓\AppData\Local\Temp\ccSDmMXX.s 			page 13


 410              		.section	.text.EXTI_ClearITPendingBit,"ax",%progbits
 411              		.align	1
 412              		.global	EXTI_ClearITPendingBit
 413              		.syntax unified
 414              		.thumb
 415              		.thumb_func
 416              		.fpu fpv4-sp-d16
 418              	EXTI_ClearITPendingBit:
 419              	.LVL19:
 420              	.LFB130:
 274:STM32F4xx_LIB/periph/src/stm32f4xx_exti.c **** 
 275:STM32F4xx_LIB/periph/src/stm32f4xx_exti.c **** /**
 276:STM32F4xx_LIB/periph/src/stm32f4xx_exti.c ****   * @brief  Clears the EXTI's line pending bits.
 277:STM32F4xx_LIB/periph/src/stm32f4xx_exti.c ****   * @param  EXTI_Line: specifies the EXTI lines to clear.
 278:STM32F4xx_LIB/periph/src/stm32f4xx_exti.c ****   *          This parameter can be any combination of EXTI_Linex where x can be (0..22)
 279:STM32F4xx_LIB/periph/src/stm32f4xx_exti.c ****   * @retval None
 280:STM32F4xx_LIB/periph/src/stm32f4xx_exti.c ****   */
 281:STM32F4xx_LIB/periph/src/stm32f4xx_exti.c **** void EXTI_ClearITPendingBit(uint32_t EXTI_Line)
 282:STM32F4xx_LIB/periph/src/stm32f4xx_exti.c **** {
 421              		.loc 1 282 1 is_stmt 1 view -0
 422              		.cfi_startproc
 423              		@ args = 0, pretend = 0, frame = 0
 424              		@ frame_needed = 0, uses_anonymous_args = 0
 425              		@ link register save eliminated.
 283:STM32F4xx_LIB/periph/src/stm32f4xx_exti.c ****   /* Check the parameters */
 284:STM32F4xx_LIB/periph/src/stm32f4xx_exti.c ****   assert_param(IS_EXTI_LINE(EXTI_Line));
 426              		.loc 1 284 3 view .LVU115
 285:STM32F4xx_LIB/periph/src/stm32f4xx_exti.c ****   
 286:STM32F4xx_LIB/periph/src/stm32f4xx_exti.c ****   EXTI->PR = EXTI_Line;
 427              		.loc 1 286 3 view .LVU116
 428              		.loc 1 286 12 is_stmt 0 view .LVU117
 429 0000 014B     		ldr	r3, .L33
 430 0002 5861     		str	r0, [r3, #20]
 287:STM32F4xx_LIB/periph/src/stm32f4xx_exti.c **** }
 431              		.loc 1 287 1 view .LVU118
 432 0004 7047     		bx	lr
 433              	.L34:
 434 0006 00BF     		.align	2
 435              	.L33:
 436 0008 003C0140 		.word	1073822720
 437              		.cfi_endproc
 438              	.LFE130:
 440              		.text
 441              	.Letext0:
 442              		.file 2 "d:\\gcc_tool\\gnu_tool_arm_embedded\\arm-none-eabi\\include\\machine\\_default_types.h"
 443              		.file 3 "d:\\gcc_tool\\gnu_tool_arm_embedded\\arm-none-eabi\\include\\sys\\_stdint.h"
 444              		.file 4 "STM32F4xx_LIB/core/core_cm4.h"
 445              		.file 5 "User/system_stm32f4xx.h"
 446              		.file 6 "User/stm32f4xx.h"
 447              		.file 7 "STM32F4xx_LIB/periph/inc/stm32f4xx_exti.h"
ARM GAS  C:\Users\京垓\AppData\Local\Temp\ccSDmMXX.s 			page 14

